

Microchip MPLAB XC8 Assembler V2.41 build 20230208172133 
                                                                                               Sun Feb 04 18:30:28 2024

Microchip MPLAB XC8 C Compiler v2.41 (Free license) build 20230208172133 Og1 
     1                           	processor	18F4620
     2                           	fnconf	rparam,??,?,0
     3                           	pagewidth 120
     4                           	opt	flic
     5                           	psect	idataCOMRAM,global,class=CODE,delta=1,noexec
     6                           	psect	idataBANK0,global,class=CODE,delta=1,noexec
     7                           	psect	idataBANK1,global,class=CODE,delta=1,noexec
     8                           	psect	mediumconst,global,reloc=2,class=MEDIUMCONST,delta=1,noexec
     9                           	psect	cinit,global,reloc=2,class=CODE,delta=1
    10                           	psect	bssCOMRAM,global,class=COMRAM,space=1,delta=1,lowdata,noexec
    11                           	psect	dataCOMRAM,global,class=COMRAM,space=1,delta=1,lowdata,noexec
    12                           	psect	bssBANK0,global,class=BANK0,space=1,delta=1,lowdata,noexec
    13                           	psect	dataBANK0,global,class=BANK0,space=1,delta=1,lowdata,noexec
    14                           	psect	bssBANK1,global,class=BANK1,space=1,delta=1,lowdata,noexec
    15                           	psect	dataBANK1,global,class=BANK1,space=1,delta=1,lowdata,noexec
    16                           	psect	cstackBANK1,global,class=BANK1,space=1,delta=1,lowdata,noexec
    17                           	psect	cstackCOMRAM,global,class=COMRAM,space=1,delta=1,lowdata,noexec
    18                           	psect	text0,global,reloc=2,class=CODE,delta=1
    19                           	psect	text1,global,reloc=2,class=CODE,delta=1
    20                           	psect	text2,global,reloc=2,class=CODE,delta=1
    21                           	psect	text3,global,reloc=2,class=CODE,delta=1
    22                           	psect	text4,global,reloc=2,class=CODE,delta=1
    23                           	psect	text5,global,reloc=2,class=CODE,delta=1
    24                           	psect	text6,global,reloc=2,class=CODE,delta=1
    25                           	psect	text7,global,reloc=2,class=CODE,delta=1
    26                           	psect	text8,global,reloc=2,class=CODE,delta=1
    27                           	psect	text9,global,reloc=2,class=CODE,delta=1
    28                           	psect	text10,global,reloc=2,class=CODE,delta=1
    29                           	psect	text11,global,reloc=2,class=CODE,delta=1,inline
    30                           	psect	text12,global,reloc=2,class=CODE,delta=1,inline
    31                           	psect	text13,global,reloc=2,class=CODE,delta=1
    32                           	psect	text14,global,reloc=2,class=CODE,delta=1
    33                           	psect	text15,global,reloc=2,class=CODE,delta=1
    34                           	psect	text16,global,reloc=2,class=CODE,delta=1,group=1
    35                           	psect	text17,global,reloc=2,class=CODE,delta=1,group=1
    36                           	psect	text18,global,reloc=2,class=CODE,delta=1,group=1
    37                           	psect	text19,global,reloc=2,class=CODE,delta=1,group=1
    38                           	psect	text20,global,reloc=2,class=CODE,delta=1
    39                           	psect	text21,global,reloc=2,class=CODE,delta=1
    40                           	psect	text22,global,reloc=2,class=CODE,delta=1
    41                           	psect	text23,global,reloc=2,class=CODE,delta=1
    42                           	psect	text24,global,reloc=2,class=CODE,delta=1
    43                           	psect	text25,global,reloc=2,class=CODE,delta=1
    44                           	psect	text26,global,reloc=2,class=CODE,delta=1
    45                           	psect	text27,global,reloc=2,class=CODE,delta=1
    46                           	psect	text28,global,reloc=2,class=CODE,delta=1
    47                           	psect	text29,global,reloc=2,class=CODE,delta=1
    48                           	psect	text30,global,reloc=2,class=CODE,delta=1
    49                           	psect	text31,global,reloc=2,class=CODE,delta=1
    50                           	psect	text32,global,reloc=2,class=CODE,delta=1
    51                           	psect	text33,global,reloc=2,class=CODE,delta=1
    52                           	psect	text34,global,reloc=2,class=CODE,delta=1,inline
    53                           	psect	text35,global,reloc=2,class=CODE,delta=1
    54                           	psect	text36,global,reloc=2,class=CODE,delta=1
    55                           	psect	text37,global,reloc=2,class=CODE,delta=1
    56                           	psect	text38,global,reloc=2,class=CODE,delta=1
    57                           	psect	text39,global,reloc=2,class=CODE,delta=1,inline
    58                           	psect	text40,global,reloc=2,class=CODE,delta=1
    59                           	psect	text41,global,reloc=2,class=CODE,delta=1
    60                           	psect	text42,global,reloc=2,class=CODE,delta=1
    61                           	psect	text43,global,reloc=2,class=CODE,delta=1
    62                           	psect	text44,global,reloc=2,class=CODE,delta=1
    63                           	psect	text45,global,reloc=2,class=CODE,delta=1
    64                           	psect	text46,global,reloc=2,class=CODE,delta=1
    65                           	psect	text47,global,reloc=2,class=CODE,delta=1
    66                           	psect	text48,global,reloc=2,class=CODE,delta=1
    67                           	psect	text49,global,reloc=2,class=CODE,delta=1
    68                           	psect	text50,global,reloc=2,class=CODE,delta=1
    69                           	psect	text51,global,reloc=2,class=CODE,delta=1
    70                           	psect	text52,global,reloc=2,class=CODE,delta=1
    71                           	psect	text53,global,reloc=2,class=CODE,delta=1
    72                           	psect	text54,global,reloc=2,class=CODE,delta=1
    73                           	psect	text55,global,reloc=2,class=CODE,delta=1
    74                           	psect	text56,global,reloc=2,class=CODE,delta=1
    75                           	psect	text57,global,reloc=2,class=CODE,delta=1
    76                           	psect	text58,global,reloc=2,class=CODE,delta=1
    77                           	psect	intcode,global,reloc=2,class=CODE,delta=1
    78                           	psect	intcode_body,global,reloc=2,class=CODE,delta=1
    79                           	psect	text60,global,reloc=2,class=CODE,delta=1
    80                           	psect	text61,global,reloc=2,class=CODE,delta=1
    81                           	psect	text62,global,reloc=2,class=CODE,delta=1
    82                           	psect	text63,global,reloc=2,class=CODE,delta=1
    83                           	psect	text64,global,reloc=2,class=CODE,delta=1
    84                           	psect	text65,global,reloc=2,class=CODE,delta=1
    85                           	psect	text66,global,reloc=2,class=CODE,delta=1
    86                           	psect	text67,global,reloc=2,class=CODE,delta=1
    87                           	psect	text68,global,reloc=2,class=CODE,delta=1
    88                           	psect	text69,global,reloc=2,class=CODE,delta=1
    89                           	psect	text70,global,reloc=2,class=CODE,delta=1
    90                           	psect	text71,global,reloc=2,class=CODE,delta=1
    91                           	psect	text72,global,reloc=2,class=CODE,delta=1
    92                           	psect	text73,global,reloc=2,class=CODE,delta=1
    93                           	psect	text74,global,reloc=2,class=CODE,delta=1
    94                           	psect	text75,global,reloc=2,class=CODE,delta=1
    95                           	psect	text76,global,reloc=2,class=CODE,delta=1
    96                           	psect	text77,global,reloc=2,class=CODE,delta=1
    97                           	psect	text78,global,reloc=2,class=CODE,delta=1
    98                           	psect	text79,global,reloc=2,class=CODE,delta=1
    99                           	psect	text80,global,reloc=2,class=CODE,delta=1
   100                           	psect	text81,global,reloc=2,class=CODE,delta=1
   101                           	psect	intsave_regs,global,class=BIGRAM,space=1,delta=1,noexec
   102                           	psect	text82,global,reloc=2,class=CODE,delta=1
   103                           	psect	rparam,global,class=COMRAM,space=1,delta=1,noexec
   104                           	psect	temp,global,ovrld,common,class=COMRAM,space=1,delta=1
   105                           	psect	config,global,abs,ovrld,class=CONFIG,space=4,delta=1,noexec
   106   000000                     
   107                           ; Generated 23/03/2023 GMT
   108                           ; 
   109                           ; Copyright © 2023, Microchip Technology Inc. and its subsidiaries ("Microchip")
   110                           ; All rights reserved.
   111                           ; 
   112                           ; This software is developed by Microchip Technology Inc. and its subsidiaries ("Microch
      +                          ip").
   113                           ; 
   114                           ; Redistribution and use in source and binary forms, with or without modification, are
   115                           ; permitted provided that the following conditions are met:
   116                           ; 
   117                           ;     1. Redistributions of source code must retain the above copyright notice, this lis
      +                          t of
   118                           ;        conditions and the following disclaimer.
   119                           ; 
   120                           ;     2. Redistributions in binary form must reproduce the above copyright notice, this 
      +                          list
   121                           ;        of conditions and the following disclaimer in the documentation and/or other
   122                           ;        materials provided with the distribution. Publication is not required when
   123                           ;        this file is used in an embedded application.
   124                           ; 
   125                           ;     3. Microchip's name may not be used to endorse or promote products derived from th
      +                          is
   126                           ;        software without specific prior written permission.
   127                           ; 
   128                           ; THIS SOFTWARE IS PROVIDED BY MICROCHIP "AS IS" AND ANY EXPRESS OR IMPLIED WARRANTIES,
   129                           ; INCLUDING, BUT NOT LIMITED TO, THE IMPLIED WARRANTIES OF MERCHANTABILITY AND FITNESS F
      +                          OR
   130                           ; PURPOSE ARE DISCLAIMED.  IN NO EVENT SHALL MICROCHIP BE LIABLE FOR ANY DIRECT, INDIREC
      +                          T,
   131                           ; INCIDENTAL, SPECIAL, EXEMPLARY, OR CONSEQUENTIAL DAMAGES (INCLUDING BUT NOT LIMITED TO
   132                           ; PROCUREMENT OF SUBSTITUTE GOODS OR SERVICES; LOSS OF USE, DATA OR PROFITS; OR BUSINESS
   133                           ; INTERRUPTION) HOWSOEVER CAUSED AND ON ANY THEORY OF LIABILITY, WHETHER IN CONTRACT, ST
      +                          RICT
   134                           ; LIABILITY, OR TORT (INCLUDING NEGLIGENCE OR OTHERWISE) ARISING IN ANY WAY OUT OF THE U
      +                          SE OF
   135                           ; THIS SOFTWARE, EVEN IF ADVISED OF THE POSSIBILITY OF SUCH DAMAGE.
   136                           ; 
   137                           ; 
   138                           ; Code-generator required, PIC18F4620 Definitions
   139                           ; 
   140                           ; SFR Addresses
   141   000000                     
   142                           	psect	idataCOMRAM
   143   003B06                     __pidataCOMRAM:
   144                           	callstack 0
   145                           
   146                           ;initializer for _RB7_Flag
   147   003B06  01                 	db	1
   148                           
   149                           ;initializer for _RB6_Flag
   150   003B07  01                 	db	1
   151                           
   152                           ;initializer for _RB5_Flag
   153   003B08  01                 	db	1
   154                           
   155                           ;initializer for _RB4_Flag
   156   003B09  01                 	db	1
   157                           
   158                           ;initializer for _ret
   159   003B0A  01                 	db	1
   160                           
   161                           ;initializer for _led2
   162   003B0B  51                 	db	81
   163                           
   164                           ;initializer for _led1
   165   003B0C  01                 	db	1
   166                           
   167                           ;initializer for _relay2
   168   003B0D  50                 	db	80
   169                           
   170                           ;initializer for _relay1
   171   003B0E  30                 	db	48
   172                           
   173                           	psect	idataBANK0
   174   003AB4                     __pidataBANK0:
   175                           	callstack 0
   176                           
   177                           ;initializer for _lat_registers
   178   003AB4  89                 	db	137
   179   003AB5  0F                 	db	15
   180   003AB6  8A                 	db	138
   181   003AB7  0F                 	db	15
   182   003AB8  8B                 	db	139
   183   003AB9  0F                 	db	15
   184   003ABA  8C                 	db	140
   185   003ABB  0F                 	db	15
   186   003ABC  8D                 	db	141
   187   003ABD  0F                 	db	15
   188                           
   189                           ;initializer for _lcd_2
   190   003ABE  00                 	db	0
   191   003ABF  08                 	db	8
   192   003AC0  03                 	db	3
   193   003AC1  0B                 	db	11
   194   003AC2  13                 	db	19
   195   003AC3  1B                 	db	27
   196   003AC4  23                 	db	35
   197   003AC5  2B                 	db	43
   198   003AC6  33                 	db	51
   199   003AC7  3B                 	db	59
   200                           
   201                           	psect	idataBANK1
   202   003A02                     __pidataBANK1:
   203                           	callstack 0
   204                           
   205                           ;initializer for _port_registers
   206   003A02  80                 	db	128
   207   003A03  0F                 	db	15
   208   003A04  81                 	db	129
   209   003A05  0F                 	db	15
   210   003A06  82                 	db	130
   211   003A07  0F                 	db	15
   212   003A08  83                 	db	131
   213   003A09  0F                 	db	15
   214   003A0A  84                 	db	132
   215   003A0B  0F                 	db	15
   216                           
   217                           ;initializer for _tris_registers
   218   003A0C  92                 	db	146
   219   003A0D  0F                 	db	15
   220   003A0E  93                 	db	147
   221   003A0F  0F                 	db	15
   222   003A10  94                 	db	148
   223   003A11  0F                 	db	15
   224   003A12  95                 	db	149
   225   003A13  0F                 	db	15
   226   003A14  96                 	db	150
   227   003A15  0F                 	db	15
   228                           
   229                           ;initializer for _lcd_1
   230   003A16  02                 	db	2
   231   003A17  0A                 	db	10
   232   003A18  12                 	db	18
   233   003A19  1A                 	db	26
   234   003A1A  22                 	db	34
   235   003A1B  2A                 	db	42
   236                           
   237                           ;initializer for _Password
   238   003A1C  31                 	db	49
   239   003A1D  32                 	db	50
   240   003A1E  33                 	db	51
   241   003A1F  34                 	db	52
   242   003A20  35                 	db	53
   243                           
   244                           ;initializer for _keypad1
   245   003A21  10                 	db	16
   246   003A22  02                 	db	2
   247   003A23  31                 	db	49
   248   003A24  39                 	db	57
   249   003A25  51                 	db	81
   250   003A26  59                 	db	89
   251   003A27  61                 	db	97
   252   003A28  49                 	db	73
   253                           
   254                           	psect	mediumconst
   255   00FEB2                     __pmediumconst:
   256                           	callstack 0
   257   00FEB2  00                 	db	0
   258   00FEB3                     _btn_value:
   259                           	callstack 0
   260   00FEB3  37                 	db	55
   261   00FEB4  38                 	db	56
   262   00FEB5  39                 	db	57
   263   00FEB6  2F                 	db	47
   264   00FEB7  34                 	db	52
   265   00FEB8  35                 	db	53
   266   00FEB9  36                 	db	54
   267   00FEBA  2A                 	db	42
   268   00FEBB  31                 	db	49
   269   00FEBC  32                 	db	50
   270   00FEBD  33                 	db	51
   271   00FEBE  2D                 	db	45
   272   00FEBF  23                 	db	35
   273   00FEC0  30                 	db	48
   274   00FEC1  3D                 	db	61
   275   00FEC2  2B                 	db	43
   276   00FEC3                     __end_of_btn_value:
   277                           	callstack 0
   278   000000                     _SPBRGH	set	4016
   279   000000                     _SPBRG	set	4015
   280   000000                     _TXREG	set	4013
   281   000000                     _TXSTAbits	set	4012
   282   000000                     _RCREG	set	4014
   283   000000                     _RCSTAbits	set	4011
   284   000000                     _TMR3L	set	4018
   285   000000                     _TMR3H	set	4019
   286   000000                     _TMR1L	set	4046
   287   000000                     _TMR1H	set	4047
   288   000000                     _TMR0L	set	4054
   289   000000                     _TMR0H	set	4055
   290   000000                     _INTCON2bits	set	4081
   291   000000                     _SSPSTATbits	set	4039
   292   000000                     _SSPADD	set	4040
   293   000000                     _SSPCON2bits	set	4037
   294   000000                     _SSPCON1bits	set	4038
   295   000000                     _EECON2	set	4007
   296   000000                     _CCPR2H	set	4028
   297   000000                     _CCPR2L	set	4027
   298   000000                     _CCPR1H	set	4031
   299   000000                     _CCPR1L	set	4030
   300   000000                     _ADCON1bits	set	4033
   301   000000                     _ADRESL	set	4035
   302   000000                     _ADRESH	set	4036
   303   000000                     _INTCONbits	set	4082
   304   000000                     _ADCON2bits	set	4032
   305   000000                     _ADCON0bits	set	4034
   306   000000                     _TRISD	set	3989
   307   000000                     _TRISC	set	3988
   308   000000                     _TRISB	set	3987
   309   000000                     _TRISE	set	3990
   310   000000                     _PORTBbits	set	3969
   311   000000                     _TRISCbits	set	3988
   312   000000                     _PIE1bits	set	3997
   313   000000                     _CCP2CONbits	set	4026
   314   000000                     _CCP1CONbits	set	4029
   315   000000                     _PORTE	set	3972
   316   000000                     _PORTD	set	3971
   317   000000                     _PORTC	set	3970
   318   000000                     _PORTB	set	3969
   319   000000                     _PORTA	set	3968
   320   000000                     _LATA	set	3977
   321   000000                     _TRISA	set	3986
   322   000000                     _PIE2bits	set	4000
   323   000000                     _PIR2bits	set	4001
   324   000000                     _PIR1bits	set	3998
   325   000000                     _EECON1bits	set	4006
   326   000000                     _EEDATA	set	4008
   327   000000                     _EEADR	set	4009
   328   000000                     _EEADRH	set	4010
   329   000000                     _T3CONbits	set	4017
   330   000000                     _LATE	set	3981
   331   000000                     _LATD	set	3980
   332   000000                     _LATC	set	3979
   333   000000                     _LATB	set	3978
   334   000000                     _TMR2	set	4044
   335   000000                     _T2CONbits	set	4042
   336   000000                     _T1CONbits	set	4045
   337   000000                     _T0CONbits	set	4053
   338   000000                     _INTCON3bits	set	4080
   339   000000                     _SSPBUF	set	4041
   340   000000                     _BAUDCONbits	set	4024
   341   00FEC3                     STR_16:
   342   00FEC3  52                 	db	82	;'R'
   343   00FEC4  6F                 	db	111	;'o'
   344   00FEC5  6F                 	db	111	;'o'
   345   00FEC6  6D                 	db	109	;'m'
   346   00FEC7  20                 	db	32
   347   00FEC8  31                 	db	49	;'1'
   348   00FEC9  20                 	db	32
   349   00FECA  4C                 	db	76	;'L'
   350   00FECB  61                 	db	97	;'a'
   351   00FECC  6D                 	db	109	;'m'
   352   00FECD  70                 	db	112	;'p'
   353   00FECE  20                 	db	32
   354   00FECF  69                 	db	105	;'i'
   355   00FED0  73                 	db	115	;'s'
   356   00FED1  20                 	db	32
   357   00FED2  4F                 	db	79	;'O'
   358   00FED3  70                 	db	112	;'p'
   359   00FED4  65                 	db	101	;'e'
   360   00FED5  6E                 	db	110	;'n'
   361   00FED6  00                 	db	0
   362   00FED7                     STR_22:
   363   00FED7  52                 	db	82	;'R'
   364   00FED8  6F                 	db	111	;'o'
   365   00FED9  6F                 	db	111	;'o'
   366   00FEDA  6D                 	db	109	;'m'
   367   00FEDB  20                 	db	32
   368   00FEDC  32                 	db	50	;'2'
   369   00FEDD  20                 	db	32
   370   00FEDE  4C                 	db	76	;'L'
   371   00FEDF  61                 	db	97	;'a'
   372   00FEE0  6D                 	db	109	;'m'
   373   00FEE1  70                 	db	112	;'p'
   374   00FEE2  20                 	db	32
   375   00FEE3  69                 	db	105	;'i'
   376   00FEE4  73                 	db	115	;'s'
   377   00FEE5  20                 	db	32
   378   00FEE6  4F                 	db	79	;'O'
   379   00FEE7  70                 	db	112	;'p'
   380   00FEE8  65                 	db	101	;'e'
   381   00FEE9  6E                 	db	110	;'n'
   382   00FEEA  00                 	db	0
   383   00FEEB                     STR_6:
   384   00FEEB  54                 	db	84	;'T'
   385   00FEEC  6F                 	db	111	;'o'
   386   00FEED  20                 	db	32
   387   00FEEE  45                 	db	69	;'E'
   388   00FEEF  6E                 	db	110	;'n'
   389   00FEF0  74                 	db	116	;'t'
   390   00FEF1  65                 	db	101	;'e'
   391   00FEF2  72                 	db	114	;'r'
   392   00FEF3  20                 	db	32
   393   00FEF4  50                 	db	80	;'P'
   394   00FEF5  61                 	db	97	;'a'
   395   00FEF6  73                 	db	115	;'s'
   396   00FEF7  73                 	db	115	;'s'
   397   00FEF8  77                 	db	119	;'w'
   398   00FEF9  6F                 	db	111	;'o'
   399   00FEFA  72                 	db	114	;'r'
   400   00FEFB  64                 	db	100	;'d'
   401   00FEFC  20                 	db	32
   402   00FEFD  00                 	db	0
   403   00FEFE                     STR_29:
   404   00FEFE  43                 	db	67	;'C'
   405   00FEFF  6F                 	db	111	;'o'
   406   00FF00  72                 	db	114	;'r'
   407   00FF01  72                 	db	114	;'r'
   408   00FF02  65                 	db	101	;'e'
   409   00FF03  63                 	db	99	;'c'
   410   00FF04  74                 	db	116	;'t'
   411   00FF05  20                 	db	32
   412   00FF06  50                 	db	80	;'P'
   413   00FF07  61                 	db	97	;'a'
   414   00FF08  73                 	db	115	;'s'
   415   00FF09  73                 	db	115	;'s'
   416   00FF0A  77                 	db	119	;'w'
   417   00FF0B  6F                 	db	111	;'o'
   418   00FF0C  72                 	db	114	;'r'
   419   00FF0D  64                 	db	100	;'d'
   420   00FF0E  20                 	db	32
   421   00FF0F  21                 	db	33
   422   00FF10  00                 	db	0
   423   00FF11                     STR_10:
   424   00FF11  33                 	db	51	;'3'
   425   00FF12  20                 	db	32
   426   00FF13  54                 	db	84	;'T'
   427   00FF14  6F                 	db	111	;'o'
   428   00FF15  20                 	db	32
   429   00FF16  73                 	db	115	;'s'
   430   00FF17  68                 	db	104	;'h'
   431   00FF18  6F                 	db	111	;'o'
   432   00FF19  77                 	db	119	;'w'
   433   00FF1A  20                 	db	32
   434   00FF1B  74                 	db	116	;'t'
   435   00FF1C  68                 	db	104	;'h'
   436   00FF1D  65                 	db	101	;'e'
   437   00FF1E  20                 	db	32
   438   00FF1F  64                 	db	100	;'d'
   439   00FF20  61                 	db	97	;'a'
   440   00FF21  74                 	db	116	;'t'
   441   00FF22  65                 	db	101	;'e'
   442   00FF23  00                 	db	0
   443   00FF24                     STR_17:
   444   00FF24  52                 	db	82	;'R'
   445   00FF25  6F                 	db	111	;'o'
   446   00FF26  6F                 	db	111	;'o'
   447   00FF27  6D                 	db	109	;'m'
   448   00FF28  20                 	db	32
   449   00FF29  31                 	db	49	;'1'
   450   00FF2A  20                 	db	32
   451   00FF2B  54                 	db	84	;'T'
   452   00FF2C  56                 	db	86	;'V'
   453   00FF2D  20                 	db	32
   454   00FF2E  69                 	db	105	;'i'
   455   00FF2F  73                 	db	115	;'s'
   456   00FF30  20                 	db	32
   457   00FF31  4F                 	db	79	;'O'
   458   00FF32  70                 	db	112	;'p'
   459   00FF33  65                 	db	101	;'e'
   460   00FF34  6E                 	db	110	;'n'
   461   00FF35  00                 	db	0
   462   00FF36                     STR_23:
   463   00FF36  52                 	db	82	;'R'
   464   00FF37  6F                 	db	111	;'o'
   465   00FF38  6F                 	db	111	;'o'
   466   00FF39  6D                 	db	109	;'m'
   467   00FF3A  20                 	db	32
   468   00FF3B  32                 	db	50	;'2'
   469   00FF3C  20                 	db	32
   470   00FF3D  54                 	db	84	;'T'
   471   00FF3E  56                 	db	86	;'V'
   472   00FF3F  20                 	db	32
   473   00FF40  69                 	db	105	;'i'
   474   00FF41  73                 	db	115	;'s'
   475   00FF42  20                 	db	32
   476   00FF43  4F                 	db	79	;'O'
   477   00FF44  70                 	db	112	;'p'
   478   00FF45  65                 	db	101	;'e'
   479   00FF46  6E                 	db	110	;'n'
   480   00FF47  00                 	db	0
   481   00FF48                     STR_27:
   482   00FF48  57                 	db	87	;'W'
   483   00FF49  72                 	db	114	;'r'
   484   00FF4A  6F                 	db	111	;'o'
   485   00FF4B  6E                 	db	110	;'n'
   486   00FF4C  67                 	db	103	;'g'
   487   00FF4D  20                 	db	32
   488   00FF4E  50                 	db	80	;'P'
   489   00FF4F  61                 	db	97	;'a'
   490   00FF50  73                 	db	115	;'s'
   491   00FF51  73                 	db	115	;'s'
   492   00FF52  77                 	db	119	;'w'
   493   00FF53  6F                 	db	111	;'o'
   494   00FF54  72                 	db	114	;'r'
   495   00FF55  64                 	db	100	;'d'
   496   00FF56  20                 	db	32
   497   00FF57  21                 	db	33
   498   00FF58  00                 	db	0
   499   00FF59                     STR_15:
   500   00FF59  52                 	db	82	;'R'
   501   00FF5A  6F                 	db	111	;'o'
   502   00FF5B  6F                 	db	111	;'o'
   503   00FF5C  6D                 	db	109	;'m'
   504   00FF5D  20                 	db	32
   505   00FF5E  31                 	db	49	;'1'
   506   00FF5F  20                 	db	32
   507   00FF60  69                 	db	105	;'i'
   508   00FF61  73                 	db	115	;'s'
   509   00FF62  20                 	db	32
   510   00FF63  4F                 	db	79	;'O'
   511   00FF64  70                 	db	112	;'p'
   512   00FF65  65                 	db	101	;'e'
   513   00FF66  6E                 	db	110	;'n'
   514   00FF67  00                 	db	0
   515   00FF68                     STR_21:
   516   00FF68  52                 	db	82	;'R'
   517   00FF69  6F                 	db	111	;'o'
   518   00FF6A  6F                 	db	111	;'o'
   519   00FF6B  6D                 	db	109	;'m'
   520   00FF6C  20                 	db	32
   521   00FF6D  32                 	db	50	;'2'
   522   00FF6E  20                 	db	32
   523   00FF6F  69                 	db	105	;'i'
   524   00FF70  73                 	db	115	;'s'
   525   00FF71  20                 	db	32
   526   00FF72  4F                 	db	79	;'O'
   527   00FF73  70                 	db	112	;'p'
   528   00FF74  65                 	db	101	;'e'
   529   00FF75  6E                 	db	110	;'n'
   530   00FF76  00                 	db	0
   531   00FF77                     STR_13:
   532   00FF77  32                 	db	50	;'2'
   533   00FF78  20                 	db	32
   534   00FF79  54                 	db	84	;'T'
   535   00FF7A  6F                 	db	111	;'o'
   536   00FF7B  20                 	db	32
   537   00FF7C  4F                 	db	79	;'O'
   538   00FF7D  70                 	db	112	;'p'
   539   00FF7E  65                 	db	101	;'e'
   540   00FF7F  6E                 	db	110	;'n'
   541   00FF80  20                 	db	32
   542   00FF81  4C                 	db	76	;'L'
   543   00FF82  61                 	db	97	;'a'
   544   00FF83  6D                 	db	109	;'m'
   545   00FF84  70                 	db	112	;'p'
   546   00FF85  00                 	db	0
   547   00FF86                     STR_12:
   548   00FF86  31                 	db	49	;'1'
   549   00FF87  20                 	db	32
   550   00FF88  54                 	db	84	;'T'
   551   00FF89  6F                 	db	111	;'o'
   552   00FF8A  20                 	db	32
   553   00FF8B  4F                 	db	79	;'O'
   554   00FF8C  70                 	db	112	;'p'
   555   00FF8D  65                 	db	101	;'e'
   556   00FF8E  6E                 	db	110	;'n'
   557   00FF8F  20                 	db	32
   558   00FF90  44                 	db	68	;'D'
   559   00FF91  6F                 	db	111	;'o'
   560   00FF92  6F                 	db	111	;'o'
   561   00FF93  72                 	db	114	;'r'
   562   00FF94  00                 	db	0
   563   00FF95                     STR_14:
   564   00FF95  33                 	db	51	;'3'
   565   00FF96  20                 	db	32
   566   00FF97  54                 	db	84	;'T'
   567   00FF98  6F                 	db	111	;'o'
   568   00FF99  20                 	db	32
   569   00FF9A  4F                 	db	79	;'O'
   570   00FF9B  70                 	db	112	;'p'
   571   00FF9C  65                 	db	101	;'e'
   572   00FF9D  6E                 	db	110	;'n'
   573   00FF9E  20                 	db	32
   574   00FF9F  54                 	db	84	;'T'
   575   00FFA0  56                 	db	86	;'V'
   576   00FFA1  00                 	db	0
   577   00FFA2                     STR_25:
   578   00FFA2  50                 	db	80	;'P'
   579   00FFA3  61                 	db	97	;'a'
   580   00FFA4  73                 	db	115	;'s'
   581   00FFA5  73                 	db	115	;'s'
   582   00FFA6  77                 	db	119	;'w'
   583   00FFA7  6F                 	db	111	;'o'
   584   00FFA8  72                 	db	114	;'r'
   585   00FFA9  64                 	db	100	;'d'
   586   00FFAA  20                 	db	32
   587   00FFAB  3A                 	db	58	;':'
   588   00FFAC  20                 	db	32
   589   00FFAD  00                 	db	0
   590   00FFAE                     STR_8:
   591   00FFAE  31                 	db	49	;'1'
   592   00FFAF  20                 	db	32
   593   00FFB0  46                 	db	70	;'F'
   594   00FFB1  6F                 	db	111	;'o'
   595   00FFB2  72                 	db	114	;'r'
   596   00FFB3  20                 	db	32
   597   00FFB4  52                 	db	82	;'R'
   598   00FFB5  6F                 	db	111	;'o'
   599   00FFB6  6F                 	db	111	;'o'
   600   00FFB7  6D                 	db	109	;'m'
   601   00FFB8  31                 	db	49	;'1'
   602   00FFB9  00                 	db	0
   603   00FFBA                     STR_9:
   604   00FFBA  32                 	db	50	;'2'
   605   00FFBB  20                 	db	32
   606   00FFBC  46                 	db	70	;'F'
   607   00FFBD  6F                 	db	111	;'o'
   608   00FFBE  72                 	db	114	;'r'
   609   00FFBF  20                 	db	32
   610   00FFC0  52                 	db	82	;'R'
   611   00FFC1  6F                 	db	111	;'o'
   612   00FFC2  6F                 	db	111	;'o'
   613   00FFC3  6D                 	db	109	;'m'
   614   00FFC4  32                 	db	50	;'2'
   615   00FFC5  00                 	db	0
   616   00FFC6                     STR_28:
   617   00FFC6  54                 	db	84	;'T'
   618   00FFC7  72                 	db	114	;'r'
   619   00FFC8  79                 	db	121	;'y'
   620   00FFC9  20                 	db	32
   621   00FFCA  41                 	db	65	;'A'
   622   00FFCB  67                 	db	103	;'g'
   623   00FFCC  61                 	db	97	;'a'
   624   00FFCD  69                 	db	105	;'i'
   625   00FFCE  6E                 	db	110	;'n'
   626   00FFCF  00                 	db	0
   627   00FFD0                     STR_24:
   628   00FFD0  2A                 	db	42
   629   00FFD1  20                 	db	32
   630   00FFD2  54                 	db	84	;'T'
   631   00FFD3  6F                 	db	111	;'o'
   632   00FFD4  20                 	db	32
   633   00FFD5  45                 	db	69	;'E'
   634   00FFD6  78                 	db	120	;'x'
   635   00FFD7  69                 	db	105	;'i'
   636   00FFD8  74                 	db	116	;'t'
   637   00FFD9  00                 	db	0
   638   00FFDA                     STR_11:
   639   00FFDA  61                 	db	97	;'a'
   640   00FFDB  6E                 	db	110	;'n'
   641   00FFDC  64                 	db	100	;'d'
   642   00FFDD  20                 	db	32
   643   00FFDE  74                 	db	116	;'t'
   644   00FFDF  69                 	db	105	;'i'
   645   00FFE0  6D                 	db	109	;'m'
   646   00FFE1  65                 	db	101	;'e'
   647   00FFE2  00                 	db	0
   648   00FFE3                     STR_7:
   649   00FFE3  43                 	db	67	;'C'
   650   00FFE4  6C                 	db	108	;'l'
   651   00FFE5  69                 	db	105	;'i'
   652   00FFE6  63                 	db	99	;'c'
   653   00FFE7  6B                 	db	107	;'k'
   654   00FFE8  20                 	db	32
   655   00FFE9  2A                 	db	42
   656   00FFEA  00                 	db	0
   657   00FFEB                     STR_5:
   658   00FFEB  54                 	db	84	;'T'
   659   00FFEC  69                 	db	105	;'i'
   660   00FFED  6D                 	db	109	;'m'
   661   00FFEE  65                 	db	101	;'e'
   662   00FFEF  20                 	db	32
   663   00FFF0  3A                 	db	58	;':'
   664   00FFF1  20                 	db	32
   665   00FFF2  00                 	db	0
   666   00FFF3                     STR_4:
   667   00FFF3  44                 	db	68	;'D'
   668   00FFF4  61                 	db	97	;'a'
   669   00FFF5  74                 	db	116	;'t'
   670   00FFF6  65                 	db	101	;'e'
   671   00FFF7  20                 	db	32
   672   00FFF8  3A                 	db	58	;':'
   673   00FFF9  20                 	db	32
   674   00FFFA  00                 	db	0
   675   00FFFB                     STR_1:
   676   00FFFB  25                 	db	37
   677   00FFFC  69                 	db	105	;'i'
   678   00FFFD  00                 	db	0
   679   00FFFE  00                 	db	0	; dummy byte at the end
   680   000000                     
   681                           ; #config settings
   682                           
   683                           	psect	cinit
   684   002EC6                     __pcinit:
   685                           	callstack 0
   686   002EC6                     start_initialization:
   687                           	callstack 0
   688   002EC6                     __initialization:
   689                           	callstack 0
   690                           
   691                           ; Initialize objects allocated to BANK1 (39 bytes)
   692                           ; load TBLPTR registers with __pidataBANK1
   693   002EC6  0E02               	movlw	low __pidataBANK1
   694   002EC8  6EF6               	movwf	tblptrl,c
   695   002ECA  0E3A               	movlw	high __pidataBANK1
   696   002ECC  6EF7               	movwf	tblptrh,c
   697   002ECE  0E00               	movlw	low (__pidataBANK1 shr (0+16))
   698   002ED0  6EF8               	movwf	tblptru,c
   699   002ED2  EE01  F03A         	lfsr	0,__pdataBANK1
   700   002ED6  EE10 F027          	lfsr	1,39
   701   002EDA                     copy_data0:
   702   002EDA  0009               	tblrd		*+
   703   002EDC  CFF5 FFEE          	movff	tablat,postinc0
   704   002EE0  50E5               	movf	postdec1,w,c
   705   002EE2  50E1               	movf	fsr1l,w,c
   706   002EE4  E1FA               	bnz	copy_data0
   707                           
   708                           ; Initialize objects allocated to BANK0 (20 bytes)
   709                           ; load TBLPTR registers with __pidataBANK0
   710   002EE6  0EB4               	movlw	low __pidataBANK0
   711   002EE8  6EF6               	movwf	tblptrl,c
   712   002EEA  0E3A               	movlw	high __pidataBANK0
   713   002EEC  6EF7               	movwf	tblptrh,c
   714   002EEE  0E00               	movlw	low (__pidataBANK0 shr (0+16))
   715   002EF0  6EF8               	movwf	tblptru,c
   716   002EF2  EE00  F0EB         	lfsr	0,__pdataBANK0
   717   002EF6  EE10 F014          	lfsr	1,20
   718   002EFA                     copy_data1:
   719   002EFA  0009               	tblrd		*+
   720   002EFC  CFF5 FFEE          	movff	tablat,postinc0
   721   002F00  50E5               	movf	postdec1,w,c
   722   002F02  50E1               	movf	fsr1l,w,c
   723   002F04  E1FA               	bnz	copy_data1
   724                           
   725                           ; Initialize objects allocated to COMRAM (9 bytes)
   726                           ; load TBLPTR registers with __pidataCOMRAM
   727   002F06  0E06               	movlw	low __pidataCOMRAM
   728   002F08  6EF6               	movwf	tblptrl,c
   729   002F0A  0E3B               	movlw	high __pidataCOMRAM
   730   002F0C  6EF7               	movwf	tblptrh,c
   731   002F0E  0E00               	movlw	low (__pidataCOMRAM shr (0+16))
   732   002F10  6EF8               	movwf	tblptru,c
   733   002F12  EE00  F06B         	lfsr	0,__pdataCOMRAM
   734   002F16  EE10 F009          	lfsr	1,9
   735   002F1A                     copy_data2:
   736   002F1A  0009               	tblrd		*+
   737   002F1C  CFF5 FFEE          	movff	tablat,postinc0
   738   002F20  50E5               	movf	postdec1,w,c
   739   002F22  50E1               	movf	fsr1l,w,c
   740   002F24  E1FA               	bnz	copy_data2
   741                           
   742                           ; Clear objects allocated to BANK1 (58 bytes)
   743   002F26  EE01  F000         	lfsr	0,__pbssBANK1
   744   002F2A  0E3A               	movlw	58
   745   002F2C                     clear_0:
   746   002F2C  6AEE               	clrf	postinc0,c
   747   002F2E  06E8               	decf	wreg,f,c
   748   002F30  E1FD               	bnz	clear_0
   749                           
   750                           ; Clear objects allocated to BANK0 (107 bytes)
   751   002F32  EE00  F080         	lfsr	0,__pbssBANK0
   752   002F36  0E6B               	movlw	107
   753   002F38                     clear_1:
   754   002F38  6AEE               	clrf	postinc0,c
   755   002F3A  06E8               	decf	wreg,f,c
   756   002F3C  E1FD               	bnz	clear_1
   757                           
   758                           ; Clear objects allocated to COMRAM (23 bytes)
   759   002F3E  EE00  F054         	lfsr	0,__pbssCOMRAM
   760   002F42  0E17               	movlw	23
   761   002F44                     clear_2:
   762   002F44  6AEE               	clrf	postinc0,c
   763   002F46  06E8               	decf	wreg,f,c
   764   002F48  E1FD               	bnz	clear_2
   765   002F4A                     end_of_initialization:
   766                           	callstack 0
   767   002F4A                     __end_of__initialization:
   768                           	callstack 0
   769   002F4A  9074               	bcf	int$flags,0,c	;clear compiler interrupt flag (level 1)
   770   002F4C  9274               	bcf	int$flags,1,c	;clear compiler interrupt flag (level 2)
   771   002F4E  0100               	movlb	0
   772   002F50  EF09  F000         	goto	_main	;jump to C main() function
   773                           
   774                           	psect	bssCOMRAM
   775   000054                     __pbssCOMRAM:
   776                           	callstack 0
   777   000054                     _password_check:
   778                           	callstack 0
   779   000054                     	ds	1
   780   000055                     _check4:
   781                           	callstack 0
   782   000055                     	ds	1
   783   000056                     _check3:
   784                           	callstack 0
   785   000056                     	ds	1
   786   000057                     _check2:
   787                           	callstack 0
   788   000057                     	ds	1
   789   000058                     _check:
   790                           	callstack 0
   791   000058                     	ds	1
   792   000059                     _i:
   793                           	callstack 0
   794   000059                     	ds	1
   795   00005A                     _timer2_preload:
   796                           	callstack 0
   797   00005A                     	ds	1
   798   00005B                     _compare2_flag:
   799                           	callstack 0
   800   00005B                     	ds	1
   801   00005C                     _compare_flag:
   802                           	callstack 0
   803   00005C                     	ds	1
   804   00005D                     relay_turn_off@F3052:
   805                           	callstack 0
   806   00005D                     	ds	1
   807   00005E                     relay_turn_on@F3047:
   808                           	callstack 0
   809   00005E                     	ds	1
   810   00005F                     relay_initialize@F3042:
   811                           	callstack 0
   812   00005F                     	ds	1
   813   000060                     _check4@RealTimeClockDS1307$F654:
   814                           	callstack 0
   815   000060                     	ds	1
   816   000061                     led_toggle@F3063:
   817                           	callstack 0
   818   000061                     	ds	1
   819   000062                     led_turn_off@F3058:
   820                           	callstack 0
   821   000062                     	ds	1
   822   000063                     led_turn_on@F3053:
   823                           	callstack 0
   824   000063                     	ds	1
   825   000064                     led_initialize@F3048:
   826                           	callstack 0
   827   000064                     	ds	1
   828   000065                     _i2c_obj:
   829                           	callstack 0
   830   000065                     	ds	5
   831   00006A                     _keypadvalue:
   832                           	callstack 0
   833   00006A                     	ds	1
   834                           
   835                           	psect	dataCOMRAM
   836   00006B                     __pdataCOMRAM:
   837                           	callstack 0
   838   00006B                     _RB7_Flag:
   839                           	callstack 0
   840   00006B                     	ds	1
   841   00006C                     _RB6_Flag:
   842                           	callstack 0
   843   00006C                     	ds	1
   844   00006D                     _RB5_Flag:
   845                           	callstack 0
   846   00006D                     	ds	1
   847   00006E                     _RB4_Flag:
   848                           	callstack 0
   849   00006E                     	ds	1
   850   00006F                     _ret:
   851                           	callstack 0
   852   00006F                     	ds	1
   853   000070                     _led2:
   854                           	callstack 0
   855   000070                     	ds	1
   856   000071                     _led1:
   857                           	callstack 0
   858   000071                     	ds	1
   859   000072                     _relay2:
   860                           	callstack 0
   861   000072                     	ds	1
   862   000073                     _relay1:
   863                           	callstack 0
   864   000073                     	ds	1
   865                           
   866                           	psect	bssBANK0
   867   000080                     __pbssBANK0:
   868                           	callstack 0
   869   000080                     _RealTimeClockDS1307@RealTimeClockDS1307$F644:
   870                           	callstack 0
   871   000080                     	ds	6
   872   000086                     _EUSART_OverrunErrorHandler:
   873                           	callstack 0
   874   000086                     	ds	2
   875   000088                     _EUSART_FramingErrorHandler:
   876                           	callstack 0
   877   000088                     	ds	2
   878   00008A                     _EUSART_RxInterruptHandler:
   879                           	callstack 0
   880   00008A                     	ds	2
   881   00008C                     _EUSART_TxInterruptHandler:
   882                           	callstack 0
   883   00008C                     	ds	2
   884   00008E                     _timer3_preload:
   885                           	callstack 0
   886   00008E                     	ds	2
   887   000090                     _TMR3_Interrupt_Handler:
   888                           	callstack 0
   889   000090                     	ds	2
   890   000092                     _TMR2_Interrupt_Handler:
   891                           	callstack 0
   892   000092                     	ds	2
   893   000094                     _timer1_preload:
   894                           	callstack 0
   895   000094                     	ds	2
   896   000096                     _TMR1_Interrupt_Handler:
   897                           	callstack 0
   898   000096                     	ds	2
   899   000098                     _timer0_preload:
   900                           	callstack 0
   901   000098                     	ds	2
   902   00009A                     _TMR0_Interrupt_Handler:
   903                           	callstack 0
   904   00009A                     	ds	2
   905   00009C                     _RB7_InterruptHandler_LOW:
   906                           	callstack 0
   907   00009C                     	ds	2
   908   00009E                     _RB7_InterruptHandler_HIGH:
   909                           	callstack 0
   910   00009E                     	ds	2
   911   0000A0                     _RB6_InterruptHandler_LOW:
   912                           	callstack 0
   913   0000A0                     	ds	2
   914   0000A2                     _RB6_InterruptHandler_HIGH:
   915                           	callstack 0
   916   0000A2                     	ds	2
   917   0000A4                     _RB5_InterruptHandler_LOW:
   918                           	callstack 0
   919   0000A4                     	ds	2
   920   0000A6                     _RB5_InterruptHandler_HIGH:
   921                           	callstack 0
   922   0000A6                     	ds	2
   923   0000A8                     _RB4_InterruptHandler_LOW:
   924                           	callstack 0
   925   0000A8                     	ds	2
   926   0000AA                     _RB4_InterruptHandler_HIGH:
   927                           	callstack 0
   928   0000AA                     	ds	2
   929   0000AC                     _INT2_InterruptHandler:
   930                           	callstack 0
   931   0000AC                     	ds	2
   932   0000AE                     _INT1_InterruptHandler:
   933                           	callstack 0
   934   0000AE                     	ds	2
   935   0000B0                     _INT0_InterruptHandler:
   936                           	callstack 0
   937   0000B0                     	ds	2
   938   0000B2                     CCP_Compare_Mode_Set_Value@F3112:
   939                           	callstack 0
   940   0000B2                     	ds	2
   941   0000B4                     _CCP2_Interrupt_Handler:
   942                           	callstack 0
   943   0000B4                     	ds	2
   944   0000B6                     _CCP1_Interrupt_Handler:
   945                           	callstack 0
   946   0000B6                     	ds	2
   947   0000B8                     _ADC_Interrupt_Handler:
   948                           	callstack 0
   949   0000B8                     	ds	2
   950   0000BA                     _check5:
   951                           	callstack 0
   952   0000BA                     	ds	1
   953   0000BB                     _usart_obj:
   954                           	callstack 0
   955   0000BB                     	ds	16
   956   0000CB                     _RealTimeClockDS1307_Time:
   957                           	callstack 0
   958   0000CB                     	ds	9
   959   0000D4                     _RealTimeClockDS1307_Data:
   960                           	callstack 0
   961   0000D4                     	ds	9
   962   0000DD                     _timer1_obj:
   963                           	callstack 0
   964   0000DD                     	ds	7
   965   0000E4                     _timer_obj:
   966                           	callstack 0
   967   0000E4                     	ds	7
   968                           
   969                           	psect	dataBANK0
   970   0000EB                     __pdataBANK0:
   971                           	callstack 0
   972   0000EB                     _lat_registers:
   973                           	callstack 0
   974   0000EB                     	ds	10
   975   0000F5                     _lcd_2:
   976                           	callstack 0
   977   0000F5                     	ds	10
   978                           
   979                           	psect	bssBANK1
   980   000100                     __pbssBANK1:
   981                           	callstack 0
   982   000100                     	ds	11
   983   00010B                     _RealTimeClockDS1307_Str_Data:
   984                           	callstack 0
   985   00010B                     	ds	9
   986   000114                     _RealTimeClockDS1307:
   987                           	callstack 0
   988   000114                     	ds	6
   989   00011A                     	ds	6
   990   000120                     	ds	4
   991   000124                     _ccp2_obj:
   992                           	callstack 0
   993   000124                     	ds	11
   994   00012F                     _ccp1_obj:
   995                           	callstack 0
   996   00012F                     	ds	11
   997                           
   998                           	psect	dataBANK1
   999   00013A                     __pdataBANK1:
  1000                           	callstack 0
  1001   00013A                     _port_registers:
  1002                           	callstack 0
  1003   00013A                     	ds	10
  1004   000144                     _tris_registers:
  1005                           	callstack 0
  1006   000144                     	ds	10
  1007   00014E                     _lcd_1:
  1008                           	callstack 0
  1009   00014E                     	ds	6
  1010   000154                     _Password:
  1011                           	callstack 0
  1012   000154                     	ds	5
  1013   000159                     _keypad1:
  1014                           	callstack 0
  1015   000159                     	ds	8
  1016                           
  1017                           	psect	cstackBANK1
  1018   000161                     __pcstackBANK1:
  1019                           	callstack 0
  1020   000161                     EUSART_Baud_Rate_Calculation@Baud_Rate_Temp:
  1021                           	callstack 0
  1022                           
  1023                           ; 4 bytes @ 0x0
  1024   000161                     	ds	4
  1025   000165                     _EUSART_Baud_Rate_Calculation$5468:
  1026                           	callstack 0
  1027                           
  1028                           ; 4 bytes @ 0x4
  1029   000165                     	ds	4
  1030   000169                     ??_main:
  1031                           
  1032                           ; 1 bytes @ 0x8
  1033   000169                     	ds	2
  1034   00016B                     main@j:
  1035                           	callstack 0
  1036                           
  1037                           ; 2 bytes @ 0xA
  1038   00016B                     	ds	2
  1039                           
  1040                           	psect	cstackCOMRAM
  1041   000001                     __pcstackCOMRAM:
  1042                           	callstack 0
  1043   000001                     RB4_ISR@RB4_source:
  1044                           	callstack 0
  1045   000001                     RB5_ISR@RB5_source:
  1046                           	callstack 0
  1047   000001                     RB6_ISR@RB6_source:
  1048                           	callstack 0
  1049   000001                     RB7_ISR@RB7_source:
  1050                           	callstack 0
  1051   000001                     Timer3_Write_value@_timer:
  1052                           	callstack 0
  1053   000001                     i2CCP_Compare_Mode_Set_Value@_ccp_obj:
  1054                           	callstack 0
  1055                           
  1056                           ; 2 bytes @ 0x0
  1057   000001                     	ds	2
  1058   000003                     Timer3_Write_value@_value:
  1059                           	callstack 0
  1060   000003                     i2CCP_Compare_Mode_Set_Value@compare_value:
  1061                           	callstack 0
  1062                           
  1063                           ; 2 bytes @ 0x2
  1064   000003                     	ds	2
  1065   000005                     
  1066                           ; 1 bytes @ 0x4
  1067   000005                     	ds	1
  1068   000006                     i2CCP_Compare_Mode_Set_Value@capture_temp_value:
  1069                           	callstack 0
  1070                           
  1071                           ; 2 bytes @ 0x5
  1072   000006                     	ds	2
  1073   000008                     ??_InterruptManagerHigh:
  1074                           
  1075                           ; 1 bytes @ 0x7
  1076   000008                     	ds	4
  1077   00000C                     ?___xxtofl:
  1078                           	callstack 0
  1079   00000C                     CCP_Compare_Mode_Set_Value@_ccp_obj:
  1080                           	callstack 0
  1081   00000C                     CCP_Interrupt_Config@_ccp_obj:
  1082                           	callstack 0
  1083   00000C                     CCP_Mode_Timer_Select@_ccp_obj:
  1084                           	callstack 0
  1085   00000C                     gpio_pin_direction_intialize@_pin_config:
  1086                           	callstack 0
  1087   00000C                     gpio_pin_write_logic@_pin_config:
  1088                           	callstack 0
  1089   00000C                     gpio_pin_read_logic@_pin_config:
  1090                           	callstack 0
  1091   00000C                     MSSP_I2C_Master_Send_Start@i2c_obj:
  1092                           	callstack 0
  1093   00000C                     MSSP_I2C_Master_Send_Repeated_Start@i2c_obj:
  1094                           	callstack 0
  1095   00000C                     MSSP_I2C_Master_Send_Stop@i2c_obj:
  1096                           	callstack 0
  1097   00000C                     MSSP_I2C_Master_Write_Blocking@i2c_obj:
  1098                           	callstack 0
  1099   00000C                     MSSP_I2C_Master_Read_Blocking@i2c_obj:
  1100                           	callstack 0
  1101   00000C                     Timer1_Mode_Select@_timer:
  1102                           	callstack 0
  1103   00000C                     Timer3_Mode_Select@_timer:
  1104                           	callstack 0
  1105   00000C                     EUSART_ASYNC_TX_Init@_eusart:
  1106                           	callstack 0
  1107   00000C                     EUSART_ASYNC_RX_Init@_eusart:
  1108                           	callstack 0
  1109   00000C                     ___xxtofl@val:
  1110                           	callstack 0
  1111                           
  1112                           ; 4 bytes @ 0xB
  1113   00000C                     	ds	2
  1114   00000E                     ??_gpio_pin_direction_intialize:
  1115   00000E                     gpio_pin_write_logic@logic:
  1116                           	callstack 0
  1117   00000E                     MSSP_I2C_Master_Write_Blocking@i2c_data:
  1118                           	callstack 0
  1119   00000E                     MSSP_I2C_Master_Read_Blocking@ack:
  1120                           	callstack 0
  1121   00000E                     CCP_Compare_Mode_Set_Value@compare_value:
  1122                           	callstack 0
  1123   00000E                     gpio_pin_read_logic@logic:
  1124                           	callstack 0
  1125   00000E                     Timer1_Init@_timer:
  1126                           	callstack 0
  1127   00000E                     Timer3_Init@_timer:
  1128                           	callstack 0
  1129                           
  1130                           ; 2 bytes @ 0xD
  1131   00000E                     	ds	1
  1132   00000F                     ??_gpio_pin_write_logic:
  1133   00000F                     CCP_Capture_Mode_Config@_ccp_obj:
  1134                           	callstack 0
  1135   00000F                     CCP_Compare_Mode_Config@_ccp_obj:
  1136                           	callstack 0
  1137   00000F                     MSSP_I2C_Master_Write_Blocking@ack:
  1138                           	callstack 0
  1139   00000F                     MSSP_I2C_Master_Read_Blocking@i2c_data:
  1140                           	callstack 0
  1141                           
  1142                           ; 2 bytes @ 0xE
  1143   00000F                     	ds	1
  1144   000010                     ??_gpio_pin_read_logic:
  1145   000010                     ??_Timer3_Init:
  1146   000010                     ??_Timer1_Init:
  1147   000010                     ??___xxtofl:
  1148                           
  1149                           ; 1 bytes @ 0xF
  1150   000010                     	ds	1
  1151   000011                     ??_CCP_Capture_Mode_Config:
  1152   000011                     ??_CCP_Compare_Mode_Config:
  1153   000011                     ??_Read_RealTimeClockDS1307:
  1154   000011                     EEPROM_24C02C_Write_Byte@Byte_Address:
  1155                           	callstack 0
  1156   000011                     CCP_Compare_Mode_Set_Value@capture_temp_value:
  1157                           	callstack 0
  1158                           
  1159                           ; 2 bytes @ 0x10
  1160   000011                     	ds	1
  1161   000012                     Read_RealTimeClockDS1307@add:
  1162                           	callstack 0
  1163   000012                     EEPROM_24C02C_Write_Byte@Data:
  1164                           	callstack 0
  1165                           
  1166                           ; 1 bytes @ 0x11
  1167   000012                     	ds	1
  1168   000013                     ??_EEPROM_24C02C_Write_Byte:
  1169   000013                     Read_RealTimeClockDS1307@data_read:
  1170                           	callstack 0
  1171                           
  1172                           ; 1 bytes @ 0x12
  1173   000013                     	ds	1
  1174   000014                     Read_RealTimeClockDS1307@slave_ack:
  1175                           	callstack 0
  1176   000014                     EEPROM_24C02C_Write_Byte@EEPROM_Address:
  1177                           	callstack 0
  1178   000014                     ___xxtofl@sign:
  1179                           	callstack 0
  1180                           
  1181                           ; 1 bytes @ 0x13
  1182   000014                     	ds	1
  1183   000015                     ?_RealTimeClockDS1307_Get_Date_Time:
  1184                           	callstack 0
  1185   000015                     EEPROM_24C02C_Write_Byte@slave_ack:
  1186                           	callstack 0
  1187   000015                     ___xxtofl@exp:
  1188                           	callstack 0
  1189   000015                     lcd_8bit_send_enable_signal@lcd:
  1190                           	callstack 0
  1191   000015                     keypad_get_value@_keypad_obj:
  1192                           	callstack 0
  1193   000015                     led_turn_on@led:
  1194                           	callstack 0
  1195   000015                     relay_turn_on@_relay:
  1196                           	callstack 0
  1197   000015                     gpio_pin_intialize@_pin_config:
  1198                           	callstack 0
  1199                           
  1200                           ; 2 bytes @ 0x14
  1201   000015                     	ds	1
  1202   000016                     ___xxtofl@arg:
  1203                           	callstack 0
  1204                           
  1205                           ; 4 bytes @ 0x15
  1206   000016                     	ds	1
  1207   000017                     ??_gpio_pin_intialize:
  1208   000017                     ??_led_turn_on:
  1209   000017                     ??_relay_turn_on:
  1210   000017                     lcd_8bit_send_enable_signal@ret:
  1211                           	callstack 0
  1212   000017                     keypad_get_value@value:
  1213                           	callstack 0
  1214                           
  1215                           ; 2 bytes @ 0x16
  1216   000017                     	ds	1
  1217   000018                     led_turn_on@pin_obj:
  1218                           	callstack 0
  1219   000018                     relay_turn_on@pin_obj:
  1220                           	callstack 0
  1221   000018                     gpio_pin_intialize@ret:
  1222                           	callstack 0
  1223   000018                     lcd_8bit_send_command@lcd:
  1224                           	callstack 0
  1225   000018                     lcd_8bit_send_char_data@lcd:
  1226                           	callstack 0
  1227                           
  1228                           ; 2 bytes @ 0x17
  1229   000018                     	ds	1
  1230   000019                     ??_keypad_get_value:
  1231   000019                     keypad_initialize@_keypad_obj:
  1232                           	callstack 0
  1233   000019                     led_initialize@led:
  1234                           	callstack 0
  1235   000019                     relay_initialize@_relay:
  1236                           	callstack 0
  1237   000019                     CCP_Init@_ccp_obj:
  1238                           	callstack 0
  1239                           
  1240                           ; 2 bytes @ 0x18
  1241   000019                     	ds	1
  1242   00001A                     ?___fldiv:
  1243                           	callstack 0
  1244   00001A                     lcd_8bit_send_command@command:
  1245                           	callstack 0
  1246   00001A                     lcd_8bit_send_char_data@data:
  1247                           	callstack 0
  1248   00001A                     ___fldiv@b:
  1249                           	callstack 0
  1250                           
  1251                           ; 4 bytes @ 0x19
  1252   00001A                     	ds	1
  1253   00001B                     ??_lcd_8bit_send_command:
  1254   00001B                     ??_lcd_8bit_send_char_data:
  1255   00001B                     ??_keypad_initialize:
  1256   00001B                     ??_led_initialize:
  1257   00001B                     ??_relay_initialize:
  1258   00001B                     keypad_get_value@ret:
  1259                           	callstack 0
  1260                           
  1261                           ; 1 bytes @ 0x1A
  1262   00001B                     	ds	1
  1263   00001C                     keypad_get_value@coulmn_logic:
  1264                           	callstack 0
  1265   00001C                     led_initialize@pin_obj:
  1266                           	callstack 0
  1267   00001C                     relay_initialize@pin_obj:
  1268                           	callstack 0
  1269                           
  1270                           ; 1 bytes @ 0x1B
  1271   00001C                     	ds	1
  1272   00001D                     keypad_initialize@ret:
  1273                           	callstack 0
  1274   00001D                     keypad_get_value@l_counter:
  1275                           	callstack 0
  1276                           
  1277                           ; 1 bytes @ 0x1C
  1278   00001D                     	ds	1
  1279   00001E                     keypad_initialize@rows_counter:
  1280                           	callstack 0
  1281   00001E                     keypad_get_value@l_rows_counter:
  1282                           	callstack 0
  1283   00001E                     ___fldiv@a:
  1284                           	callstack 0
  1285                           
  1286                           ; 4 bytes @ 0x1D
  1287   00001E                     	ds	1
  1288   00001F                     lcd_8bit_send_command@ret:
  1289                           	callstack 0
  1290   00001F                     lcd_8bit_send_char_data@ret:
  1291                           	callstack 0
  1292   00001F                     keypad_initialize@coulmns_counter:
  1293                           	callstack 0
  1294   00001F                     keypad_get_value@l_coulmns_counter:
  1295                           	callstack 0
  1296                           
  1297                           ; 1 bytes @ 0x1E
  1298   00001F                     	ds	1
  1299   000020                     lcd_8bit_send_command@l_pins_counter:
  1300                           	callstack 0
  1301   000020                     lcd_8bit_send_char_data@l_pins_counter:
  1302                           	callstack 0
  1303                           
  1304                           ; 1 bytes @ 0x1F
  1305   000020                     	ds	1
  1306   000021                     lcd_8bit_initialize@lcd:
  1307                           	callstack 0
  1308   000021                     lcd_8bit_set_cursor@lcd:
  1309                           	callstack 0
  1310                           
  1311                           ; 2 bytes @ 0x20
  1312   000021                     	ds	1
  1313   000022                     ??___fldiv:
  1314                           
  1315                           ; 1 bytes @ 0x21
  1316   000022                     	ds	1
  1317   000023                     ??_lcd_8bit_initialize:
  1318   000023                     lcd_8bit_set_cursor@row:
  1319                           	callstack 0
  1320                           
  1321                           ; 1 bytes @ 0x22
  1322   000023                     	ds	1
  1323   000024                     lcd_8bit_set_cursor@coulmn:
  1324                           	callstack 0
  1325                           
  1326                           ; 1 bytes @ 0x23
  1327   000024                     	ds	1
  1328   000025                     ??_lcd_8bit_set_cursor:
  1329   000025                     lcd_8bit_initialize@l_data_pins_counter:
  1330                           	callstack 0
  1331                           
  1332                           ; 1 bytes @ 0x24
  1333   000025                     	ds	1
  1334   000026                     lcd_8bit_initialize@ret:
  1335                           	callstack 0
  1336   000026                     ___fldiv@rem:
  1337                           	callstack 0
  1338                           
  1339                           ; 4 bytes @ 0x25
  1340   000026                     	ds	1
  1341   000027                     lcd_8bit_send_string_pos@lcd:
  1342                           	callstack 0
  1343                           
  1344                           ; 2 bytes @ 0x26
  1345   000027                     	ds	2
  1346   000029                     lcd_8bit_send_string_pos@row:
  1347                           	callstack 0
  1348                           
  1349                           ; 1 bytes @ 0x28
  1350   000029                     	ds	1
  1351   00002A                     lcd_8bit_send_string_pos@column:
  1352                           	callstack 0
  1353   00002A                     ___fldiv@sign:
  1354                           	callstack 0
  1355                           
  1356                           ; 1 bytes @ 0x29
  1357   00002A                     	ds	1
  1358   00002B                     lcd_8bit_send_string_pos@str:
  1359                           	callstack 0
  1360   00002B                     ___fldiv@new_exp:
  1361                           	callstack 0
  1362                           
  1363                           ; 2 bytes @ 0x2A
  1364   00002B                     	ds	2
  1365   00002D                     lcd_8bit_send_string_pos@ret:
  1366                           	callstack 0
  1367   00002D                     ___fldiv@grs:
  1368                           	callstack 0
  1369                           
  1370                           ; 4 bytes @ 0x2C
  1371   00002D                     	ds	1
  1372   00002E                     ??_Read_Password:
  1373                           
  1374                           ; 1 bytes @ 0x2D
  1375   00002E                     	ds	2
  1376   000030                     ??_Check_Password:
  1377                           
  1378                           ; 1 bytes @ 0x2F
  1379   000030                     	ds	1
  1380   000031                     ___fldiv@bexp:
  1381                           	callstack 0
  1382                           
  1383                           ; 1 bytes @ 0x30
  1384   000031                     	ds	1
  1385   000032                     ___fldiv@aexp:
  1386                           	callstack 0
  1387                           
  1388                           ; 1 bytes @ 0x31
  1389   000032                     	ds	1
  1390   000033                     ?___fladd:
  1391                           	callstack 0
  1392   000033                     ___fladd@b:
  1393                           	callstack 0
  1394                           
  1395                           ; 4 bytes @ 0x32
  1396   000033                     	ds	4
  1397   000037                     ___fladd@a:
  1398                           	callstack 0
  1399                           
  1400                           ; 4 bytes @ 0x36
  1401   000037                     	ds	4
  1402   00003B                     ??___fladd:
  1403                           
  1404                           ; 1 bytes @ 0x3A
  1405   00003B                     	ds	4
  1406   00003F                     ___fladd@signs:
  1407                           	callstack 0
  1408                           
  1409                           ; 1 bytes @ 0x3E
  1410   00003F                     	ds	1
  1411   000040                     ___fladd@aexp:
  1412                           	callstack 0
  1413                           
  1414                           ; 1 bytes @ 0x3F
  1415   000040                     	ds	1
  1416   000041                     ___fladd@bexp:
  1417                           	callstack 0
  1418                           
  1419                           ; 1 bytes @ 0x40
  1420   000041                     	ds	1
  1421   000042                     ___fladd@grs:
  1422                           	callstack 0
  1423                           
  1424                           ; 1 bytes @ 0x41
  1425   000042                     	ds	1
  1426   000043                     ?___fltol:
  1427                           	callstack 0
  1428   000043                     ___fltol@f1:
  1429                           	callstack 0
  1430                           
  1431                           ; 4 bytes @ 0x42
  1432   000043                     	ds	4
  1433   000047                     ??___fltol:
  1434                           
  1435                           ; 1 bytes @ 0x46
  1436   000047                     	ds	4
  1437   00004B                     ___fltol@sign1:
  1438                           	callstack 0
  1439                           
  1440                           ; 1 bytes @ 0x4A
  1441   00004B                     	ds	1
  1442   00004C                     ___fltol@exp1:
  1443                           	callstack 0
  1444                           
  1445                           ; 1 bytes @ 0x4B
  1446   00004C                     	ds	1
  1447   00004D                     MSSP_I2C_Master_Mode_Clock_CFG@i2c_obj:
  1448                           	callstack 0
  1449   00004D                     EUSART_Baud_Rate_Calculation@_eusart:
  1450                           	callstack 0
  1451                           
  1452                           ; 2 bytes @ 0x4C
  1453   00004D                     	ds	2
  1454   00004F                     ??_MSSP_I2C_Master_Mode_Clock_CFG:
  1455   00004F                     ??_EUSART_Baud_Rate_Calculation:
  1456                           
  1457                           ; 1 bytes @ 0x4E
  1458   00004F                     	ds	2
  1459   000051                     MSSP_I2C_Init@i2c_obj:
  1460                           	callstack 0
  1461   000051                     EUSART_ASYNC_Init@_eusart:
  1462                           	callstack 0
  1463                           
  1464                           ; 2 bytes @ 0x50
  1465   000051                     	ds	2
  1466   000053                     ??_MSSP_I2C_Init:
  1467   000053                     
  1468                           ; 1 bytes @ 0x52
  1469   000053                     	ds	1
  1470   000054                     
  1471                           ; 1 bytes @ 0x53
  1472 ;;
  1473 ;;Main: autosize = 0, tempsize = 2, incstack = 0, save=0
  1474 ;;
  1475 ;; *************** function _main *****************
  1476 ;; Defined at:
  1477 ;;		line 28 in file "application.c"
  1478 ;; Parameters:    Size  Location     Type
  1479 ;;		None
  1480 ;; Auto vars:     Size  Location     Type
  1481 ;;  j               2   10[BANK1 ] int 
  1482 ;; Return value:  Size  Location     Type
  1483 ;;                  2  1780[None  ] int 
  1484 ;; Registers used:
  1485 ;;		wreg, fsr0l, fsr0h, fsr2l, fsr2h, status,2, status,0, tblptrl, tblptrh, tblptru, prodl, prodh, cstack
  1486 ;; Tracked objects:
  1487 ;;		On entry : 0/0
  1488 ;;		On exit  : 0/0
  1489 ;;		Unchanged: 0/0
  1490 ;; Data sizes:     COMRAM   BANK0   BANK1   BANK2   BANK3   BANK4   BANK5   BANK6   BANK7   BANK8   BANK9  BANK10  BANK1
      +1  BANK12  BANK13  BANK14  BANK15
  1491 ;;      Params:         0       0       0       0       0       0       0       0       0       0       0       0       
      +0       0       0       0       0
  1492 ;;      Locals:         0       0       2       0       0       0       0       0       0       0       0       0       
      +0       0       0       0       0
  1493 ;;      Temps:          0       0       2       0       0       0       0       0       0       0       0       0       
      +0       0       0       0       0
  1494 ;;      Totals:         0       0       4       0       0       0       0       0       0       0       0       0       
      +0       0       0       0       0
  1495 ;;Total ram usage:        4 bytes
  1496 ;; Hardware stack levels required when called: 11
  1497 ;; This function calls:
  1498 ;;		_Check_Password
  1499 ;;		_Door1_Open
  1500 ;;		_Door2_Open
  1501 ;;		_EEPROM_24C02C_Write_Byte
  1502 ;;		_Print_RealTimeClockDS1307
  1503 ;;		_RealTimeClockDS1307_Get_Date_Time
  1504 ;;		_application_intialize
  1505 ;;		_keypad_get_value
  1506 ;;		_lcd_8bit_send_command
  1507 ;;		_lcd_8bit_send_string_pos
  1508 ;;		_led_turn_on
  1509 ;;		_relay_turn_on
  1510 ;; This function is called by:
  1511 ;;		Startup code after reset
  1512 ;; This function uses a non-reentrant model
  1513 ;;
  1514                           
  1515                           	psect	text0
  1516   000012                     __ptext0:
  1517                           	callstack 0
  1518   000012                     _main:
  1519                           	callstack 20
  1520   000012                     
  1521                           ;application.c: 30:     application_intialize();
  1522   000012  EC8C  F01D         	call	_application_intialize	;wreg free
  1523   000016                     
  1524                           ;application.c: 32:        for(int j=0;j<5;j++){
  1525   000016  0E00               	movlw	0
  1526   000018  0101               	movlb	1	; () banked
  1527   00001A  6F6C               	movwf	(main@j+1)& (0+255),b
  1528   00001C  0E00               	movlw	0
  1529   00001E  6F6B               	movwf	main@j& (0+255),b
  1530   000020                     l11622:
  1531                           
  1532                           ; BSR set to: 1
  1533                           ;application.c: 33:        EEPROM_24C02C_Write_Byte(0xA2 ,(0x08 +j) ,Password[j]);
  1534   000020  516B               	movf	main@j& (0+255),w,b
  1535   000022  0F08               	addlw	8
  1536   000024  6E11               	movwf	EEPROM_24C02C_Write_Byte@Byte_Address^0,c
  1537   000026  0E54               	movlw	low _Password
  1538   000028  256B               	addwf	main@j& (0+255),w,b
  1539   00002A  6ED9               	movwf	fsr2l,c
  1540   00002C  0E01               	movlw	high _Password
  1541   00002E  216C               	addwfc	(main@j+1)& (0+255),w,b
  1542   000030  6EDA               	movwf	fsr2h,c
  1543   000032  50DF               	movf	indf2,w,c
  1544   000034  6E12               	movwf	EEPROM_24C02C_Write_Byte@Data^0,c
  1545   000036  0EA2               	movlw	162
  1546   000038  EC88  F014         	call	_EEPROM_24C02C_Write_Byte
  1547   00003C                     
  1548                           ;application.c: 34:     }
  1549   00003C  0101               	movlb	1	; () banked
  1550   00003E  4B6B               	infsnz	main@j& (0+255),f,b
  1551   000040  2B6C               	incf	(main@j+1)& (0+255),f,b
  1552   000042                     
  1553                           ; BSR set to: 1
  1554   000042  BF6C               	btfsc	(main@j+1)& (0+255),7,b
  1555   000044  EF2D  F000         	goto	u10541
  1556   000048  516C               	movf	(main@j+1)& (0+255),w,b
  1557   00004A  E109               	bnz	u10540
  1558   00004C  0E05               	movlw	5
  1559   00004E  5D6B               	subwf	main@j& (0+255),w,b
  1560   000050  A0D8               	btfss	status,0,c
  1561   000052  EF2D  F000         	goto	u10541
  1562   000056  EF2F  F000         	goto	u10540
  1563   00005A                     u10541:
  1564   00005A  EF10  F000         	goto	l11622
  1565   00005E                     u10540:
  1566   00005E                     
  1567                           ; BSR set to: 1
  1568                           ;application.c: 36:     _delay((unsigned long)((100)*(4000000UL/4000000.0)));
  1569   00005E  0E21               	movlw	33
  1570   000060                     u10707:
  1571   000060  2EE8               	decfsz	wreg,f,c
  1572   000062  D7FE               	bra	u10707
  1573   000064  F000               	nop	
  1574   000066                     
  1575                           ;application.c: 37:     EEPROM_24C02C_Write_Byte(0xA6 ,0x08 , 6);
  1576   000066  0E08               	movlw	8
  1577   000068  6E11               	movwf	EEPROM_24C02C_Write_Byte@Byte_Address^0,c
  1578   00006A  0E06               	movlw	6
  1579   00006C  6E12               	movwf	EEPROM_24C02C_Write_Byte@Data^0,c
  1580   00006E  0EA6               	movlw	166
  1581   000070  EC88  F014         	call	_EEPROM_24C02C_Write_Byte
  1582   000074                     
  1583                           ;application.c: 38:     _delay((unsigned long)((100)*(4000000UL/4000000.0)));
  1584   000074  0E21               	movlw	33
  1585   000076                     u10717:
  1586   000076  2EE8               	decfsz	wreg,f,c
  1587   000078  D7FE               	bra	u10717
  1588   00007A  F000               	nop	
  1589   00007C                     
  1590                           ;application.c: 41:      ret=lcd_8bit_send_string_pos(&lcd_2,1,1,"To Enter Password ");
  1591   00007C  0EF5               	movlw	low _lcd_2
  1592   00007E  6E27               	movwf	lcd_8bit_send_string_pos@lcd^0,c
  1593   000080  0E00               	movlw	high _lcd_2
  1594   000082  6E28               	movwf	(lcd_8bit_send_string_pos@lcd+1)^0,c
  1595   000084  0E01               	movlw	1
  1596   000086  6E29               	movwf	lcd_8bit_send_string_pos@row^0,c
  1597   000088  0E01               	movlw	1
  1598   00008A  6E2A               	movwf	lcd_8bit_send_string_pos@column^0,c
  1599   00008C  0EEB               	movlw	low STR_6
  1600   00008E  6E2B               	movwf	lcd_8bit_send_string_pos@str^0,c
  1601   000090  0EFE               	movlw	high STR_6
  1602   000092  6E2C               	movwf	(lcd_8bit_send_string_pos@str+1)^0,c
  1603   000094  ECE2  F014         	call	_lcd_8bit_send_string_pos	;wreg free
  1604   000098  6E6F               	movwf	_ret^0,c
  1605   00009A                     
  1606                           ;application.c: 42:      ret=lcd_8bit_send_string_pos(&lcd_2,2,1,"Click *");
  1607   00009A  0EF5               	movlw	low _lcd_2
  1608   00009C  6E27               	movwf	lcd_8bit_send_string_pos@lcd^0,c
  1609   00009E  0E00               	movlw	high _lcd_2
  1610   0000A0  6E28               	movwf	(lcd_8bit_send_string_pos@lcd+1)^0,c
  1611   0000A2  0E02               	movlw	2
  1612   0000A4  6E29               	movwf	lcd_8bit_send_string_pos@row^0,c
  1613   0000A6  0E01               	movlw	1
  1614   0000A8  6E2A               	movwf	lcd_8bit_send_string_pos@column^0,c
  1615   0000AA  0EE3               	movlw	low STR_7
  1616   0000AC  6E2B               	movwf	lcd_8bit_send_string_pos@str^0,c
  1617   0000AE  0EFF               	movlw	high STR_7
  1618   0000B0  6E2C               	movwf	(lcd_8bit_send_string_pos@str+1)^0,c
  1619   0000B2  ECE2  F014         	call	_lcd_8bit_send_string_pos	;wreg free
  1620   0000B6  6E6F               	movwf	_ret^0,c
  1621   0000B8                     l11638:
  1622                           
  1623                           ;application.c: 46:      ret=keypad_get_value(&keypad1,&keypadvalue);
  1624   0000B8  0E59               	movlw	low _keypad1
  1625   0000BA  6E15               	movwf	keypad_get_value@_keypad_obj^0,c
  1626   0000BC  0E01               	movlw	high _keypad1
  1627   0000BE  6E16               	movwf	(keypad_get_value@_keypad_obj+1)^0,c
  1628   0000C0  0E6A               	movlw	low _keypadvalue
  1629   0000C2  6E17               	movwf	keypad_get_value@value^0,c
  1630   0000C4  0E00               	movlw	high _keypadvalue
  1631   0000C6  6E18               	movwf	(keypad_get_value@value+1)^0,c
  1632   0000C8  ECCE  F010         	call	_keypad_get_value	;wreg free
  1633   0000CC  6E6F               	movwf	_ret^0,c
  1634   0000CE                     
  1635                           ;application.c: 47:      if(keypadvalue == '*'){
  1636   0000CE  0E2A               	movlw	42
  1637   0000D0  186A               	xorwf	_keypadvalue^0,w,c	;volatile
  1638   0000D2  A4D8               	btfss	status,2,c
  1639   0000D4  EF6E  F000         	goto	u10551
  1640   0000D8  EF70  F000         	goto	u10550
  1641   0000DC                     u10551:
  1642   0000DC  EF7D  F000         	goto	l11648
  1643   0000E0                     u10550:
  1644   0000E0                     
  1645                           ;application.c: 48:          Check_Password();
  1646   0000E0  EC3D  F010         	call	_Check_Password	;wreg free
  1647   0000E4                     
  1648                           ;application.c: 50:          ret=lcd_8bit_send_command (&lcd_2,0x01);
  1649   0000E4  0EF5               	movlw	low _lcd_2
  1650   0000E6  6E18               	movwf	lcd_8bit_send_command@lcd^0,c
  1651   0000E8  0E00               	movlw	high _lcd_2
  1652   0000EA  6E19               	movwf	(lcd_8bit_send_command@lcd+1)^0,c
  1653   0000EC  0E01               	movlw	1
  1654   0000EE  6E1A               	movwf	lcd_8bit_send_command@command^0,c
  1655   0000F0  ECD3  F016         	call	_lcd_8bit_send_command	;wreg free
  1656   0000F4  6E6F               	movwf	_ret^0,c
  1657   0000F6                     
  1658                           ;application.c: 54:            check3=1;
  1659   0000F6  0E01               	movlw	1
  1660   0000F8  6E56               	movwf	_check3^0,c	;volatile
  1661   0000FA                     l11648:
  1662                           
  1663                           ;application.c: 57:      if(check3==1){
  1664   0000FA  0456               	decf	_check3^0,w,c	;volatile
  1665   0000FC  A4D8               	btfss	status,2,c
  1666   0000FE  EF83  F000         	goto	u10561
  1667   000102  EF85  F000         	goto	u10560
  1668   000106                     u10561:
  1669   000106  EF5C  F000         	goto	l11638
  1670   00010A                     u10560:
  1671   00010A                     l11650:
  1672                           
  1673                           ;application.c: 58:          keypadvalue=0;
  1674   00010A  0E00               	movlw	0
  1675   00010C  6E6A               	movwf	_keypadvalue^0,c	;volatile
  1676   00010E                     l11652:
  1677                           
  1678                           ;application.c: 63:          ret=lcd_8bit_send_string_pos(&lcd_2,1,1,"1 For Room1");
  1679   00010E  0EF5               	movlw	low _lcd_2
  1680   000110  6E27               	movwf	lcd_8bit_send_string_pos@lcd^0,c
  1681   000112  0E00               	movlw	high _lcd_2
  1682   000114  6E28               	movwf	(lcd_8bit_send_string_pos@lcd+1)^0,c
  1683   000116  0E01               	movlw	1
  1684   000118  6E29               	movwf	lcd_8bit_send_string_pos@row^0,c
  1685   00011A  0E01               	movlw	1
  1686   00011C  6E2A               	movwf	lcd_8bit_send_string_pos@column^0,c
  1687   00011E  0EAE               	movlw	low STR_8
  1688   000120  6E2B               	movwf	lcd_8bit_send_string_pos@str^0,c
  1689   000122  0EFF               	movlw	high STR_8
  1690   000124  6E2C               	movwf	(lcd_8bit_send_string_pos@str+1)^0,c
  1691   000126  ECE2  F014         	call	_lcd_8bit_send_string_pos	;wreg free
  1692   00012A  6E6F               	movwf	_ret^0,c
  1693   00012C                     
  1694                           ;application.c: 64:          ret=lcd_8bit_send_string_pos(&lcd_2,2,1,"2 For Room2");
  1695   00012C  0EF5               	movlw	low _lcd_2
  1696   00012E  6E27               	movwf	lcd_8bit_send_string_pos@lcd^0,c
  1697   000130  0E00               	movlw	high _lcd_2
  1698   000132  6E28               	movwf	(lcd_8bit_send_string_pos@lcd+1)^0,c
  1699   000134  0E02               	movlw	2
  1700   000136  6E29               	movwf	lcd_8bit_send_string_pos@row^0,c
  1701   000138  0E01               	movlw	1
  1702   00013A  6E2A               	movwf	lcd_8bit_send_string_pos@column^0,c
  1703   00013C  0EBA               	movlw	low STR_9
  1704   00013E  6E2B               	movwf	lcd_8bit_send_string_pos@str^0,c
  1705   000140  0EFF               	movlw	high STR_9
  1706   000142  6E2C               	movwf	(lcd_8bit_send_string_pos@str+1)^0,c
  1707   000144  ECE2  F014         	call	_lcd_8bit_send_string_pos	;wreg free
  1708   000148  6E6F               	movwf	_ret^0,c
  1709   00014A                     
  1710                           ;application.c: 65:          ret=lcd_8bit_send_string_pos(&lcd_2,3,1,"3 To show the date
      +                          ");
  1711   00014A  0EF5               	movlw	low _lcd_2
  1712   00014C  6E27               	movwf	lcd_8bit_send_string_pos@lcd^0,c
  1713   00014E  0E00               	movlw	high _lcd_2
  1714   000150  6E28               	movwf	(lcd_8bit_send_string_pos@lcd+1)^0,c
  1715   000152  0E03               	movlw	3
  1716   000154  6E29               	movwf	lcd_8bit_send_string_pos@row^0,c
  1717   000156  0E01               	movlw	1
  1718   000158  6E2A               	movwf	lcd_8bit_send_string_pos@column^0,c
  1719   00015A  0E11               	movlw	low STR_10
  1720   00015C  6E2B               	movwf	lcd_8bit_send_string_pos@str^0,c
  1721   00015E  0EFF               	movlw	high STR_10
  1722   000160  6E2C               	movwf	(lcd_8bit_send_string_pos@str+1)^0,c
  1723   000162  ECE2  F014         	call	_lcd_8bit_send_string_pos	;wreg free
  1724   000166  6E6F               	movwf	_ret^0,c
  1725   000168                     
  1726                           ;application.c: 66:          ret=lcd_8bit_send_string_pos(&lcd_2,4,1,"and time");
  1727   000168  0EF5               	movlw	low _lcd_2
  1728   00016A  6E27               	movwf	lcd_8bit_send_string_pos@lcd^0,c
  1729   00016C  0E00               	movlw	high _lcd_2
  1730   00016E  6E28               	movwf	(lcd_8bit_send_string_pos@lcd+1)^0,c
  1731   000170  0E04               	movlw	4
  1732   000172  6E29               	movwf	lcd_8bit_send_string_pos@row^0,c
  1733   000174  0E01               	movlw	1
  1734   000176  6E2A               	movwf	lcd_8bit_send_string_pos@column^0,c
  1735   000178  0EDA               	movlw	low STR_11
  1736   00017A  6E2B               	movwf	lcd_8bit_send_string_pos@str^0,c
  1737   00017C  0EFF               	movlw	high STR_11
  1738   00017E  6E2C               	movwf	(lcd_8bit_send_string_pos@str+1)^0,c
  1739   000180  ECE2  F014         	call	_lcd_8bit_send_string_pos	;wreg free
  1740   000184  6E6F               	movwf	_ret^0,c
  1741   000186                     
  1742                           ;application.c: 69:           ret=keypad_get_value(&keypad1,&keypadvalue);
  1743   000186  0E59               	movlw	low _keypad1
  1744   000188  6E15               	movwf	keypad_get_value@_keypad_obj^0,c
  1745   00018A  0E01               	movlw	high _keypad1
  1746   00018C  6E16               	movwf	(keypad_get_value@_keypad_obj+1)^0,c
  1747   00018E  0E6A               	movlw	low _keypadvalue
  1748   000190  6E17               	movwf	keypad_get_value@value^0,c
  1749   000192  0E00               	movlw	high _keypadvalue
  1750   000194  6E18               	movwf	(keypad_get_value@value+1)^0,c
  1751   000196  ECCE  F010         	call	_keypad_get_value	;wreg free
  1752   00019A  6E6F               	movwf	_ret^0,c
  1753   00019C                     
  1754                           ;application.c: 71:          if (keypadvalue == '1'){
  1755   00019C  0E31               	movlw	49
  1756   00019E  186A               	xorwf	_keypadvalue^0,w,c	;volatile
  1757   0001A0  A4D8               	btfss	status,2,c
  1758   0001A2  EFD5  F000         	goto	u10571
  1759   0001A6  EFD7  F000         	goto	u10570
  1760   0001AA                     u10571:
  1761   0001AA  EFC7  F001         	goto	l11718
  1762   0001AE                     u10570:
  1763   0001AE                     
  1764                           ;application.c: 72:             keypadvalue=0;
  1765   0001AE  0E00               	movlw	0
  1766   0001B0  6E6A               	movwf	_keypadvalue^0,c	;volatile
  1767   0001B2                     
  1768                           ;application.c: 73:             ret=lcd_8bit_send_command (&lcd_2,0x01);
  1769   0001B2  0EF5               	movlw	low _lcd_2
  1770   0001B4  6E18               	movwf	lcd_8bit_send_command@lcd^0,c
  1771   0001B6  0E00               	movlw	high _lcd_2
  1772   0001B8  6E19               	movwf	(lcd_8bit_send_command@lcd+1)^0,c
  1773   0001BA  0E01               	movlw	1
  1774   0001BC  6E1A               	movwf	lcd_8bit_send_command@command^0,c
  1775   0001BE  ECD3  F016         	call	_lcd_8bit_send_command	;wreg free
  1776   0001C2  6E6F               	movwf	_ret^0,c
  1777                           
  1778                           ;application.c: 74:             while(keypadvalue == 0){
  1779   0001C4  EF29  F001         	goto	l11674
  1780   0001C8                     l11668:
  1781                           
  1782                           ;application.c: 76:             ret=lcd_8bit_send_string_pos(&lcd_2,1,1,"1 To Open Door"
      +                          );
  1783   0001C8  0EF5               	movlw	low _lcd_2
  1784   0001CA  6E27               	movwf	lcd_8bit_send_string_pos@lcd^0,c
  1785   0001CC  0E00               	movlw	high _lcd_2
  1786   0001CE  6E28               	movwf	(lcd_8bit_send_string_pos@lcd+1)^0,c
  1787   0001D0  0E01               	movlw	1
  1788   0001D2  6E29               	movwf	lcd_8bit_send_string_pos@row^0,c
  1789   0001D4  0E01               	movlw	1
  1790   0001D6  6E2A               	movwf	lcd_8bit_send_string_pos@column^0,c
  1791   0001D8  0E86               	movlw	low STR_12
  1792   0001DA  6E2B               	movwf	lcd_8bit_send_string_pos@str^0,c
  1793   0001DC  0EFF               	movlw	high STR_12
  1794   0001DE  6E2C               	movwf	(lcd_8bit_send_string_pos@str+1)^0,c
  1795   0001E0  ECE2  F014         	call	_lcd_8bit_send_string_pos	;wreg free
  1796   0001E4  6E6F               	movwf	_ret^0,c
  1797                           
  1798                           ;application.c: 77:             ret=lcd_8bit_send_string_pos(&lcd_2,2,1,"2 To Open Lamp"
      +                          );
  1799   0001E6  0EF5               	movlw	low _lcd_2
  1800   0001E8  6E27               	movwf	lcd_8bit_send_string_pos@lcd^0,c
  1801   0001EA  0E00               	movlw	high _lcd_2
  1802   0001EC  6E28               	movwf	(lcd_8bit_send_string_pos@lcd+1)^0,c
  1803   0001EE  0E02               	movlw	2
  1804   0001F0  6E29               	movwf	lcd_8bit_send_string_pos@row^0,c
  1805   0001F2  0E01               	movlw	1
  1806   0001F4  6E2A               	movwf	lcd_8bit_send_string_pos@column^0,c
  1807   0001F6  0E77               	movlw	low STR_13
  1808   0001F8  6E2B               	movwf	lcd_8bit_send_string_pos@str^0,c
  1809   0001FA  0EFF               	movlw	high STR_13
  1810   0001FC  6E2C               	movwf	(lcd_8bit_send_string_pos@str+1)^0,c
  1811   0001FE  ECE2  F014         	call	_lcd_8bit_send_string_pos	;wreg free
  1812   000202  6E6F               	movwf	_ret^0,c
  1813                           
  1814                           ;application.c: 78:             ret=lcd_8bit_send_string_pos(&lcd_2,3,1,"3 To Open TV");
  1815   000204  0EF5               	movlw	low _lcd_2
  1816   000206  6E27               	movwf	lcd_8bit_send_string_pos@lcd^0,c
  1817   000208  0E00               	movlw	high _lcd_2
  1818   00020A  6E28               	movwf	(lcd_8bit_send_string_pos@lcd+1)^0,c
  1819   00020C  0E03               	movlw	3
  1820   00020E  6E29               	movwf	lcd_8bit_send_string_pos@row^0,c
  1821   000210  0E01               	movlw	1
  1822   000212  6E2A               	movwf	lcd_8bit_send_string_pos@column^0,c
  1823   000214  0E95               	movlw	low STR_14
  1824   000216  6E2B               	movwf	lcd_8bit_send_string_pos@str^0,c
  1825   000218  0EFF               	movlw	high STR_14
  1826   00021A  6E2C               	movwf	(lcd_8bit_send_string_pos@str+1)^0,c
  1827   00021C  ECE2  F014         	call	_lcd_8bit_send_string_pos	;wreg free
  1828   000220  6E6F               	movwf	_ret^0,c
  1829   000222                     
  1830                           ;application.c: 79:             _delay((unsigned long)((200)*(4000000UL/4000.0)));
  1831   000222  0E02               	movlw	2
  1832   000224  0101               	movlb	1	; () banked
  1833   000226  6F6A               	movwf	(??_main+1)& (0+255),b
  1834   000228  0E04               	movlw	4
  1835   00022A  6F69               	movwf	??_main& (0+255),b
  1836   00022C  0EBA               	movlw	186
  1837   00022E                     u10727:
  1838   00022E  2EE8               	decfsz	wreg,f,c
  1839   000230  D7FE               	bra	u10727
  1840   000232  2F69               	decfsz	??_main& (0+255),f,b
  1841   000234  D7FC               	bra	u10727
  1842   000236  2F6A               	decfsz	(??_main+1)& (0+255),f,b
  1843   000238  D7FA               	bra	u10727
  1844   00023A  F000               	nop	
  1845   00023C                     
  1846                           ;application.c: 80:             ret=keypad_get_value(&keypad1,&keypadvalue);
  1847   00023C  0E59               	movlw	low _keypad1
  1848   00023E  6E15               	movwf	keypad_get_value@_keypad_obj^0,c
  1849   000240  0E01               	movlw	high _keypad1
  1850   000242  6E16               	movwf	(keypad_get_value@_keypad_obj+1)^0,c
  1851   000244  0E6A               	movlw	low _keypadvalue
  1852   000246  6E17               	movwf	keypad_get_value@value^0,c
  1853   000248  0E00               	movlw	high _keypadvalue
  1854   00024A  6E18               	movwf	(keypad_get_value@value+1)^0,c
  1855   00024C  ECCE  F010         	call	_keypad_get_value	;wreg free
  1856   000250  6E6F               	movwf	_ret^0,c
  1857   000252                     l11674:
  1858                           
  1859                           ;application.c: 74:             while(keypadvalue == 0){
  1860   000252  506A               	movf	_keypadvalue^0,w,c	;volatile
  1861   000254  B4D8               	btfsc	status,2,c
  1862   000256  EF2F  F001         	goto	u10581
  1863   00025A  EF31  F001         	goto	u10580
  1864   00025E                     u10581:
  1865   00025E  EFE4  F000         	goto	l11668
  1866   000262                     u10580:
  1867   000262                     
  1868                           ;application.c: 82:             if('1' == keypadvalue){
  1869   000262  0E31               	movlw	49
  1870   000264  186A               	xorwf	_keypadvalue^0,w,c	;volatile
  1871   000266  A4D8               	btfss	status,2,c
  1872   000268  EF38  F001         	goto	u10591
  1873   00026C  EF3A  F001         	goto	u10590
  1874   000270                     u10591:
  1875   000270  EF6D  F001         	goto	l11690
  1876   000274                     u10590:
  1877   000274                     
  1878                           ;application.c: 83:             keypadvalue=0;
  1879   000274  0E00               	movlw	0
  1880   000276  6E6A               	movwf	_keypadvalue^0,c	;volatile
  1881   000278                     
  1882                           ;application.c: 84:             Door1_Open();
  1883   000278  ECBC  F01C         	call	_Door1_Open	;wreg free
  1884   00027C                     
  1885                           ;application.c: 85:             ret=lcd_8bit_send_command (&lcd_2,0x01);
  1886   00027C  0EF5               	movlw	low _lcd_2
  1887   00027E  6E18               	movwf	lcd_8bit_send_command@lcd^0,c
  1888   000280  0E00               	movlw	high _lcd_2
  1889   000282  6E19               	movwf	(lcd_8bit_send_command@lcd+1)^0,c
  1890   000284  0E01               	movlw	1
  1891   000286  6E1A               	movwf	lcd_8bit_send_command@command^0,c
  1892   000288  ECD3  F016         	call	_lcd_8bit_send_command	;wreg free
  1893   00028C  6E6F               	movwf	_ret^0,c
  1894   00028E                     
  1895                           ;application.c: 86:             ret=lcd_8bit_send_string_pos(&lcd_2,1,1,"Room 1 is Open"
      +                          );
  1896   00028E  0EF5               	movlw	low _lcd_2
  1897   000290  6E27               	movwf	lcd_8bit_send_string_pos@lcd^0,c
  1898   000292  0E00               	movlw	high _lcd_2
  1899   000294  6E28               	movwf	(lcd_8bit_send_string_pos@lcd+1)^0,c
  1900   000296  0E01               	movlw	1
  1901   000298  6E29               	movwf	lcd_8bit_send_string_pos@row^0,c
  1902   00029A  0E01               	movlw	1
  1903   00029C  6E2A               	movwf	lcd_8bit_send_string_pos@column^0,c
  1904   00029E  0E59               	movlw	low STR_15
  1905   0002A0  6E2B               	movwf	lcd_8bit_send_string_pos@str^0,c
  1906   0002A2  0EFF               	movlw	high STR_15
  1907   0002A4  6E2C               	movwf	(lcd_8bit_send_string_pos@str+1)^0,c
  1908   0002A6  ECE2  F014         	call	_lcd_8bit_send_string_pos	;wreg free
  1909   0002AA  6E6F               	movwf	_ret^0,c
  1910   0002AC                     l11686:
  1911                           
  1912                           ;application.c: 87:             _delay((unsigned long)((400)*(4000000UL/4000.0)));
  1913   0002AC  0E03               	movlw	3
  1914   0002AE  0101               	movlb	1	; () banked
  1915   0002B0  6F6A               	movwf	(??_main+1)& (0+255),b
  1916   0002B2  0E08               	movlw	8
  1917   0002B4  6F69               	movwf	??_main& (0+255),b
  1918   0002B6  0E77               	movlw	119
  1919   0002B8                     u10737:
  1920   0002B8  2EE8               	decfsz	wreg,f,c
  1921   0002BA  D7FE               	bra	u10737
  1922   0002BC  2F69               	decfsz	??_main& (0+255),f,b
  1923   0002BE  D7FC               	bra	u10737
  1924   0002C0  2F6A               	decfsz	(??_main+1)& (0+255),f,b
  1925   0002C2  D7FA               	bra	u10737
  1926   0002C4                     l11688:
  1927                           
  1928                           ;application.c: 88:             ret=lcd_8bit_send_command (&lcd_2,0x01);
  1929   0002C4  0EF5               	movlw	low _lcd_2
  1930   0002C6  6E18               	movwf	lcd_8bit_send_command@lcd^0,c
  1931   0002C8  0E00               	movlw	high _lcd_2
  1932   0002CA  6E19               	movwf	(lcd_8bit_send_command@lcd+1)^0,c
  1933   0002CC  0E01               	movlw	1
  1934   0002CE  6E1A               	movwf	lcd_8bit_send_command@command^0,c
  1935   0002D0  ECD3  F016         	call	_lcd_8bit_send_command	;wreg free
  1936   0002D4  6E6F               	movwf	_ret^0,c
  1937                           
  1938                           ;application.c: 89:             }
  1939   0002D6  EF87  F000         	goto	l11652
  1940   0002DA                     l11690:
  1941   0002DA  0E32               	movlw	50
  1942   0002DC  186A               	xorwf	_keypadvalue^0,w,c	;volatile
  1943   0002DE  A4D8               	btfss	status,2,c
  1944   0002E0  EF74  F001         	goto	u10601
  1945   0002E4  EF76  F001         	goto	u10600
  1946   0002E8                     u10601:
  1947   0002E8  EF99  F001         	goto	l11704
  1948   0002EC                     u10600:
  1949   0002EC                     
  1950                           ;application.c: 91:                 keypadvalue=0;
  1951   0002EC  0E00               	movlw	0
  1952   0002EE  6E6A               	movwf	_keypadvalue^0,c	;volatile
  1953   0002F0                     
  1954                           ;application.c: 92:                 ret= relay_turn_on(&relay1);
  1955   0002F0  0E73               	movlw	low _relay1
  1956   0002F2  6E15               	movwf	relay_turn_on@_relay^0,c
  1957   0002F4  0E00               	movlw	high _relay1
  1958   0002F6  6E16               	movwf	(relay_turn_on@_relay+1)^0,c
  1959   0002F8  ECE8  F018         	call	_relay_turn_on	;wreg free
  1960   0002FC  6E6F               	movwf	_ret^0,c
  1961   0002FE                     
  1962                           ;application.c: 93:                 ret=lcd_8bit_send_command (&lcd_2,0x01);
  1963   0002FE  0EF5               	movlw	low _lcd_2
  1964   000300  6E18               	movwf	lcd_8bit_send_command@lcd^0,c
  1965   000302  0E00               	movlw	high _lcd_2
  1966   000304  6E19               	movwf	(lcd_8bit_send_command@lcd+1)^0,c
  1967   000306  0E01               	movlw	1
  1968   000308  6E1A               	movwf	lcd_8bit_send_command@command^0,c
  1969   00030A  ECD3  F016         	call	_lcd_8bit_send_command	;wreg free
  1970   00030E  6E6F               	movwf	_ret^0,c
  1971   000310                     
  1972                           ;application.c: 94:                 ret=lcd_8bit_send_string_pos(&lcd_2,1,1,"Room 1 Lamp
      +                           is Open");
  1973   000310  0EF5               	movlw	low _lcd_2
  1974   000312  6E27               	movwf	lcd_8bit_send_string_pos@lcd^0,c
  1975   000314  0E00               	movlw	high _lcd_2
  1976   000316  6E28               	movwf	(lcd_8bit_send_string_pos@lcd+1)^0,c
  1977   000318  0E01               	movlw	1
  1978   00031A  6E29               	movwf	lcd_8bit_send_string_pos@row^0,c
  1979   00031C  0E01               	movlw	1
  1980   00031E  6E2A               	movwf	lcd_8bit_send_string_pos@column^0,c
  1981   000320  0EC3               	movlw	low STR_16
  1982   000322  6E2B               	movwf	lcd_8bit_send_string_pos@str^0,c
  1983   000324  0EFE               	movlw	high STR_16
  1984   000326  6E2C               	movwf	(lcd_8bit_send_string_pos@str+1)^0,c
  1985   000328  ECE2  F014         	call	_lcd_8bit_send_string_pos	;wreg free
  1986   00032C  6E6F               	movwf	_ret^0,c
  1987   00032E  EF56  F001         	goto	l11686
  1988   000332                     l11704:
  1989   000332  0E33               	movlw	51
  1990   000334  186A               	xorwf	_keypadvalue^0,w,c	;volatile
  1991   000336  A4D8               	btfss	status,2,c
  1992   000338  EFA0  F001         	goto	u10611
  1993   00033C  EFA2  F001         	goto	u10610
  1994   000340                     u10611:
  1995   000340  EFC5  F001         	goto	l1792
  1996   000344                     u10610:
  1997   000344                     
  1998                           ;application.c: 99:                  keypadvalue=0;
  1999   000344  0E00               	movlw	0
  2000   000346  6E6A               	movwf	_keypadvalue^0,c	;volatile
  2001   000348                     
  2002                           ;application.c: 100:                 ret=led_turn_on(&led1);
  2003   000348  0E71               	movlw	low _led1
  2004   00034A  6E15               	movwf	led_turn_on@led^0,c
  2005   00034C  0E00               	movlw	high _led1
  2006   00034E  6E16               	movwf	(led_turn_on@led+1)^0,c
  2007   000350  EC24  F019         	call	_led_turn_on	;wreg free
  2008   000354  6E6F               	movwf	_ret^0,c
  2009   000356                     
  2010                           ;application.c: 101:                 ret=lcd_8bit_send_command (&lcd_2,0x01);
  2011   000356  0EF5               	movlw	low _lcd_2
  2012   000358  6E18               	movwf	lcd_8bit_send_command@lcd^0,c
  2013   00035A  0E00               	movlw	high _lcd_2
  2014   00035C  6E19               	movwf	(lcd_8bit_send_command@lcd+1)^0,c
  2015   00035E  0E01               	movlw	1
  2016   000360  6E1A               	movwf	lcd_8bit_send_command@command^0,c
  2017   000362  ECD3  F016         	call	_lcd_8bit_send_command	;wreg free
  2018   000366  6E6F               	movwf	_ret^0,c
  2019   000368                     
  2020                           ;application.c: 102:                 ret=lcd_8bit_send_string_pos(&lcd_2,1,1,"Room 1 TV 
      +                          is Open");
  2021   000368  0EF5               	movlw	low _lcd_2
  2022   00036A  6E27               	movwf	lcd_8bit_send_string_pos@lcd^0,c
  2023   00036C  0E00               	movlw	high _lcd_2
  2024   00036E  6E28               	movwf	(lcd_8bit_send_string_pos@lcd+1)^0,c
  2025   000370  0E01               	movlw	1
  2026   000372  6E29               	movwf	lcd_8bit_send_string_pos@row^0,c
  2027   000374  0E01               	movlw	1
  2028   000376  6E2A               	movwf	lcd_8bit_send_string_pos@column^0,c
  2029   000378  0E24               	movlw	low STR_17
  2030   00037A  6E2B               	movwf	lcd_8bit_send_string_pos@str^0,c
  2031   00037C  0EFF               	movlw	high STR_17
  2032   00037E  6E2C               	movwf	(lcd_8bit_send_string_pos@str+1)^0,c
  2033   000380  ECE2  F014         	call	_lcd_8bit_send_string_pos	;wreg free
  2034   000384  6E6F               	movwf	_ret^0,c
  2035   000386  EF56  F001         	goto	l11686
  2036   00038A                     l1792:
  2037                           
  2038                           ;application.c: 107:          }
  2039   00038A  EF87  F000         	goto	l11652
  2040   00038E                     l11718:
  2041   00038E  0E32               	movlw	50
  2042   000390  186A               	xorwf	_keypadvalue^0,w,c	;volatile
  2043   000392  A4D8               	btfss	status,2,c
  2044   000394  EFCE  F001         	goto	u10621
  2045   000398  EFD0  F001         	goto	u10620
  2046   00039C                     u10621:
  2047   00039C  EFA9  F002         	goto	l11774
  2048   0003A0                     u10620:
  2049   0003A0                     
  2050                           ;application.c: 109:              keypadvalue=0;
  2051   0003A0  0E00               	movlw	0
  2052   0003A2  6E6A               	movwf	_keypadvalue^0,c	;volatile
  2053   0003A4                     
  2054                           ;application.c: 110:             ret=lcd_8bit_send_command (&lcd_2,0x01);
  2055   0003A4  0EF5               	movlw	low _lcd_2
  2056   0003A6  6E18               	movwf	lcd_8bit_send_command@lcd^0,c
  2057   0003A8  0E00               	movlw	high _lcd_2
  2058   0003AA  6E19               	movwf	(lcd_8bit_send_command@lcd+1)^0,c
  2059   0003AC  0E01               	movlw	1
  2060   0003AE  6E1A               	movwf	lcd_8bit_send_command@command^0,c
  2061   0003B0  ECD3  F016         	call	_lcd_8bit_send_command	;wreg free
  2062   0003B4  6E6F               	movwf	_ret^0,c
  2063                           
  2064                           ;application.c: 111:              while(keypadvalue == 0){
  2065   0003B6  EF22  F002         	goto	l11730
  2066   0003BA                     l11724:
  2067                           
  2068                           ;application.c: 112:             ret=lcd_8bit_send_string_pos(&lcd_2,1,1,"1 To Open Door
      +                          ");
  2069   0003BA  0EF5               	movlw	low _lcd_2
  2070   0003BC  6E27               	movwf	lcd_8bit_send_string_pos@lcd^0,c
  2071   0003BE  0E00               	movlw	high _lcd_2
  2072   0003C0  6E28               	movwf	(lcd_8bit_send_string_pos@lcd+1)^0,c
  2073   0003C2  0E01               	movlw	1
  2074   0003C4  6E29               	movwf	lcd_8bit_send_string_pos@row^0,c
  2075   0003C6  0E01               	movlw	1
  2076   0003C8  6E2A               	movwf	lcd_8bit_send_string_pos@column^0,c
  2077   0003CA  0E86               	movlw	low STR_12
  2078   0003CC  6E2B               	movwf	lcd_8bit_send_string_pos@str^0,c
  2079   0003CE  0EFF               	movlw	high STR_12
  2080   0003D0  6E2C               	movwf	(lcd_8bit_send_string_pos@str+1)^0,c
  2081   0003D2  ECE2  F014         	call	_lcd_8bit_send_string_pos	;wreg free
  2082   0003D6  6E6F               	movwf	_ret^0,c
  2083                           
  2084                           ;application.c: 113:             ret=lcd_8bit_send_string_pos(&lcd_2,2,1,"2 To Open Lamp
      +                          ");
  2085   0003D8  0EF5               	movlw	low _lcd_2
  2086   0003DA  6E27               	movwf	lcd_8bit_send_string_pos@lcd^0,c
  2087   0003DC  0E00               	movlw	high _lcd_2
  2088   0003DE  6E28               	movwf	(lcd_8bit_send_string_pos@lcd+1)^0,c
  2089   0003E0  0E02               	movlw	2
  2090   0003E2  6E29               	movwf	lcd_8bit_send_string_pos@row^0,c
  2091   0003E4  0E01               	movlw	1
  2092   0003E6  6E2A               	movwf	lcd_8bit_send_string_pos@column^0,c
  2093   0003E8  0E77               	movlw	low STR_13
  2094   0003EA  6E2B               	movwf	lcd_8bit_send_string_pos@str^0,c
  2095   0003EC  0EFF               	movlw	high STR_13
  2096   0003EE  6E2C               	movwf	(lcd_8bit_send_string_pos@str+1)^0,c
  2097   0003F0  ECE2  F014         	call	_lcd_8bit_send_string_pos	;wreg free
  2098   0003F4  6E6F               	movwf	_ret^0,c
  2099                           
  2100                           ;application.c: 114:             ret=lcd_8bit_send_string_pos(&lcd_2,3,1,"3 To Open TV")
      +                          ;
  2101   0003F6  0EF5               	movlw	low _lcd_2
  2102   0003F8  6E27               	movwf	lcd_8bit_send_string_pos@lcd^0,c
  2103   0003FA  0E00               	movlw	high _lcd_2
  2104   0003FC  6E28               	movwf	(lcd_8bit_send_string_pos@lcd+1)^0,c
  2105   0003FE  0E03               	movlw	3
  2106   000400  6E29               	movwf	lcd_8bit_send_string_pos@row^0,c
  2107   000402  0E01               	movlw	1
  2108   000404  6E2A               	movwf	lcd_8bit_send_string_pos@column^0,c
  2109   000406  0E95               	movlw	low STR_14
  2110   000408  6E2B               	movwf	lcd_8bit_send_string_pos@str^0,c
  2111   00040A  0EFF               	movlw	high STR_14
  2112   00040C  6E2C               	movwf	(lcd_8bit_send_string_pos@str+1)^0,c
  2113   00040E  ECE2  F014         	call	_lcd_8bit_send_string_pos	;wreg free
  2114   000412  6E6F               	movwf	_ret^0,c
  2115   000414                     
  2116                           ;application.c: 115:              _delay((unsigned long)((200)*(4000000UL/4000.0)));
  2117   000414  0E02               	movlw	2
  2118   000416  0101               	movlb	1	; () banked
  2119   000418  6F6A               	movwf	(??_main+1)& (0+255),b
  2120   00041A  0E04               	movlw	4
  2121   00041C  6F69               	movwf	??_main& (0+255),b
  2122   00041E  0EBA               	movlw	186
  2123   000420                     u10747:
  2124   000420  2EE8               	decfsz	wreg,f,c
  2125   000422  D7FE               	bra	u10747
  2126   000424  2F69               	decfsz	??_main& (0+255),f,b
  2127   000426  D7FC               	bra	u10747
  2128   000428  2F6A               	decfsz	(??_main+1)& (0+255),f,b
  2129   00042A  D7FA               	bra	u10747
  2130   00042C  F000               	nop	
  2131   00042E                     
  2132                           ;application.c: 116:             ret=keypad_get_value(&keypad1,&keypadvalue);
  2133   00042E  0E59               	movlw	low _keypad1
  2134   000430  6E15               	movwf	keypad_get_value@_keypad_obj^0,c
  2135   000432  0E01               	movlw	high _keypad1
  2136   000434  6E16               	movwf	(keypad_get_value@_keypad_obj+1)^0,c
  2137   000436  0E6A               	movlw	low _keypadvalue
  2138   000438  6E17               	movwf	keypad_get_value@value^0,c
  2139   00043A  0E00               	movlw	high _keypadvalue
  2140   00043C  6E18               	movwf	(keypad_get_value@value+1)^0,c
  2141   00043E  ECCE  F010         	call	_keypad_get_value	;wreg free
  2142   000442  6E6F               	movwf	_ret^0,c
  2143   000444                     l11730:
  2144                           
  2145                           ;application.c: 111:              while(keypadvalue == 0){
  2146   000444  506A               	movf	_keypadvalue^0,w,c	;volatile
  2147   000446  B4D8               	btfsc	status,2,c
  2148   000448  EF28  F002         	goto	u10631
  2149   00044C  EF2A  F002         	goto	u10630
  2150   000450                     u10631:
  2151   000450  EFDD  F001         	goto	l11724
  2152   000454                     u10630:
  2153   000454                     
  2154                           ;application.c: 119:             if('1' == keypadvalue){
  2155   000454  0E31               	movlw	49
  2156   000456  186A               	xorwf	_keypadvalue^0,w,c	;volatile
  2157   000458  A4D8               	btfss	status,2,c
  2158   00045A  EF31  F002         	goto	u10641
  2159   00045E  EF33  F002         	goto	u10640
  2160   000462                     u10641:
  2161   000462  EF51  F002         	goto	l11746
  2162   000466                     u10640:
  2163   000466                     
  2164                           ;application.c: 120:             keypadvalue=0;
  2165   000466  0E00               	movlw	0
  2166   000468  6E6A               	movwf	_keypadvalue^0,c	;volatile
  2167   00046A                     
  2168                           ;application.c: 121:             Door2_Open();
  2169   00046A  EC77  F01C         	call	_Door2_Open	;wreg free
  2170   00046E                     
  2171                           ;application.c: 122:             ret=lcd_8bit_send_command (&lcd_2,0x01);
  2172   00046E  0EF5               	movlw	low _lcd_2
  2173   000470  6E18               	movwf	lcd_8bit_send_command@lcd^0,c
  2174   000472  0E00               	movlw	high _lcd_2
  2175   000474  6E19               	movwf	(lcd_8bit_send_command@lcd+1)^0,c
  2176   000476  0E01               	movlw	1
  2177   000478  6E1A               	movwf	lcd_8bit_send_command@command^0,c
  2178   00047A  ECD3  F016         	call	_lcd_8bit_send_command	;wreg free
  2179   00047E  6E6F               	movwf	_ret^0,c
  2180   000480                     
  2181                           ;application.c: 123:             ret=lcd_8bit_send_string_pos(&lcd_2,1,1,"Room 2 is Open
      +                          ");
  2182   000480  0EF5               	movlw	low _lcd_2
  2183   000482  6E27               	movwf	lcd_8bit_send_string_pos@lcd^0,c
  2184   000484  0E00               	movlw	high _lcd_2
  2185   000486  6E28               	movwf	(lcd_8bit_send_string_pos@lcd+1)^0,c
  2186   000488  0E01               	movlw	1
  2187   00048A  6E29               	movwf	lcd_8bit_send_string_pos@row^0,c
  2188   00048C  0E01               	movlw	1
  2189   00048E  6E2A               	movwf	lcd_8bit_send_string_pos@column^0,c
  2190   000490  0E68               	movlw	low STR_21
  2191   000492  6E2B               	movwf	lcd_8bit_send_string_pos@str^0,c
  2192   000494  0EFF               	movlw	high STR_21
  2193   000496  6E2C               	movwf	(lcd_8bit_send_string_pos@str+1)^0,c
  2194   000498  ECE2  F014         	call	_lcd_8bit_send_string_pos	;wreg free
  2195   00049C  6E6F               	movwf	_ret^0,c
  2196   00049E  EF56  F001         	goto	l11686
  2197   0004A2                     l11746:
  2198   0004A2  0E32               	movlw	50
  2199   0004A4  186A               	xorwf	_keypadvalue^0,w,c	;volatile
  2200   0004A6  A4D8               	btfss	status,2,c
  2201   0004A8  EF58  F002         	goto	u10651
  2202   0004AC  EF5A  F002         	goto	u10650
  2203   0004B0                     u10651:
  2204   0004B0  EF7D  F002         	goto	l11760
  2205   0004B4                     u10650:
  2206   0004B4                     
  2207                           ;application.c: 128:                 keypadvalue=0;
  2208   0004B4  0E00               	movlw	0
  2209   0004B6  6E6A               	movwf	_keypadvalue^0,c	;volatile
  2210   0004B8                     
  2211                           ;application.c: 129:                 ret= relay_turn_on(&relay2);
  2212   0004B8  0E72               	movlw	low _relay2
  2213   0004BA  6E15               	movwf	relay_turn_on@_relay^0,c
  2214   0004BC  0E00               	movlw	high _relay2
  2215   0004BE  6E16               	movwf	(relay_turn_on@_relay+1)^0,c
  2216   0004C0  ECE8  F018         	call	_relay_turn_on	;wreg free
  2217   0004C4  6E6F               	movwf	_ret^0,c
  2218   0004C6                     
  2219                           ;application.c: 130:                 ret=lcd_8bit_send_command (&lcd_2,0x01);
  2220   0004C6  0EF5               	movlw	low _lcd_2
  2221   0004C8  6E18               	movwf	lcd_8bit_send_command@lcd^0,c
  2222   0004CA  0E00               	movlw	high _lcd_2
  2223   0004CC  6E19               	movwf	(lcd_8bit_send_command@lcd+1)^0,c
  2224   0004CE  0E01               	movlw	1
  2225   0004D0  6E1A               	movwf	lcd_8bit_send_command@command^0,c
  2226   0004D2  ECD3  F016         	call	_lcd_8bit_send_command	;wreg free
  2227   0004D6  6E6F               	movwf	_ret^0,c
  2228   0004D8                     
  2229                           ;application.c: 131:                 ret=lcd_8bit_send_string_pos(&lcd_2,1,1,"Room 2 Lam
      +                          p is Open");
  2230   0004D8  0EF5               	movlw	low _lcd_2
  2231   0004DA  6E27               	movwf	lcd_8bit_send_string_pos@lcd^0,c
  2232   0004DC  0E00               	movlw	high _lcd_2
  2233   0004DE  6E28               	movwf	(lcd_8bit_send_string_pos@lcd+1)^0,c
  2234   0004E0  0E01               	movlw	1
  2235   0004E2  6E29               	movwf	lcd_8bit_send_string_pos@row^0,c
  2236   0004E4  0E01               	movlw	1
  2237   0004E6  6E2A               	movwf	lcd_8bit_send_string_pos@column^0,c
  2238   0004E8  0ED7               	movlw	low STR_22
  2239   0004EA  6E2B               	movwf	lcd_8bit_send_string_pos@str^0,c
  2240   0004EC  0EFE               	movlw	high STR_22
  2241   0004EE  6E2C               	movwf	(lcd_8bit_send_string_pos@str+1)^0,c
  2242   0004F0  ECE2  F014         	call	_lcd_8bit_send_string_pos	;wreg free
  2243   0004F4  6E6F               	movwf	_ret^0,c
  2244   0004F6  EF56  F001         	goto	l11686
  2245   0004FA                     l11760:
  2246   0004FA  0E33               	movlw	51
  2247   0004FC  186A               	xorwf	_keypadvalue^0,w,c	;volatile
  2248   0004FE  A4D8               	btfss	status,2,c
  2249   000500  EF84  F002         	goto	u10661
  2250   000504  EF86  F002         	goto	u10660
  2251   000508                     u10661:
  2252   000508  EFC5  F001         	goto	l1792
  2253   00050C                     u10660:
  2254   00050C                     
  2255                           ;application.c: 136:                 keypadvalue=0;
  2256   00050C  0E00               	movlw	0
  2257   00050E  6E6A               	movwf	_keypadvalue^0,c	;volatile
  2258   000510                     
  2259                           ;application.c: 137:                 ret=led_turn_on(&led2);
  2260   000510  0E70               	movlw	low _led2
  2261   000512  6E15               	movwf	led_turn_on@led^0,c
  2262   000514  0E00               	movlw	high _led2
  2263   000516  6E16               	movwf	(led_turn_on@led+1)^0,c
  2264   000518  EC24  F019         	call	_led_turn_on	;wreg free
  2265   00051C  6E6F               	movwf	_ret^0,c
  2266   00051E                     
  2267                           ;application.c: 138:                 ret=lcd_8bit_send_command (&lcd_2,0x01);
  2268   00051E  0EF5               	movlw	low _lcd_2
  2269   000520  6E18               	movwf	lcd_8bit_send_command@lcd^0,c
  2270   000522  0E00               	movlw	high _lcd_2
  2271   000524  6E19               	movwf	(lcd_8bit_send_command@lcd+1)^0,c
  2272   000526  0E01               	movlw	1
  2273   000528  6E1A               	movwf	lcd_8bit_send_command@command^0,c
  2274   00052A  ECD3  F016         	call	_lcd_8bit_send_command	;wreg free
  2275   00052E  6E6F               	movwf	_ret^0,c
  2276   000530                     
  2277                           ;application.c: 139:                 ret=lcd_8bit_send_string_pos(&lcd_2,1,1,"Room 2 TV 
      +                          is Open");
  2278   000530  0EF5               	movlw	low _lcd_2
  2279   000532  6E27               	movwf	lcd_8bit_send_string_pos@lcd^0,c
  2280   000534  0E00               	movlw	high _lcd_2
  2281   000536  6E28               	movwf	(lcd_8bit_send_string_pos@lcd+1)^0,c
  2282   000538  0E01               	movlw	1
  2283   00053A  6E29               	movwf	lcd_8bit_send_string_pos@row^0,c
  2284   00053C  0E01               	movlw	1
  2285   00053E  6E2A               	movwf	lcd_8bit_send_string_pos@column^0,c
  2286   000540  0E36               	movlw	low STR_23
  2287   000542  6E2B               	movwf	lcd_8bit_send_string_pos@str^0,c
  2288   000544  0EFF               	movlw	high STR_23
  2289   000546  6E2C               	movwf	(lcd_8bit_send_string_pos@str+1)^0,c
  2290   000548  ECE2  F014         	call	_lcd_8bit_send_string_pos	;wreg free
  2291   00054C  6E6F               	movwf	_ret^0,c
  2292   00054E  EF56  F001         	goto	l11686
  2293   000552                     l11774:
  2294   000552  0E33               	movlw	51
  2295   000554  186A               	xorwf	_keypadvalue^0,w,c	;volatile
  2296   000556  A4D8               	btfss	status,2,c
  2297   000558  EFB0  F002         	goto	u10671
  2298   00055C  EFB2  F002         	goto	u10670
  2299   000560                     u10671:
  2300   000560  EF85  F000         	goto	l11650
  2301   000564                     u10670:
  2302   000564                     
  2303                           ;application.c: 148:             keypadvalue=0;
  2304   000564  0E00               	movlw	0
  2305   000566  6E6A               	movwf	_keypadvalue^0,c	;volatile
  2306   000568                     
  2307                           ;application.c: 149:             ret=lcd_8bit_send_command (&lcd_2,0x01);
  2308   000568  0EF5               	movlw	low _lcd_2
  2309   00056A  6E18               	movwf	lcd_8bit_send_command@lcd^0,c
  2310   00056C  0E00               	movlw	high _lcd_2
  2311   00056E  6E19               	movwf	(lcd_8bit_send_command@lcd+1)^0,c
  2312   000570  0E01               	movlw	1
  2313   000572  6E1A               	movwf	lcd_8bit_send_command@command^0,c
  2314   000574  ECD3  F016         	call	_lcd_8bit_send_command	;wreg free
  2315   000578  6E6F               	movwf	_ret^0,c
  2316                           
  2317                           ;application.c: 150:             while(keypadvalue !='*'){
  2318   00057A  EFED  F002         	goto	l11790
  2319   00057E                     l11780:
  2320                           
  2321                           ;application.c: 152:             RealTimeClockDS1307= RealTimeClockDS1307_Get_Date_Time(
      +                          );
  2322   00057E  EC5B  F01B         	call	_RealTimeClockDS1307_Get_Date_Time	;wreg free
  2323   000582  EE21  F014         	lfsr	2,_RealTimeClockDS1307
  2324   000586  0E05               	movlw	5
  2325   000588                     u10681:
  2326   000588  CFEB FFDB          	movff	plusw0,plusw2
  2327   00058C  06E8               	decf	wreg,f,c
  2328   00058E  E2FC               	bc	u10681
  2329   000590                     
  2330                           ;application.c: 153:             Print_RealTimeClockDS1307();
  2331   000590  EC57  F012         	call	_Print_RealTimeClockDS1307	;wreg free
  2332   000594                     
  2333                           ;application.c: 154:             _delay((unsigned long)((20)*(4000000UL/4000.0)));
  2334   000594  0E1A               	movlw	26
  2335   000596  0101               	movlb	1	; () banked
  2336   000598  6F69               	movwf	??_main& (0+255),b
  2337   00059A  0EF8               	movlw	248
  2338   00059C                     u10757:
  2339   00059C  2EE8               	decfsz	wreg,f,c
  2340   00059E  D7FE               	bra	u10757
  2341   0005A0  2F69               	decfsz	??_main& (0+255),f,b
  2342   0005A2  D7FC               	bra	u10757
  2343   0005A4  F000               	nop	
  2344   0005A6                     
  2345                           ;application.c: 155:             ret=lcd_8bit_send_string_pos(&lcd_2,3,1,"* To Exit");
  2346   0005A6  0EF5               	movlw	low _lcd_2
  2347   0005A8  6E27               	movwf	lcd_8bit_send_string_pos@lcd^0,c
  2348   0005AA  0E00               	movlw	high _lcd_2
  2349   0005AC  6E28               	movwf	(lcd_8bit_send_string_pos@lcd+1)^0,c
  2350   0005AE  0E03               	movlw	3
  2351   0005B0  6E29               	movwf	lcd_8bit_send_string_pos@row^0,c
  2352   0005B2  0E01               	movlw	1
  2353   0005B4  6E2A               	movwf	lcd_8bit_send_string_pos@column^0,c
  2354   0005B6  0ED0               	movlw	low STR_24
  2355   0005B8  6E2B               	movwf	lcd_8bit_send_string_pos@str^0,c
  2356   0005BA  0EFF               	movlw	high STR_24
  2357   0005BC  6E2C               	movwf	(lcd_8bit_send_string_pos@str+1)^0,c
  2358   0005BE  ECE2  F014         	call	_lcd_8bit_send_string_pos	;wreg free
  2359   0005C2  6E6F               	movwf	_ret^0,c
  2360   0005C4                     
  2361                           ;application.c: 156:             ret=keypad_get_value(&keypad1,&keypadvalue);
  2362   0005C4  0E59               	movlw	low _keypad1
  2363   0005C6  6E15               	movwf	keypad_get_value@_keypad_obj^0,c
  2364   0005C8  0E01               	movlw	high _keypad1
  2365   0005CA  6E16               	movwf	(keypad_get_value@_keypad_obj+1)^0,c
  2366   0005CC  0E6A               	movlw	low _keypadvalue
  2367   0005CE  6E17               	movwf	keypad_get_value@value^0,c
  2368   0005D0  0E00               	movlw	high _keypadvalue
  2369   0005D2  6E18               	movwf	(keypad_get_value@value+1)^0,c
  2370   0005D4  ECCE  F010         	call	_keypad_get_value	;wreg free
  2371   0005D8  6E6F               	movwf	_ret^0,c
  2372   0005DA                     l11790:
  2373                           
  2374                           ;application.c: 150:             while(keypadvalue !='*'){
  2375   0005DA  0E2A               	movlw	42
  2376   0005DC  186A               	xorwf	_keypadvalue^0,w,c	;volatile
  2377   0005DE  A4D8               	btfss	status,2,c
  2378   0005E0  EFF4  F002         	goto	u10691
  2379   0005E4  EFF6  F002         	goto	u10690
  2380   0005E8                     u10691:
  2381   0005E8  EFBF  F002         	goto	l11780
  2382   0005EC                     u10690:
  2383   0005EC  EF62  F001         	goto	l11688
  2384   0005F0  EF07  F000         	goto	start
  2385   0005F4                     __end_of_main:
  2386                           	callstack 0
  2387                           
  2388 ;; *************** function _relay_turn_on *****************
  2389 ;; Defined at:
  2390 ;;		line 42 in file "ECU_Layer/Relay/ecu_relay.c"
  2391 ;; Parameters:    Size  Location     Type
  2392 ;;  _relay          2   20[COMRAM] PTR const struct .
  2393 ;;		 -> relay2(1), relay1(1), 
  2394 ;; Auto vars:     Size  Location     Type
  2395 ;;  pin_obj         1   23[COMRAM] struct .
  2396 ;;  ret             1    0        unsigned char 
  2397 ;; Return value:  Size  Location     Type
  2398 ;;                  1    wreg      unsigned char 
  2399 ;; Registers used:
  2400 ;;		wreg, fsr2l, fsr2h, status,2, status,0, prodl, prodh, cstack
  2401 ;; Tracked objects:
  2402 ;;		On entry : 0/0
  2403 ;;		On exit  : 0/0
  2404 ;;		Unchanged: 0/0
  2405 ;; Data sizes:     COMRAM   BANK0   BANK1   BANK2   BANK3   BANK4   BANK5   BANK6   BANK7   BANK8   BANK9  BANK10  BANK1
      +1  BANK12  BANK13  BANK14  BANK15
  2406 ;;      Params:         2       0       0       0       0       0       0       0       0       0       0       0       
      +0       0       0       0       0
  2407 ;;      Locals:         1       0       0       0       0       0       0       0       0       0       0       0       
      +0       0       0       0       0
  2408 ;;      Temps:          1       0       0       0       0       0       0       0       0       0       0       0       
      +0       0       0       0       0
  2409 ;;      Totals:         4       0       0       0       0       0       0       0       0       0       0       0       
      +0       0       0       0       0
  2410 ;;Total ram usage:        4 bytes
  2411 ;; Hardware stack levels used: 1
  2412 ;; Hardware stack levels required when called: 5
  2413 ;; This function calls:
  2414 ;;		_gpio_pin_write_logic
  2415 ;; This function is called by:
  2416 ;;		_main
  2417 ;; This function uses a non-reentrant model
  2418 ;;
  2419                           
  2420                           	psect	text1
  2421   0031D0                     __ptext1:
  2422                           	callstack 0
  2423   0031D0                     _relay_turn_on:
  2424                           	callstack 25
  2425   0031D0                     
  2426                           ;ECU_Layer/Relay/ecu_relay.c: 45:     if(((void*)0)== _relay){
  2427   0031D0  5015               	movf	relay_turn_on@_relay^0,w,c
  2428   0031D2  1016               	iorwf	(relay_turn_on@_relay+1)^0,w,c
  2429   0031D4  A4D8               	btfss	status,2,c
  2430   0031D6  EFEF  F018         	goto	u10121
  2431   0031DA  EFF1  F018         	goto	u10120
  2432   0031DE                     u10121:
  2433   0031DE  EFF3  F018         	goto	l369
  2434   0031E2                     u10120:
  2435   0031E2                     
  2436                           ;ECU_Layer/Relay/ecu_relay.c: 47:     }
  2437   0031E2  EF22  F019         	goto	l11144
  2438   0031E6                     l369:
  2439                           
  2440                           ;ECU_Layer/Relay/ecu_relay.c: 49:         pin_config_t pin_obj={.port=_relay->relay_port
      +                          ,.pin=_relay->relay_pin,
  2441   0031E6  C05E  F018         	movff	relay_turn_on@F3047,relay_turn_on@pin_obj
  2442   0031EA  C015  FFD9         	movff	relay_turn_on@_relay,fsr2l
  2443   0031EE  C016  FFDA         	movff	relay_turn_on@_relay+1,fsr2h
  2444   0031F2  50DF               	movf	223,w,c
  2445   0031F4  0B0F               	andlw	15
  2446   0031F6  6E17               	movwf	??_relay_turn_on^0,c
  2447   0031F8  5018               	movf	relay_turn_on@pin_obj^0,w,c
  2448   0031FA  1817               	xorwf	??_relay_turn_on^0,w,c
  2449   0031FC  0BF8               	andlw	-8
  2450   0031FE  1817               	xorwf	??_relay_turn_on^0,w,c
  2451   003200  6E18               	movwf	relay_turn_on@pin_obj^0,c
  2452   003202  C015  FFD9         	movff	relay_turn_on@_relay,fsr2l
  2453   003206  C016  FFDA         	movff	relay_turn_on@_relay+1,fsr2h
  2454   00320A  38DF               	swapf	223,w,c
  2455   00320C  0B07               	andlw	7
  2456   00320E  6E17               	movwf	??_relay_turn_on^0,c
  2457   003210  4617               	rlncf	??_relay_turn_on^0,f,c
  2458   003212  4617               	rlncf	??_relay_turn_on^0,f,c
  2459   003214  4617               	rlncf	??_relay_turn_on^0,f,c
  2460   003216  5018               	movf	relay_turn_on@pin_obj^0,w,c
  2461   003218  1817               	xorwf	??_relay_turn_on^0,w,c
  2462   00321A  0BC7               	andlw	-57
  2463   00321C  1817               	xorwf	??_relay_turn_on^0,w,c
  2464   00321E  6E18               	movwf	relay_turn_on@pin_obj^0,c
  2465   003220  9C18               	bcf	relay_turn_on@pin_obj^0,6,c
  2466   003222  C015  FFD9         	movff	relay_turn_on@_relay,fsr2l
  2467   003226  C016  FFDA         	movff	relay_turn_on@_relay+1,fsr2h
  2468   00322A  AEDF               	btfss	indf2,7,c
  2469   00322C  D002               	bra	u10135
  2470   00322E  8E18               	bsf	relay_turn_on@pin_obj^0,7,c
  2471   003230  D001               	bra	u10137
  2472   003232                     u10135:
  2473   003232  9E18               	bcf	relay_turn_on@pin_obj^0,7,c
  2474   003234                     u10137:
  2475   003234                     
  2476                           ;ECU_Layer/Relay/ecu_relay.c: 52:         gpio_pin_write_logic(&pin_obj,GPIO_HIGH);
  2477   003234  0E18               	movlw	low relay_turn_on@pin_obj
  2478   003236  6E0C               	movwf	gpio_pin_write_logic@_pin_config^0,c
  2479   003238  0E00               	movlw	high relay_turn_on@pin_obj
  2480   00323A  6E0D               	movwf	(gpio_pin_write_logic@_pin_config+1)^0,c
  2481   00323C  0E01               	movlw	1
  2482   00323E  6E0E               	movwf	gpio_pin_write_logic@logic^0,c
  2483   003240  ECAB  F00F         	call	_gpio_pin_write_logic	;wreg free
  2484   003244                     l11144:
  2485                           
  2486                           ;ECU_Layer/Relay/ecu_relay.c: 57:     return ret;
  2487   003244  0E01               	movlw	1
  2488   003246  0012               	return		;funcret
  2489   003248                     __end_of_relay_turn_on:
  2490                           	callstack 0
  2491                           
  2492 ;; *************** function _led_turn_on *****************
  2493 ;; Defined at:
  2494 ;;		line 37 in file "ECU_Layer/LED/ecu_led.c"
  2495 ;; Parameters:    Size  Location     Type
  2496 ;;  led             2   20[COMRAM] PTR const struct .
  2497 ;;		 -> led2(1), led1(1), 
  2498 ;; Auto vars:     Size  Location     Type
  2499 ;;  pin_obj         1   23[COMRAM] struct .
  2500 ;;  ret             1    0        unsigned char 
  2501 ;; Return value:  Size  Location     Type
  2502 ;;                  1    wreg      unsigned char 
  2503 ;; Registers used:
  2504 ;;		wreg, fsr2l, fsr2h, status,2, status,0, prodl, prodh, cstack
  2505 ;; Tracked objects:
  2506 ;;		On entry : 0/0
  2507 ;;		On exit  : 0/0
  2508 ;;		Unchanged: 0/0
  2509 ;; Data sizes:     COMRAM   BANK0   BANK1   BANK2   BANK3   BANK4   BANK5   BANK6   BANK7   BANK8   BANK9  BANK10  BANK1
      +1  BANK12  BANK13  BANK14  BANK15
  2510 ;;      Params:         2       0       0       0       0       0       0       0       0       0       0       0       
      +0       0       0       0       0
  2511 ;;      Locals:         1       0       0       0       0       0       0       0       0       0       0       0       
      +0       0       0       0       0
  2512 ;;      Temps:          1       0       0       0       0       0       0       0       0       0       0       0       
      +0       0       0       0       0
  2513 ;;      Totals:         4       0       0       0       0       0       0       0       0       0       0       0       
      +0       0       0       0       0
  2514 ;;Total ram usage:        4 bytes
  2515 ;; Hardware stack levels used: 1
  2516 ;; Hardware stack levels required when called: 5
  2517 ;; This function calls:
  2518 ;;		_gpio_pin_write_logic
  2519 ;; This function is called by:
  2520 ;;		_main
  2521 ;; This function uses a non-reentrant model
  2522 ;;
  2523                           
  2524                           	psect	text2
  2525   003248                     __ptext2:
  2526                           	callstack 0
  2527   003248                     _led_turn_on:
  2528                           	callstack 25
  2529   003248                     
  2530                           ;ECU_Layer/LED/ecu_led.c: 39:     if(((void*)0)== led){
  2531   003248  5015               	movf	led_turn_on@led^0,w,c
  2532   00324A  1016               	iorwf	(led_turn_on@led+1)^0,w,c
  2533   00324C  A4D8               	btfss	status,2,c
  2534   00324E  EF2B  F019         	goto	u10091
  2535   003252  EF2D  F019         	goto	u10090
  2536   003256                     u10091:
  2537   003256  EF2F  F019         	goto	l298
  2538   00325A                     u10090:
  2539   00325A                     
  2540                           ;ECU_Layer/LED/ecu_led.c: 41:     }
  2541   00325A  EF5E  F019         	goto	l11086
  2542   00325E                     l298:
  2543                           
  2544                           ;ECU_Layer/LED/ecu_led.c: 43:          pin_config_t pin_obj ={ .port=led->port_name,.pin
      +                          =led->pin ,
  2545   00325E  C063  F018         	movff	led_turn_on@F3053,led_turn_on@pin_obj
  2546   003262  C015  FFD9         	movff	led_turn_on@led,fsr2l
  2547   003266  C016  FFDA         	movff	led_turn_on@led+1,fsr2h
  2548   00326A  50DF               	movf	223,w,c
  2549   00326C  0B0F               	andlw	15
  2550   00326E  6E17               	movwf	??_led_turn_on^0,c
  2551   003270  5018               	movf	led_turn_on@pin_obj^0,w,c
  2552   003272  1817               	xorwf	??_led_turn_on^0,w,c
  2553   003274  0BF8               	andlw	-8
  2554   003276  1817               	xorwf	??_led_turn_on^0,w,c
  2555   003278  6E18               	movwf	led_turn_on@pin_obj^0,c
  2556   00327A  C015  FFD9         	movff	led_turn_on@led,fsr2l
  2557   00327E  C016  FFDA         	movff	led_turn_on@led+1,fsr2h
  2558   003282  38DF               	swapf	223,w,c
  2559   003284  0B07               	andlw	7
  2560   003286  6E17               	movwf	??_led_turn_on^0,c
  2561   003288  4617               	rlncf	??_led_turn_on^0,f,c
  2562   00328A  4617               	rlncf	??_led_turn_on^0,f,c
  2563   00328C  4617               	rlncf	??_led_turn_on^0,f,c
  2564   00328E  5018               	movf	led_turn_on@pin_obj^0,w,c
  2565   003290  1817               	xorwf	??_led_turn_on^0,w,c
  2566   003292  0BC7               	andlw	-57
  2567   003294  1817               	xorwf	??_led_turn_on^0,w,c
  2568   003296  6E18               	movwf	led_turn_on@pin_obj^0,c
  2569   003298  9C18               	bcf	led_turn_on@pin_obj^0,6,c
  2570   00329A  C015  FFD9         	movff	led_turn_on@led,fsr2l
  2571   00329E  C016  FFDA         	movff	led_turn_on@led+1,fsr2h
  2572   0032A2  AEDF               	btfss	indf2,7,c
  2573   0032A4  D002               	bra	u10105
  2574   0032A6  8E18               	bsf	led_turn_on@pin_obj^0,7,c
  2575   0032A8  D001               	bra	u10107
  2576   0032AA                     u10105:
  2577   0032AA  9E18               	bcf	led_turn_on@pin_obj^0,7,c
  2578   0032AC                     u10107:
  2579   0032AC                     
  2580                           ;ECU_Layer/LED/ecu_led.c: 45:          gpio_pin_write_logic(&pin_obj,GPIO_HIGH);
  2581   0032AC  0E18               	movlw	low led_turn_on@pin_obj
  2582   0032AE  6E0C               	movwf	gpio_pin_write_logic@_pin_config^0,c
  2583   0032B0  0E00               	movlw	high led_turn_on@pin_obj
  2584   0032B2  6E0D               	movwf	(gpio_pin_write_logic@_pin_config+1)^0,c
  2585   0032B4  0E01               	movlw	1
  2586   0032B6  6E0E               	movwf	gpio_pin_write_logic@logic^0,c
  2587   0032B8  ECAB  F00F         	call	_gpio_pin_write_logic	;wreg free
  2588   0032BC                     l11086:
  2589                           
  2590                           ;ECU_Layer/LED/ecu_led.c: 49:     return ret;
  2591   0032BC  0E01               	movlw	1
  2592   0032BE  0012               	return		;funcret
  2593   0032C0                     __end_of_led_turn_on:
  2594                           	callstack 0
  2595                           
  2596 ;; *************** function _application_intialize *****************
  2597 ;; Defined at:
  2598 ;;		line 178 in file "application.c"
  2599 ;; Parameters:    Size  Location     Type
  2600 ;;		None
  2601 ;; Auto vars:     Size  Location     Type
  2602 ;;		None
  2603 ;; Return value:  Size  Location     Type
  2604 ;;                  1    wreg      void 
  2605 ;; Registers used:
  2606 ;;		wreg, fsr2l, fsr2h, status,2, status,0, prodl, prodh, cstack
  2607 ;; Tracked objects:
  2608 ;;		On entry : 0/0
  2609 ;;		On exit  : 0/0
  2610 ;;		Unchanged: 0/0
  2611 ;; Data sizes:     COMRAM   BANK0   BANK1   BANK2   BANK3   BANK4   BANK5   BANK6   BANK7   BANK8   BANK9  BANK10  BANK1
      +1  BANK12  BANK13  BANK14  BANK15
  2612 ;;      Params:         0       0       0       0       0       0       0       0       0       0       0       0       
      +0       0       0       0       0
  2613 ;;      Locals:         0       0       0       0       0       0       0       0       0       0       0       0       
      +0       0       0       0       0
  2614 ;;      Temps:          0       0       0       0       0       0       0       0       0       0       0       0       
      +0       0       0       0       0
  2615 ;;      Totals:         0       0       0       0       0       0       0       0       0       0       0       0       
      +0       0       0       0       0
  2616 ;;Total ram usage:        0 bytes
  2617 ;; Hardware stack levels used: 1
  2618 ;; Hardware stack levels required when called: 9
  2619 ;; This function calls:
  2620 ;;		_ecu_layer_intialize
  2621 ;; This function is called by:
  2622 ;;		_main
  2623 ;; This function uses a non-reentrant model
  2624 ;;
  2625                           
  2626                           	psect	text3
  2627   003B18                     __ptext3:
  2628                           	callstack 0
  2629   003B18                     _application_intialize:
  2630                           	callstack 21
  2631   003B18                     
  2632                           ;application.c: 179:   ecu_layer_intialize();
  2633   003B18  EC26  F01B         	call	_ecu_layer_intialize	;wreg free
  2634   003B1C  0012               	return		;funcret
  2635   003B1E                     __end_of_application_intialize:
  2636                           	callstack 0
  2637                           
  2638 ;; *************** function _ecu_layer_intialize *****************
  2639 ;; Defined at:
  2640 ;;		line 264 in file "ECU_Layer/ecu_layer_init.c"
  2641 ;; Parameters:    Size  Location     Type
  2642 ;;		None
  2643 ;; Auto vars:     Size  Location     Type
  2644 ;;  ret             1    0        unsigned char 
  2645 ;; Return value:  Size  Location     Type
  2646 ;;                  1    wreg      void 
  2647 ;; Registers used:
  2648 ;;		wreg, fsr2l, fsr2h, status,2, status,0, prodl, prodh, cstack
  2649 ;; Tracked objects:
  2650 ;;		On entry : 0/0
  2651 ;;		On exit  : 0/0
  2652 ;;		Unchanged: 0/0
  2653 ;; Data sizes:     COMRAM   BANK0   BANK1   BANK2   BANK3   BANK4   BANK5   BANK6   BANK7   BANK8   BANK9  BANK10  BANK1
      +1  BANK12  BANK13  BANK14  BANK15
  2654 ;;      Params:         0       0       0       0       0       0       0       0       0       0       0       0       
      +0       0       0       0       0
  2655 ;;      Locals:         0       0       0       0       0       0       0       0       0       0       0       0       
      +0       0       0       0       0
  2656 ;;      Temps:          0       0       0       0       0       0       0       0       0       0       0       0       
      +0       0       0       0       0
  2657 ;;      Totals:         0       0       0       0       0       0       0       0       0       0       0       0       
      +0       0       0       0       0
  2658 ;;Total ram usage:        0 bytes
  2659 ;; Hardware stack levels used: 1
  2660 ;; Hardware stack levels required when called: 8
  2661 ;; This function calls:
  2662 ;;		_EUSART_ASYNC_Init
  2663 ;;		_I2C_Obj_CFG
  2664 ;;		_MSSP_I2C_Init
  2665 ;;		_keypad_initialize
  2666 ;;		_lcd_8bit_initialize
  2667 ;;		_led_initialize
  2668 ;;		_relay_initialize
  2669 ;;		_usart_model_init
  2670 ;; This function is called by:
  2671 ;;		_application_intialize
  2672 ;; This function uses a non-reentrant model
  2673 ;;
  2674                           
  2675                           	psect	text4
  2676   00364C                     __ptext4:
  2677                           	callstack 0
  2678   00364C                     _ecu_layer_intialize:
  2679                           	callstack 21
  2680   00364C                     
  2681                           ;ECU_Layer/ecu_layer_init.c: 267:     I2C_Obj_CFG();
  2682   00364C  EC64  F01D         	call	_I2C_Obj_CFG	;wreg free
  2683   003650  0E65               	movlw	low _i2c_obj
  2684   003652  6E51               	movwf	MSSP_I2C_Init@i2c_obj^0,c
  2685   003654  0E00               	movlw	high _i2c_obj
  2686   003656  6E52               	movwf	(MSSP_I2C_Init@i2c_obj+1)^0,c
  2687   003658  EC30  F00D         	call	_MSSP_I2C_Init	;wreg free
  2688   00365C                     
  2689                           ;ECU_Layer/ecu_layer_init.c: 269:     usart_model_init();
  2690   00365C  ECA8  F01B         	call	_usart_model_init	;wreg free
  2691   003660  0EBB               	movlw	low _usart_obj
  2692   003662  6E51               	movwf	EUSART_ASYNC_Init@_eusart^0,c
  2693   003664  0E00               	movlw	high _usart_obj
  2694   003666  6E52               	movwf	(EUSART_ASYNC_Init@_eusart+1)^0,c
  2695   003668  EC83  F01B         	call	_EUSART_ASYNC_Init	;wreg free
  2696   00366C  0EF5               	movlw	low _lcd_2
  2697   00366E  6E21               	movwf	lcd_8bit_initialize@lcd^0,c
  2698   003670  0E00               	movlw	high _lcd_2
  2699   003672  6E22               	movwf	(lcd_8bit_initialize@lcd+1)^0,c
  2700   003674  EC15  F00F         	call	_lcd_8bit_initialize	;wreg free
  2701   003678  0E59               	movlw	low _keypad1
  2702   00367A  6E19               	movwf	keypad_initialize@_keypad_obj^0,c
  2703   00367C  0E01               	movlw	high _keypad1
  2704   00367E  6E1A               	movwf	(keypad_initialize@_keypad_obj+1)^0,c
  2705   003680  ECAA  F017         	call	_keypad_initialize	;wreg free
  2706   003684  0E73               	movlw	low _relay1
  2707   003686  6E19               	movwf	relay_initialize@_relay^0,c
  2708   003688  0E00               	movlw	high _relay1
  2709   00368A  6E1A               	movwf	(relay_initialize@_relay+1)^0,c
  2710   00368C  EC9C  F019         	call	_relay_initialize	;wreg free
  2711   003690  0E72               	movlw	low _relay2
  2712   003692  6E19               	movwf	relay_initialize@_relay^0,c
  2713   003694  0E00               	movlw	high _relay2
  2714   003696  6E1A               	movwf	(relay_initialize@_relay+1)^0,c
  2715   003698  EC9C  F019         	call	_relay_initialize	;wreg free
  2716   00369C  0E71               	movlw	low _led1
  2717   00369E  6E19               	movwf	led_initialize@led^0,c
  2718   0036A0  0E00               	movlw	high _led1
  2719   0036A2  6E1A               	movwf	(led_initialize@led+1)^0,c
  2720   0036A4  ECD6  F019         	call	_led_initialize	;wreg free
  2721   0036A8  0E70               	movlw	low _led2
  2722   0036AA  6E19               	movwf	led_initialize@led^0,c
  2723   0036AC  0E00               	movlw	high _led2
  2724   0036AE  6E1A               	movwf	(led_initialize@led+1)^0,c
  2725   0036B0  ECD6  F019         	call	_led_initialize	;wreg free
  2726   0036B4  0012               	return		;funcret
  2727   0036B6                     __end_of_ecu_layer_intialize:
  2728                           	callstack 0
  2729                           
  2730 ;; *************** function _usart_model_init *****************
  2731 ;; Defined at:
  2732 ;;		line 105 in file "ECU_Layer/ecu_layer_init.c"
  2733 ;; Parameters:    Size  Location     Type
  2734 ;;		None
  2735 ;; Auto vars:     Size  Location     Type
  2736 ;;		None
  2737 ;; Return value:  Size  Location     Type
  2738 ;;                  1    wreg      void 
  2739 ;; Registers used:
  2740 ;;		wreg, status,2, status,0
  2741 ;; Tracked objects:
  2742 ;;		On entry : 0/0
  2743 ;;		On exit  : 0/0
  2744 ;;		Unchanged: 0/0
  2745 ;; Data sizes:     COMRAM   BANK0   BANK1   BANK2   BANK3   BANK4   BANK5   BANK6   BANK7   BANK8   BANK9  BANK10  BANK1
      +1  BANK12  BANK13  BANK14  BANK15
  2746 ;;      Params:         0       0       0       0       0       0       0       0       0       0       0       0       
      +0       0       0       0       0
  2747 ;;      Locals:         0       0       0       0       0       0       0       0       0       0       0       0       
      +0       0       0       0       0
  2748 ;;      Temps:          0       0       0       0       0       0       0       0       0       0       0       0       
      +0       0       0       0       0
  2749 ;;      Totals:         0       0       0       0       0       0       0       0       0       0       0       0       
      +0       0       0       0       0
  2750 ;;Total ram usage:        0 bytes
  2751 ;; Hardware stack levels used: 1
  2752 ;; Hardware stack levels required when called: 4
  2753 ;; This function calls:
  2754 ;;		Nothing
  2755 ;; This function is called by:
  2756 ;;		_ecu_layer_intialize
  2757 ;; This function uses a non-reentrant model
  2758 ;;
  2759                           
  2760                           	psect	text5
  2761   003750                     __ptext5:
  2762                           	callstack 0
  2763   003750                     _usart_model_init:
  2764                           	callstack 24
  2765   003750                     
  2766                           ;ECU_Layer/ecu_layer_init.c: 107:     usart_obj.baudrate=9600;
  2767   003750  0E25               	movlw	37
  2768   003752  0100               	movlb	0	; () banked
  2769   003754  6FBC               	movwf	(_usart_obj+1)& (0+255),b
  2770   003756  0E80               	movlw	128
  2771   003758  6FBB               	movwf	_usart_obj& (0+255),b
  2772                           
  2773                           ;ECU_Layer/ecu_layer_init.c: 108:     usart_obj.baudrate_gen_config =BAUDRATE_ASYN_8BIT_
      +                          LOW_SPEED;
  2774   00375A  0E00               	movlw	0
  2775   00375C  6FBD               	movwf	(_usart_obj+2)& (0+255),b
  2776   00375E                     
  2777                           ; BSR set to: 0
  2778                           ;ECU_Layer/ecu_layer_init.c: 110:     usart_obj.usart_tx_cfg.usart_tx_enable=1;
  2779   00375E  8BBE               	bsf	(_usart_obj+3)& (0+255),5,b
  2780   003760                     
  2781                           ; BSR set to: 0
  2782                           ;ECU_Layer/ecu_layer_init.c: 111:     usart_obj.usart_tx_cfg.usart_tx_interrupt_enable=0
      +                          ,
  2783   003760  9DBE               	bcf	(_usart_obj+3)& (0+255),6,b
  2784   003762                     
  2785                           ; BSR set to: 0
  2786   003762  9FBE               	bcf	(_usart_obj+3)& (0+255),7,b
  2787   003764                     
  2788                           ; BSR set to: 0
  2789                           ;ECU_Layer/ecu_layer_init.c: 114:     usart_obj.usart_rx_cfg.usart_rx_enable=1;
  2790   003764  8BC0               	bsf	(_usart_obj+5)& (0+255),5,b
  2791   003766                     
  2792                           ; BSR set to: 0
  2793                           ;ECU_Layer/ecu_layer_init.c: 115:     usart_obj.usart_rx_cfg.usart_rx_interrupt_enable=0
      +                          ,
  2794   003766  9DC0               	bcf	(_usart_obj+5)& (0+255),6,b
  2795   003768                     
  2796                           ; BSR set to: 0
  2797   003768  9FC0               	bcf	(_usart_obj+5)& (0+255),7,b
  2798   00376A                     
  2799                           ; BSR set to: 0
  2800                           ;ECU_Layer/ecu_layer_init.c: 118:     usart_obj.EUSART_TxDefaultInterruptHandler = ((voi
      +                          d*)0);
  2801   00376A  0E00               	movlw	0
  2802   00376C  6FC3               	movwf	(_usart_obj+8)& (0+255),b
  2803   00376E  0E00               	movlw	0
  2804   003770  6FC4               	movwf	(_usart_obj+9)& (0+255),b
  2805   003772                     
  2806                           ; BSR set to: 0
  2807                           ;ECU_Layer/ecu_layer_init.c: 119:     usart_obj.EUSART_RxDefaultInterruptHandler = ((voi
      +                          d*)0);
  2808   003772  0E00               	movlw	0
  2809   003774  6FC5               	movwf	(_usart_obj+10)& (0+255),b
  2810   003776  0E00               	movlw	0
  2811   003778  6FC6               	movwf	(_usart_obj+11)& (0+255),b
  2812   00377A                     
  2813                           ; BSR set to: 0
  2814                           ;ECU_Layer/ecu_layer_init.c: 120:     usart_obj.EUSART_FramingErrorHandler = ((void*)0);
  2815   00377A  0E00               	movlw	0
  2816   00377C  6FC7               	movwf	(_usart_obj+12)& (0+255),b
  2817   00377E  0E00               	movlw	0
  2818   003780  6FC8               	movwf	(_usart_obj+13)& (0+255),b
  2819   003782                     
  2820                           ; BSR set to: 0
  2821                           ;ECU_Layer/ecu_layer_init.c: 121:     usart_obj.EUSART_OverrunErrorHandler = ((void*)0);
  2822   003782  0E00               	movlw	0
  2823   003784  6FC9               	movwf	(_usart_obj+14)& (0+255),b
  2824   003786  0E00               	movlw	0
  2825   003788  6FCA               	movwf	(_usart_obj+15)& (0+255),b
  2826   00378A                     
  2827                           ; BSR set to: 0
  2828   00378A  0012               	return		;funcret
  2829   00378C                     __end_of_usart_model_init:
  2830                           	callstack 0
  2831                           
  2832 ;; *************** function _relay_initialize *****************
  2833 ;; Defined at:
  2834 ;;		line 17 in file "ECU_Layer/Relay/ecu_relay.c"
  2835 ;; Parameters:    Size  Location     Type
  2836 ;;  _relay          2   24[COMRAM] PTR const struct .
  2837 ;;		 -> relay2(1), relay1(1), 
  2838 ;; Auto vars:     Size  Location     Type
  2839 ;;  pin_obj         1   27[COMRAM] struct .
  2840 ;;  ret             1    0        unsigned char 
  2841 ;; Return value:  Size  Location     Type
  2842 ;;                  1    wreg      unsigned char 
  2843 ;; Registers used:
  2844 ;;		wreg, fsr2l, fsr2h, status,2, status,0, prodl, prodh, cstack
  2845 ;; Tracked objects:
  2846 ;;		On entry : 0/0
  2847 ;;		On exit  : 0/0
  2848 ;;		Unchanged: 0/0
  2849 ;; Data sizes:     COMRAM   BANK0   BANK1   BANK2   BANK3   BANK4   BANK5   BANK6   BANK7   BANK8   BANK9  BANK10  BANK1
      +1  BANK12  BANK13  BANK14  BANK15
  2850 ;;      Params:         2       0       0       0       0       0       0       0       0       0       0       0       
      +0       0       0       0       0
  2851 ;;      Locals:         1       0       0       0       0       0       0       0       0       0       0       0       
      +0       0       0       0       0
  2852 ;;      Temps:          1       0       0       0       0       0       0       0       0       0       0       0       
      +0       0       0       0       0
  2853 ;;      Totals:         4       0       0       0       0       0       0       0       0       0       0       0       
      +0       0       0       0       0
  2854 ;;Total ram usage:        4 bytes
  2855 ;; Hardware stack levels used: 1
  2856 ;; Hardware stack levels required when called: 6
  2857 ;; This function calls:
  2858 ;;		_gpio_pin_intialize
  2859 ;; This function is called by:
  2860 ;;		_ecu_layer_intialize
  2861 ;; This function uses a non-reentrant model
  2862 ;;
  2863                           
  2864                           	psect	text6
  2865   003338                     __ptext6:
  2866                           	callstack 0
  2867   003338                     _relay_initialize:
  2868                           	callstack 22
  2869   003338                     
  2870                           ;ECU_Layer/Relay/ecu_relay.c: 20:     if(((void*)0)== _relay){
  2871   003338  5019               	movf	relay_initialize@_relay^0,w,c
  2872   00333A  101A               	iorwf	(relay_initialize@_relay+1)^0,w,c
  2873   00333C  A4D8               	btfss	status,2,c
  2874   00333E  EFA3  F019         	goto	u9761
  2875   003342  EFA5  F019         	goto	u9760
  2876   003346                     u9761:
  2877   003346  EFA7  F019         	goto	l362
  2878   00334A                     u9760:
  2879   00334A                     
  2880                           ;ECU_Layer/Relay/ecu_relay.c: 22:     }
  2881   00334A  EFD4  F019         	goto	l10526
  2882   00334E                     l362:
  2883                           
  2884                           ;ECU_Layer/Relay/ecu_relay.c: 24:         pin_config_t pin_obj={.port=_relay->relay_port
      +                          ,.pin=_relay->relay_pin,
  2885   00334E  C05F  F01C         	movff	relay_initialize@F3042,relay_initialize@pin_obj
  2886   003352  C019  FFD9         	movff	relay_initialize@_relay,fsr2l
  2887   003356  C01A  FFDA         	movff	relay_initialize@_relay+1,fsr2h
  2888   00335A  50DF               	movf	223,w,c
  2889   00335C  0B0F               	andlw	15
  2890   00335E  6E1B               	movwf	??_relay_initialize^0,c
  2891   003360  501C               	movf	relay_initialize@pin_obj^0,w,c
  2892   003362  181B               	xorwf	??_relay_initialize^0,w,c
  2893   003364  0BF8               	andlw	-8
  2894   003366  181B               	xorwf	??_relay_initialize^0,w,c
  2895   003368  6E1C               	movwf	relay_initialize@pin_obj^0,c
  2896   00336A  C019  FFD9         	movff	relay_initialize@_relay,fsr2l
  2897   00336E  C01A  FFDA         	movff	relay_initialize@_relay+1,fsr2h
  2898   003372  38DF               	swapf	223,w,c
  2899   003374  0B07               	andlw	7
  2900   003376  6E1B               	movwf	??_relay_initialize^0,c
  2901   003378  461B               	rlncf	??_relay_initialize^0,f,c
  2902   00337A  461B               	rlncf	??_relay_initialize^0,f,c
  2903   00337C  461B               	rlncf	??_relay_initialize^0,f,c
  2904   00337E  501C               	movf	relay_initialize@pin_obj^0,w,c
  2905   003380  181B               	xorwf	??_relay_initialize^0,w,c
  2906   003382  0BC7               	andlw	-57
  2907   003384  181B               	xorwf	??_relay_initialize^0,w,c
  2908   003386  6E1C               	movwf	relay_initialize@pin_obj^0,c
  2909   003388  9C1C               	bcf	relay_initialize@pin_obj^0,6,c
  2910   00338A  C019  FFD9         	movff	relay_initialize@_relay,fsr2l
  2911   00338E  C01A  FFDA         	movff	relay_initialize@_relay+1,fsr2h
  2912   003392  AEDF               	btfss	indf2,7,c
  2913   003394  D002               	bra	u9775
  2914   003396  8E1C               	bsf	relay_initialize@pin_obj^0,7,c
  2915   003398  D001               	bra	u9777
  2916   00339A                     u9775:
  2917   00339A  9E1C               	bcf	relay_initialize@pin_obj^0,7,c
  2918   00339C                     u9777:
  2919   00339C                     
  2920                           ;ECU_Layer/Relay/ecu_relay.c: 26:         gpio_pin_intialize(&pin_obj);
  2921   00339C  0E1C               	movlw	low relay_initialize@pin_obj
  2922   00339E  6E15               	movwf	gpio_pin_intialize@_pin_config^0,c
  2923   0033A0  0E00               	movlw	high relay_initialize@pin_obj
  2924   0033A2  6E16               	movwf	(gpio_pin_intialize@_pin_config+1)^0,c
  2925   0033A4  ECF0  F01A         	call	_gpio_pin_intialize	;wreg free
  2926   0033A8                     l10526:
  2927                           
  2928                           ;ECU_Layer/Relay/ecu_relay.c: 31:     return ret;
  2929   0033A8  0E01               	movlw	1
  2930   0033AA  0012               	return		;funcret
  2931   0033AC                     __end_of_relay_initialize:
  2932                           	callstack 0
  2933                           
  2934 ;; *************** function _led_initialize *****************
  2935 ;; Defined at:
  2936 ;;		line 15 in file "ECU_Layer/LED/ecu_led.c"
  2937 ;; Parameters:    Size  Location     Type
  2938 ;;  led             2   24[COMRAM] PTR const struct .
  2939 ;;		 -> led2(1), led1(1), 
  2940 ;; Auto vars:     Size  Location     Type
  2941 ;;  pin_obj         1   27[COMRAM] struct .
  2942 ;;  ret             1    0        unsigned char 
  2943 ;; Return value:  Size  Location     Type
  2944 ;;                  1    wreg      unsigned char 
  2945 ;; Registers used:
  2946 ;;		wreg, fsr2l, fsr2h, status,2, status,0, prodl, prodh, cstack
  2947 ;; Tracked objects:
  2948 ;;		On entry : 0/0
  2949 ;;		On exit  : 0/0
  2950 ;;		Unchanged: 0/0
  2951 ;; Data sizes:     COMRAM   BANK0   BANK1   BANK2   BANK3   BANK4   BANK5   BANK6   BANK7   BANK8   BANK9  BANK10  BANK1
      +1  BANK12  BANK13  BANK14  BANK15
  2952 ;;      Params:         2       0       0       0       0       0       0       0       0       0       0       0       
      +0       0       0       0       0
  2953 ;;      Locals:         1       0       0       0       0       0       0       0       0       0       0       0       
      +0       0       0       0       0
  2954 ;;      Temps:          1       0       0       0       0       0       0       0       0       0       0       0       
      +0       0       0       0       0
  2955 ;;      Totals:         4       0       0       0       0       0       0       0       0       0       0       0       
      +0       0       0       0       0
  2956 ;;Total ram usage:        4 bytes
  2957 ;; Hardware stack levels used: 1
  2958 ;; Hardware stack levels required when called: 6
  2959 ;; This function calls:
  2960 ;;		_gpio_pin_intialize
  2961 ;; This function is called by:
  2962 ;;		_ecu_layer_intialize
  2963 ;; This function uses a non-reentrant model
  2964 ;;
  2965                           
  2966                           	psect	text7
  2967   0033AC                     __ptext7:
  2968                           	callstack 0
  2969   0033AC                     _led_initialize:
  2970                           	callstack 22
  2971   0033AC                     
  2972                           ;ECU_Layer/LED/ecu_led.c: 18:     if(((void*)0)== led){
  2973   0033AC  5019               	movf	led_initialize@led^0,w,c
  2974   0033AE  101A               	iorwf	(led_initialize@led+1)^0,w,c
  2975   0033B0  A4D8               	btfss	status,2,c
  2976   0033B2  EFDD  F019         	goto	u9591
  2977   0033B6  EFDF  F019         	goto	u9590
  2978   0033BA                     u9591:
  2979   0033BA  EFE1  F019         	goto	l291
  2980   0033BE                     u9590:
  2981   0033BE                     
  2982                           ;ECU_Layer/LED/ecu_led.c: 20:     }
  2983   0033BE  EF0E  F01A         	goto	l10434
  2984   0033C2                     l291:
  2985                           
  2986                           ;ECU_Layer/LED/ecu_led.c: 22:         pin_config_t pin_obj ={ .port=led->port_name,.pin=
      +                          led->pin ,
  2987   0033C2  C064  F01C         	movff	led_initialize@F3048,led_initialize@pin_obj
  2988   0033C6  C019  FFD9         	movff	led_initialize@led,fsr2l
  2989   0033CA  C01A  FFDA         	movff	led_initialize@led+1,fsr2h
  2990   0033CE  50DF               	movf	223,w,c
  2991   0033D0  0B0F               	andlw	15
  2992   0033D2  6E1B               	movwf	??_led_initialize^0,c
  2993   0033D4  501C               	movf	led_initialize@pin_obj^0,w,c
  2994   0033D6  181B               	xorwf	??_led_initialize^0,w,c
  2995   0033D8  0BF8               	andlw	-8
  2996   0033DA  181B               	xorwf	??_led_initialize^0,w,c
  2997   0033DC  6E1C               	movwf	led_initialize@pin_obj^0,c
  2998   0033DE  C019  FFD9         	movff	led_initialize@led,fsr2l
  2999   0033E2  C01A  FFDA         	movff	led_initialize@led+1,fsr2h
  3000   0033E6  38DF               	swapf	223,w,c
  3001   0033E8  0B07               	andlw	7
  3002   0033EA  6E1B               	movwf	??_led_initialize^0,c
  3003   0033EC  461B               	rlncf	??_led_initialize^0,f,c
  3004   0033EE  461B               	rlncf	??_led_initialize^0,f,c
  3005   0033F0  461B               	rlncf	??_led_initialize^0,f,c
  3006   0033F2  501C               	movf	led_initialize@pin_obj^0,w,c
  3007   0033F4  181B               	xorwf	??_led_initialize^0,w,c
  3008   0033F6  0BC7               	andlw	-57
  3009   0033F8  181B               	xorwf	??_led_initialize^0,w,c
  3010   0033FA  6E1C               	movwf	led_initialize@pin_obj^0,c
  3011   0033FC  9C1C               	bcf	led_initialize@pin_obj^0,6,c
  3012   0033FE  C019  FFD9         	movff	led_initialize@led,fsr2l
  3013   003402  C01A  FFDA         	movff	led_initialize@led+1,fsr2h
  3014   003406  AEDF               	btfss	indf2,7,c
  3015   003408  D002               	bra	u9605
  3016   00340A  8E1C               	bsf	led_initialize@pin_obj^0,7,c
  3017   00340C  D001               	bra	u9607
  3018   00340E                     u9605:
  3019   00340E  9E1C               	bcf	led_initialize@pin_obj^0,7,c
  3020   003410                     u9607:
  3021   003410                     
  3022                           ;ECU_Layer/LED/ecu_led.c: 24:         gpio_pin_intialize(&pin_obj);
  3023   003410  0E1C               	movlw	low led_initialize@pin_obj
  3024   003412  6E15               	movwf	gpio_pin_intialize@_pin_config^0,c
  3025   003414  0E00               	movlw	high led_initialize@pin_obj
  3026   003416  6E16               	movwf	(gpio_pin_intialize@_pin_config+1)^0,c
  3027   003418  ECF0  F01A         	call	_gpio_pin_intialize	;wreg free
  3028   00341C                     l10434:
  3029                           
  3030                           ;ECU_Layer/LED/ecu_led.c: 28:     return ret;
  3031   00341C  0E01               	movlw	1
  3032   00341E  0012               	return		;funcret
  3033   003420                     __end_of_led_initialize:
  3034                           	callstack 0
  3035                           
  3036 ;; *************** function _lcd_8bit_initialize *****************
  3037 ;; Defined at:
  3038 ;;		line 160 in file "ECU_Layer/Chr_LCD/ecu_chr_lcd.c"
  3039 ;; Parameters:    Size  Location     Type
  3040 ;;  lcd             2   32[COMRAM] PTR const struct .
  3041 ;;		 -> lcd_2(10), 
  3042 ;; Auto vars:     Size  Location     Type
  3043 ;;  ret             1   37[COMRAM] unsigned char 
  3044 ;;  l_data_pins_    1   36[COMRAM] unsigned char 
  3045 ;; Return value:  Size  Location     Type
  3046 ;;                  1    wreg      unsigned char 
  3047 ;; Registers used:
  3048 ;;		wreg, fsr2l, fsr2h, status,2, status,0, prodl, prodh, cstack
  3049 ;; Tracked objects:
  3050 ;;		On entry : 0/0
  3051 ;;		On exit  : 0/0
  3052 ;;		Unchanged: 0/0
  3053 ;; Data sizes:     COMRAM   BANK0   BANK1   BANK2   BANK3   BANK4   BANK5   BANK6   BANK7   BANK8   BANK9  BANK10  BANK1
      +1  BANK12  BANK13  BANK14  BANK15
  3054 ;;      Params:         2       0       0       0       0       0       0       0       0       0       0       0       
      +0       0       0       0       0
  3055 ;;      Locals:         2       0       0       0       0       0       0       0       0       0       0       0       
      +0       0       0       0       0
  3056 ;;      Temps:          2       0       0       0       0       0       0       0       0       0       0       0       
      +0       0       0       0       0
  3057 ;;      Totals:         6       0       0       0       0       0       0       0       0       0       0       0       
      +0       0       0       0       0
  3058 ;;Total ram usage:        6 bytes
  3059 ;; Hardware stack levels used: 1
  3060 ;; Hardware stack levels required when called: 7
  3061 ;; This function calls:
  3062 ;;		_gpio_pin_intialize
  3063 ;;		_lcd_8bit_send_command
  3064 ;; This function is called by:
  3065 ;;		_ecu_layer_intialize
  3066 ;; This function uses a non-reentrant model
  3067 ;;
  3068                           
  3069                           	psect	text8
  3070   001E2A                     __ptext8:
  3071                           	callstack 0
  3072   001E2A                     _lcd_8bit_initialize:
  3073                           	callstack 21
  3074   001E2A                     
  3075                           ;ECU_Layer/Chr_LCD/ecu_chr_lcd.c: 162:     uint8 l_data_pins_counter= 0;
  3076   001E2A  0E00               	movlw	0
  3077   001E2C  6E25               	movwf	lcd_8bit_initialize@l_data_pins_counter^0,c
  3078   001E2E                     
  3079                           ;ECU_Layer/Chr_LCD/ecu_chr_lcd.c: 163:     if(((void*)0) == lcd){
  3080   001E2E  5021               	movf	lcd_8bit_initialize@lcd^0,w,c
  3081   001E30  1022               	iorwf	(lcd_8bit_initialize@lcd+1)^0,w,c
  3082   001E32  A4D8               	btfss	status,2,c
  3083   001E34  EF1E  F00F         	goto	u9431
  3084   001E38  EF20  F00F         	goto	u9430
  3085   001E3C                     u9431:
  3086   001E3C  EF24  F00F         	goto	l10274
  3087   001E40                     u9430:
  3088   001E40                     
  3089                           ;ECU_Layer/Chr_LCD/ecu_chr_lcd.c: 164:         ret=(Std_ReturnType)0x01;
  3090   001E40  0E01               	movlw	1
  3091   001E42  6E26               	movwf	lcd_8bit_initialize@ret^0,c
  3092                           
  3093                           ;ECU_Layer/Chr_LCD/ecu_chr_lcd.c: 165:     }
  3094   001E44  EFA9  F00F         	goto	l10310
  3095   001E48                     l10274:
  3096                           
  3097                           ;ECU_Layer/Chr_LCD/ecu_chr_lcd.c: 167:         ret=gpio_pin_intialize(&(lcd->lcd_rs));
  3098   001E48  C021  F015         	movff	lcd_8bit_initialize@lcd,gpio_pin_intialize@_pin_config
  3099   001E4C  C022  F016         	movff	lcd_8bit_initialize@lcd+1,gpio_pin_intialize@_pin_config+1
  3100   001E50  ECF0  F01A         	call	_gpio_pin_intialize	;wreg free
  3101   001E54  6E26               	movwf	lcd_8bit_initialize@ret^0,c
  3102                           
  3103                           ;ECU_Layer/Chr_LCD/ecu_chr_lcd.c: 168:         ret=gpio_pin_intialize(&(lcd->lcd_en));
  3104   001E56  0E01               	movlw	1
  3105   001E58  2421               	addwf	lcd_8bit_initialize@lcd^0,w,c
  3106   001E5A  6E15               	movwf	gpio_pin_intialize@_pin_config^0,c
  3107   001E5C  0E00               	movlw	0
  3108   001E5E  2022               	addwfc	(lcd_8bit_initialize@lcd+1)^0,w,c
  3109   001E60  6E16               	movwf	(gpio_pin_intialize@_pin_config+1)^0,c
  3110   001E62  ECF0  F01A         	call	_gpio_pin_intialize	;wreg free
  3111   001E66  6E26               	movwf	lcd_8bit_initialize@ret^0,c
  3112   001E68                     
  3113                           ;ECU_Layer/Chr_LCD/ecu_chr_lcd.c: 170:         for(l_data_pins_counter=0;l_data_pins_cou
      +                          nter<8;++l_data_pins_counter){
  3114   001E68  0E00               	movlw	0
  3115   001E6A  6E25               	movwf	lcd_8bit_initialize@l_data_pins_counter^0,c
  3116   001E6C                     l10282:
  3117   001E6C  5025               	movf	lcd_8bit_initialize@l_data_pins_counter^0,w,c
  3118   001E6E  2421               	addwf	lcd_8bit_initialize@lcd^0,w,c
  3119   001E70  6E23               	movwf	??_lcd_8bit_initialize^0,c
  3120   001E72  0E00               	movlw	0
  3121   001E74  2022               	addwfc	(lcd_8bit_initialize@lcd+1)^0,w,c
  3122   001E76  6E24               	movwf	(??_lcd_8bit_initialize+1)^0,c
  3123   001E78  0E02               	movlw	2
  3124   001E7A  2423               	addwf	??_lcd_8bit_initialize^0,w,c
  3125   001E7C  6E15               	movwf	gpio_pin_intialize@_pin_config^0,c
  3126   001E7E  0E00               	movlw	0
  3127   001E80  2024               	addwfc	(??_lcd_8bit_initialize+1)^0,w,c
  3128   001E82  6E16               	movwf	(gpio_pin_intialize@_pin_config+1)^0,c
  3129   001E84  ECF0  F01A         	call	_gpio_pin_intialize	;wreg free
  3130   001E88                     
  3131                           ;ECU_Layer/Chr_LCD/ecu_chr_lcd.c: 173:         }
  3132   001E88  2A25               	incf	lcd_8bit_initialize@l_data_pins_counter^0,f,c
  3133   001E8A  0E07               	movlw	7
  3134   001E8C  6425               	cpfsgt	lcd_8bit_initialize@l_data_pins_counter^0,c
  3135   001E8E  EF4B  F00F         	goto	u9441
  3136   001E92  EF4D  F00F         	goto	u9440
  3137   001E96                     u9441:
  3138   001E96  EF36  F00F         	goto	l10282
  3139   001E9A                     u9440:
  3140   001E9A                     
  3141                           ;ECU_Layer/Chr_LCD/ecu_chr_lcd.c: 176:          _delay((unsigned long)((20)*(4000000UL/4
      +                          000.0)));
  3142   001E9A  0E1A               	movlw	26
  3143   001E9C  6E23               	movwf	??_lcd_8bit_initialize^0,c
  3144   001E9E  0EF8               	movlw	248
  3145   001EA0                     u10767:
  3146   001EA0  2EE8               	decfsz	wreg,f,c
  3147   001EA2  D7FE               	bra	u10767
  3148   001EA4  2E23               	decfsz	??_lcd_8bit_initialize^0,f,c
  3149   001EA6  D7FC               	bra	u10767
  3150   001EA8  D000               	nop2	
  3151   001EAA  C021  F018         	movff	lcd_8bit_initialize@lcd,lcd_8bit_send_command@lcd
  3152   001EAE  C022  F019         	movff	lcd_8bit_initialize@lcd+1,lcd_8bit_send_command@lcd+1
  3153   001EB2  0E38               	movlw	56
  3154   001EB4  6E1A               	movwf	lcd_8bit_send_command@command^0,c
  3155   001EB6  ECD3  F016         	call	_lcd_8bit_send_command	;wreg free
  3156   001EBA                     
  3157                           ;ECU_Layer/Chr_LCD/ecu_chr_lcd.c: 179:         _delay((unsigned long)((5)*(4000000UL/400
      +                          0.0)));
  3158   001EBA  0E07               	movlw	7
  3159   001EBC  6E23               	movwf	??_lcd_8bit_initialize^0,c
  3160   001EBE  0E7D               	movlw	125
  3161   001EC0                     u10777:
  3162   001EC0  2EE8               	decfsz	wreg,f,c
  3163   001EC2  D7FE               	bra	u10777
  3164   001EC4  2E23               	decfsz	??_lcd_8bit_initialize^0,f,c
  3165   001EC6  D7FC               	bra	u10777
  3166   001EC8  F000               	nop	
  3167   001ECA  C021  F018         	movff	lcd_8bit_initialize@lcd,lcd_8bit_send_command@lcd
  3168   001ECE  C022  F019         	movff	lcd_8bit_initialize@lcd+1,lcd_8bit_send_command@lcd+1
  3169   001ED2  0E38               	movlw	56
  3170   001ED4  6E1A               	movwf	lcd_8bit_send_command@command^0,c
  3171   001ED6  ECD3  F016         	call	_lcd_8bit_send_command	;wreg free
  3172   001EDA                     
  3173                           ;ECU_Layer/Chr_LCD/ecu_chr_lcd.c: 182:          _delay((unsigned long)((150)*(4000000UL/
      +                          4000000.0)));
  3174   001EDA  0E32               	movlw	50
  3175   001EDC                     u10787:
  3176   001EDC  2EE8               	decfsz	wreg,f,c
  3177   001EDE  D7FE               	bra	u10787
  3178   001EE0  C021  F018         	movff	lcd_8bit_initialize@lcd,lcd_8bit_send_command@lcd
  3179   001EE4  C022  F019         	movff	lcd_8bit_initialize@lcd+1,lcd_8bit_send_command@lcd+1
  3180   001EE8  0E38               	movlw	56
  3181   001EEA  6E1A               	movwf	lcd_8bit_send_command@command^0,c
  3182   001EEC  ECD3  F016         	call	_lcd_8bit_send_command	;wreg free
  3183   001EF0  C021  F018         	movff	lcd_8bit_initialize@lcd,lcd_8bit_send_command@lcd
  3184   001EF4  C022  F019         	movff	lcd_8bit_initialize@lcd+1,lcd_8bit_send_command@lcd+1
  3185   001EF8  0E01               	movlw	1
  3186   001EFA  6E1A               	movwf	lcd_8bit_send_command@command^0,c
  3187   001EFC  ECD3  F016         	call	_lcd_8bit_send_command	;wreg free
  3188   001F00  C021  F018         	movff	lcd_8bit_initialize@lcd,lcd_8bit_send_command@lcd
  3189   001F04  C022  F019         	movff	lcd_8bit_initialize@lcd+1,lcd_8bit_send_command@lcd+1
  3190   001F08  0E02               	movlw	2
  3191   001F0A  6E1A               	movwf	lcd_8bit_send_command@command^0,c
  3192   001F0C  ECD3  F016         	call	_lcd_8bit_send_command	;wreg free
  3193   001F10  C021  F018         	movff	lcd_8bit_initialize@lcd,lcd_8bit_send_command@lcd
  3194   001F14  C022  F019         	movff	lcd_8bit_initialize@lcd+1,lcd_8bit_send_command@lcd+1
  3195   001F18  0E06               	movlw	6
  3196   001F1A  6E1A               	movwf	lcd_8bit_send_command@command^0,c
  3197   001F1C  ECD3  F016         	call	_lcd_8bit_send_command	;wreg free
  3198   001F20  C021  F018         	movff	lcd_8bit_initialize@lcd,lcd_8bit_send_command@lcd
  3199   001F24  C022  F019         	movff	lcd_8bit_initialize@lcd+1,lcd_8bit_send_command@lcd+1
  3200   001F28  0E0C               	movlw	12
  3201   001F2A  6E1A               	movwf	lcd_8bit_send_command@command^0,c
  3202   001F2C  ECD3  F016         	call	_lcd_8bit_send_command	;wreg free
  3203   001F30  C021  F018         	movff	lcd_8bit_initialize@lcd,lcd_8bit_send_command@lcd
  3204   001F34  C022  F019         	movff	lcd_8bit_initialize@lcd+1,lcd_8bit_send_command@lcd+1
  3205   001F38  0E38               	movlw	56
  3206   001F3A  6E1A               	movwf	lcd_8bit_send_command@command^0,c
  3207   001F3C  ECD3  F016         	call	_lcd_8bit_send_command	;wreg free
  3208   001F40                     
  3209                           ;ECU_Layer/Chr_LCD/ecu_chr_lcd.c: 191:         ret=lcd_8bit_send_command(lcd,0x80);
  3210   001F40  C021  F018         	movff	lcd_8bit_initialize@lcd,lcd_8bit_send_command@lcd
  3211   001F44  C022  F019         	movff	lcd_8bit_initialize@lcd+1,lcd_8bit_send_command@lcd+1
  3212   001F48  0E80               	movlw	128
  3213   001F4A  6E1A               	movwf	lcd_8bit_send_command@command^0,c
  3214   001F4C  ECD3  F016         	call	_lcd_8bit_send_command	;wreg free
  3215   001F50  6E26               	movwf	lcd_8bit_initialize@ret^0,c
  3216   001F52                     l10310:
  3217                           
  3218                           ;ECU_Layer/Chr_LCD/ecu_chr_lcd.c: 196:     return ret;
  3219   001F52  5026               	movf	lcd_8bit_initialize@ret^0,w,c
  3220   001F54  0012               	return		;funcret
  3221   001F56                     __end_of_lcd_8bit_initialize:
  3222                           	callstack 0
  3223                           
  3224 ;; *************** function _keypad_initialize *****************
  3225 ;; Defined at:
  3226 ;;		line 24 in file "ECU_Layer/Keypad/ecu_keypad.c"
  3227 ;; Parameters:    Size  Location     Type
  3228 ;;  _keypad_obj     2   24[COMRAM] PTR const struct .
  3229 ;;		 -> keypad1(8), 
  3230 ;; Auto vars:     Size  Location     Type
  3231 ;;  coulmns_coun    1   30[COMRAM] unsigned char 
  3232 ;;  rows_counter    1   29[COMRAM] unsigned char 
  3233 ;;  ret             1   28[COMRAM] unsigned char 
  3234 ;; Return value:  Size  Location     Type
  3235 ;;                  1    wreg      unsigned char 
  3236 ;; Registers used:
  3237 ;;		wreg, fsr2l, fsr2h, status,2, status,0, prodl, prodh, cstack
  3238 ;; Tracked objects:
  3239 ;;		On entry : 0/0
  3240 ;;		On exit  : 0/0
  3241 ;;		Unchanged: 0/0
  3242 ;; Data sizes:     COMRAM   BANK0   BANK1   BANK2   BANK3   BANK4   BANK5   BANK6   BANK7   BANK8   BANK9  BANK10  BANK1
      +1  BANK12  BANK13  BANK14  BANK15
  3243 ;;      Params:         2       0       0       0       0       0       0       0       0       0       0       0       
      +0       0       0       0       0
  3244 ;;      Locals:         3       0       0       0       0       0       0       0       0       0       0       0       
      +0       0       0       0       0
  3245 ;;      Temps:          2       0       0       0       0       0       0       0       0       0       0       0       
      +0       0       0       0       0
  3246 ;;      Totals:         7       0       0       0       0       0       0       0       0       0       0       0       
      +0       0       0       0       0
  3247 ;;Total ram usage:        7 bytes
  3248 ;; Hardware stack levels used: 1
  3249 ;; Hardware stack levels required when called: 6
  3250 ;; This function calls:
  3251 ;;		_gpio_pin_direction_intialize
  3252 ;;		_gpio_pin_intialize
  3253 ;; This function is called by:
  3254 ;;		_ecu_layer_intialize
  3255 ;; This function uses a non-reentrant model
  3256 ;;
  3257                           
  3258                           	psect	text9
  3259   002F54                     __ptext9:
  3260                           	callstack 0
  3261   002F54                     _keypad_initialize:
  3262                           	callstack 22
  3263   002F54                     
  3264                           ;ECU_Layer/Keypad/ecu_keypad.c: 26:     uint8 rows_counter=0,coulmns_counter=0;
  3265   002F54  0E00               	movlw	0
  3266   002F56  6E1E               	movwf	keypad_initialize@rows_counter^0,c
  3267   002F58  0E00               	movlw	0
  3268   002F5A  6E1F               	movwf	keypad_initialize@coulmns_counter^0,c
  3269   002F5C                     
  3270                           ;ECU_Layer/Keypad/ecu_keypad.c: 27:     if(((void*)0) == _keypad_obj){
  3271   002F5C  5019               	movf	keypad_initialize@_keypad_obj^0,w,c
  3272   002F5E  101A               	iorwf	(keypad_initialize@_keypad_obj+1)^0,w,c
  3273   002F60  A4D8               	btfss	status,2,c
  3274   002F62  EFB5  F017         	goto	u9501
  3275   002F66  EFB7  F017         	goto	u9500
  3276   002F6A                     u9501:
  3277   002F6A  EFBB  F017         	goto	l10340
  3278   002F6E                     u9500:
  3279   002F6E                     
  3280                           ;ECU_Layer/Keypad/ecu_keypad.c: 28:         ret=(Std_ReturnType)0x01;
  3281   002F6E  0E01               	movlw	1
  3282   002F70  6E1D               	movwf	keypad_initialize@ret^0,c
  3283                           
  3284                           ;ECU_Layer/Keypad/ecu_keypad.c: 29:     }
  3285   002F72  EFE8  F017         	goto	l10364
  3286   002F76                     l10340:
  3287                           
  3288                           ;ECU_Layer/Keypad/ecu_keypad.c: 31:         for(rows_counter=0;rows_counter < 4;rows_cou
      +                          nter++){
  3289   002F76  0E00               	movlw	0
  3290   002F78  6E1E               	movwf	keypad_initialize@rows_counter^0,c
  3291   002F7A                     l10346:
  3292   002F7A  501E               	movf	keypad_initialize@rows_counter^0,w,c
  3293   002F7C  2419               	addwf	keypad_initialize@_keypad_obj^0,w,c
  3294   002F7E  6E15               	movwf	gpio_pin_intialize@_pin_config^0,c
  3295   002F80  0E00               	movlw	0
  3296   002F82  201A               	addwfc	(keypad_initialize@_keypad_obj+1)^0,w,c
  3297   002F84  6E16               	movwf	(gpio_pin_intialize@_pin_config+1)^0,c
  3298   002F86  ECF0  F01A         	call	_gpio_pin_intialize	;wreg free
  3299   002F8A                     
  3300                           ;ECU_Layer/Keypad/ecu_keypad.c: 33:         }
  3301   002F8A  2A1E               	incf	keypad_initialize@rows_counter^0,f,c
  3302   002F8C  0E03               	movlw	3
  3303   002F8E  641E               	cpfsgt	keypad_initialize@rows_counter^0,c
  3304   002F90  EFCC  F017         	goto	u9511
  3305   002F94  EFCE  F017         	goto	u9510
  3306   002F98                     u9511:
  3307   002F98  EFBD  F017         	goto	l10346
  3308   002F9C                     u9510:
  3309   002F9C                     
  3310                           ;ECU_Layer/Keypad/ecu_keypad.c: 34:         for(coulmns_counter=0;coulmns_counter < 4;co
      +                          ulmns_counter++){
  3311   002F9C  0E00               	movlw	0
  3312   002F9E  6E1F               	movwf	keypad_initialize@coulmns_counter^0,c
  3313   002FA0                     l10358:
  3314                           
  3315                           ;ECU_Layer/Keypad/ecu_keypad.c: 35:             ret=gpio_pin_direction_intialize(&(_keyp
      +                          ad_obj->keypad_coulmn_pins[coulmns_counter]));
  3316   002FA0  501F               	movf	keypad_initialize@coulmns_counter^0,w,c
  3317   002FA2  2419               	addwf	keypad_initialize@_keypad_obj^0,w,c
  3318   002FA4  6E1B               	movwf	??_keypad_initialize^0,c
  3319   002FA6  0E00               	movlw	0
  3320   002FA8  201A               	addwfc	(keypad_initialize@_keypad_obj+1)^0,w,c
  3321   002FAA  6E1C               	movwf	(??_keypad_initialize+1)^0,c
  3322   002FAC  0E04               	movlw	4
  3323   002FAE  241B               	addwf	??_keypad_initialize^0,w,c
  3324   002FB0  6E0C               	movwf	gpio_pin_direction_intialize@_pin_config^0,c
  3325   002FB2  0E00               	movlw	0
  3326   002FB4  201C               	addwfc	(??_keypad_initialize+1)^0,w,c
  3327   002FB6  6E0D               	movwf	(gpio_pin_direction_intialize@_pin_config+1)^0,c
  3328   002FB8  EC77  F00E         	call	_gpio_pin_direction_intialize	;wreg free
  3329   002FBC  6E1D               	movwf	keypad_initialize@ret^0,c
  3330   002FBE                     
  3331                           ;ECU_Layer/Keypad/ecu_keypad.c: 36:         }
  3332   002FBE  2A1F               	incf	keypad_initialize@coulmns_counter^0,f,c
  3333   002FC0  0E03               	movlw	3
  3334   002FC2  641F               	cpfsgt	keypad_initialize@coulmns_counter^0,c
  3335   002FC4  EFE6  F017         	goto	u9521
  3336   002FC8  EFE8  F017         	goto	u9520
  3337   002FCC                     u9521:
  3338   002FCC  EFD0  F017         	goto	l10358
  3339   002FD0                     u9520:
  3340   002FD0                     l10364:
  3341                           
  3342                           ;ECU_Layer/Keypad/ecu_keypad.c: 42:     return ret;
  3343   002FD0  501D               	movf	keypad_initialize@ret^0,w,c
  3344   002FD2  0012               	return		;funcret
  3345   002FD4                     __end_of_keypad_initialize:
  3346                           	callstack 0
  3347                           
  3348 ;; *************** function _MSSP_I2C_Init *****************
  3349 ;; Defined at:
  3350 ;;		line 17 in file "MCAL_Layer/I2C/hal_i2c.c"
  3351 ;; Parameters:    Size  Location     Type
  3352 ;;  i2c_obj         2   80[COMRAM] PTR const struct .
  3353 ;;		 -> i2c_obj(5), 
  3354 ;; Auto vars:     Size  Location     Type
  3355 ;;  ret             1    0        unsigned char 
  3356 ;; Return value:  Size  Location     Type
  3357 ;;                  1    wreg      unsigned char 
  3358 ;; Registers used:
  3359 ;;		wreg, fsr2l, fsr2h, status,2, status,0, cstack
  3360 ;; Tracked objects:
  3361 ;;		On entry : 0/0
  3362 ;;		On exit  : 0/0
  3363 ;;		Unchanged: 0/0
  3364 ;; Data sizes:     COMRAM   BANK0   BANK1   BANK2   BANK3   BANK4   BANK5   BANK6   BANK7   BANK8   BANK9  BANK10  BANK1
      +1  BANK12  BANK13  BANK14  BANK15
  3365 ;;      Params:         2       0       0       0       0       0       0       0       0       0       0       0       
      +0       0       0       0       0
  3366 ;;      Locals:         0       0       0       0       0       0       0       0       0       0       0       0       
      +0       0       0       0       0
  3367 ;;      Temps:          1       0       0       0       0       0       0       0       0       0       0       0       
      +0       0       0       0       0
  3368 ;;      Totals:         3       0       0       0       0       0       0       0       0       0       0       0       
      +0       0       0       0       0
  3369 ;;Total ram usage:        3 bytes
  3370 ;; Hardware stack levels used: 1
  3371 ;; Hardware stack levels required when called: 6
  3372 ;; This function calls:
  3373 ;;		_MSSP_I2C_MODE_GPIO_CFG
  3374 ;;		_MSSP_I2C_Master_Mode_Clock_CFG
  3375 ;; This function is called by:
  3376 ;;		_ecu_layer_intialize
  3377 ;; This function uses a non-reentrant model
  3378 ;;
  3379                           
  3380                           	psect	text10
  3381   001A60                     __ptext10:
  3382                           	callstack 0
  3383   001A60                     _MSSP_I2C_Init:
  3384                           	callstack 22
  3385   001A60                     
  3386                           ;MCAL_Layer/I2C/hal_i2c.c: 20:     if(((void*)0) == i2c_obj){
  3387   001A60  5051               	movf	MSSP_I2C_Init@i2c_obj^0,w,c
  3388   001A62  1052               	iorwf	(MSSP_I2C_Init@i2c_obj+1)^0,w,c
  3389   001A64  A4D8               	btfss	status,2,c
  3390   001A66  EF37  F00D         	goto	u9801
  3391   001A6A  EF39  F00D         	goto	u9800
  3392   001A6E                     u9801:
  3393   001A6E  EF3B  F00D         	goto	l910
  3394   001A72                     u9800:
  3395   001A72                     l10632:
  3396                           
  3397                           ;MCAL_Layer/I2C/hal_i2c.c: 22:     }
  3398   001A72  EFD5  F00D         	goto	l911
  3399   001A76                     l910:
  3400                           
  3401                           ;MCAL_Layer/I2C/hal_i2c.c: 25:         (SSPCON1bits.SSPEN=0);
  3402   001A76  9AC6               	bcf	198,5,c	;volatile
  3403   001A78                     
  3404                           ;MCAL_Layer/I2C/hal_i2c.c: 27:         if(1 == i2c_obj->i2c_cfg.i2c_mode){
  3405   001A78  EE20 F004          	lfsr	2,4
  3406   001A7C  5051               	movf	MSSP_I2C_Init@i2c_obj^0,w,c
  3407   001A7E  26D9               	addwf	fsr2l,f,c
  3408   001A80  5052               	movf	(MSSP_I2C_Init@i2c_obj+1)^0,w,c
  3409   001A82  22DA               	addwfc	fsr2h,f,c
  3410   001A84  A0DF               	btfss	indf2,0,c
  3411   001A86  EF47  F00D         	goto	u9811
  3412   001A8A  EF49  F00D         	goto	u9810
  3413   001A8E                     u9811:
  3414   001A8E  EF51  F00D         	goto	l10638
  3415   001A92                     u9810:
  3416   001A92                     
  3417                           ;MCAL_Layer/I2C/hal_i2c.c: 29:             MSSP_I2C_Master_Mode_Clock_CFG(i2c_obj);
  3418   001A92  C051  F04D         	movff	MSSP_I2C_Init@i2c_obj,MSSP_I2C_Master_Mode_Clock_CFG@i2c_obj
  3419   001A96  C052  F04E         	movff	MSSP_I2C_Init@i2c_obj+1,MSSP_I2C_Master_Mode_Clock_CFG@i2c_obj+1
  3420   001A9A  EC37  F016         	call	_MSSP_I2C_Master_Mode_Clock_CFG	;wreg free
  3421                           
  3422                           ;MCAL_Layer/I2C/hal_i2c.c: 30:         }
  3423   001A9E  EF94  F00D         	goto	l10650
  3424   001AA2                     l10638:
  3425   001AA2  EE20 F004          	lfsr	2,4
  3426   001AA6  5051               	movf	MSSP_I2C_Init@i2c_obj^0,w,c
  3427   001AA8  26D9               	addwf	fsr2l,f,c
  3428   001AAA  5052               	movf	(MSSP_I2C_Init@i2c_obj+1)^0,w,c
  3429   001AAC  22DA               	addwfc	fsr2h,f,c
  3430   001AAE  B0DF               	btfsc	indf2,0,c
  3431   001AB0  EF5C  F00D         	goto	u9821
  3432   001AB4  EF5E  F00D         	goto	u9820
  3433   001AB8                     u9821:
  3434   001AB8  EF94  F00D         	goto	l10650
  3435   001ABC                     u9820:
  3436   001ABC                     
  3437                           ;MCAL_Layer/I2C/hal_i2c.c: 33:             if(1 == i2c_obj->i2c_cfg.i2c_general_call){
  3438   001ABC  EE20 F004          	lfsr	2,4
  3439   001AC0  5051               	movf	MSSP_I2C_Init@i2c_obj^0,w,c
  3440   001AC2  26D9               	addwf	fsr2l,f,c
  3441   001AC4  5052               	movf	(MSSP_I2C_Init@i2c_obj+1)^0,w,c
  3442   001AC6  22DA               	addwfc	fsr2h,f,c
  3443   001AC8  A6DF               	btfss	indf2,3,c
  3444   001ACA  EF69  F00D         	goto	u9831
  3445   001ACE  EF6B  F00D         	goto	u9830
  3446   001AD2                     u9831:
  3447   001AD2  EF6E  F00D         	goto	l10644
  3448   001AD6                     u9830:
  3449   001AD6                     
  3450                           ;MCAL_Layer/I2C/hal_i2c.c: 34:                 (SSPCON2bits.GCEN=1);
  3451   001AD6  8EC5               	bsf	197,7,c	;volatile
  3452                           
  3453                           ;MCAL_Layer/I2C/hal_i2c.c: 35:             }
  3454   001AD8  EF7C  F00D         	goto	l916
  3455   001ADC                     l10644:
  3456   001ADC  EE20 F004          	lfsr	2,4
  3457   001AE0  5051               	movf	MSSP_I2C_Init@i2c_obj^0,w,c
  3458   001AE2  26D9               	addwf	fsr2l,f,c
  3459   001AE4  5052               	movf	(MSSP_I2C_Init@i2c_obj+1)^0,w,c
  3460   001AE6  22DA               	addwfc	fsr2h,f,c
  3461   001AE8  B6DF               	btfsc	indf2,3,c
  3462   001AEA  EF79  F00D         	goto	u9841
  3463   001AEE  EF7B  F00D         	goto	u9840
  3464   001AF2                     u9841:
  3465   001AF2  EF7C  F00D         	goto	l916
  3466   001AF6                     u9840:
  3467   001AF6                     
  3468                           ;MCAL_Layer/I2C/hal_i2c.c: 37:                 (SSPCON2bits.GCEN=0);
  3469   001AF6  9EC5               	bcf	197,7,c	;volatile
  3470   001AF8                     l916:
  3471                           
  3472                           ;MCAL_Layer/I2C/hal_i2c.c: 41:             SSPCON1bits.WCOL=0;
  3473   001AF8  9EC6               	bcf	198,7,c	;volatile
  3474                           
  3475                           ;MCAL_Layer/I2C/hal_i2c.c: 43:             SSPCON1bits.SSPOV=0;
  3476   001AFA  9CC6               	bcf	198,6,c	;volatile
  3477                           
  3478                           ;MCAL_Layer/I2C/hal_i2c.c: 45:             SSPCON1bits.CKP=1;
  3479   001AFC  88C6               	bsf	198,4,c	;volatile
  3480   001AFE                     
  3481                           ;MCAL_Layer/I2C/hal_i2c.c: 47:             SSPADD=i2c_obj->i2c_cfg.i2c_slave_address;
  3482   001AFE  EE20 F003          	lfsr	2,3
  3483   001B02  5051               	movf	MSSP_I2C_Init@i2c_obj^0,w,c
  3484   001B04  26D9               	addwf	fsr2l,f,c
  3485   001B06  5052               	movf	(MSSP_I2C_Init@i2c_obj+1)^0,w,c
  3486   001B08  22DA               	addwfc	fsr2h,f,c
  3487   001B0A  50DF               	movf	indf2,w,c
  3488   001B0C  6EC8               	movwf	200,c	;volatile
  3489                           
  3490                           ;MCAL_Layer/I2C/hal_i2c.c: 49:             (SSPCON1bits.SSPM=i2c_obj->i2c_cfg.i2c_mode_c
      +                          fg);
  3491   001B0E  EE20 F002          	lfsr	2,2
  3492   001B12  5051               	movf	MSSP_I2C_Init@i2c_obj^0,w,c
  3493   001B14  26D9               	addwf	fsr2l,f,c
  3494   001B16  5052               	movf	(MSSP_I2C_Init@i2c_obj+1)^0,w,c
  3495   001B18  22DA               	addwfc	fsr2h,f,c
  3496   001B1A  50DF               	movf	indf2,w,c
  3497   001B1C  6E53               	movwf	??_MSSP_I2C_Init^0,c
  3498   001B1E  50C6               	movf	198,w,c	;volatile
  3499   001B20  1853               	xorwf	??_MSSP_I2C_Init^0,w,c
  3500   001B22  0BF0               	andlw	-16
  3501   001B24  1853               	xorwf	??_MSSP_I2C_Init^0,w,c
  3502   001B26  6EC6               	movwf	198,c	;volatile
  3503   001B28                     l10650:
  3504                           
  3505                           ;MCAL_Layer/I2C/hal_i2c.c: 53:         MSSP_I2C_MODE_GPIO_CFG();
  3506   001B28  EC8F  F01D         	call	_MSSP_I2C_MODE_GPIO_CFG	;wreg free
  3507   001B2C                     
  3508                           ;MCAL_Layer/I2C/hal_i2c.c: 55:         if(0 == i2c_obj->i2c_cfg.i2c_slew_rate){
  3509   001B2C  EE20 F004          	lfsr	2,4
  3510   001B30  5051               	movf	MSSP_I2C_Init@i2c_obj^0,w,c
  3511   001B32  26D9               	addwf	fsr2l,f,c
  3512   001B34  5052               	movf	(MSSP_I2C_Init@i2c_obj+1)^0,w,c
  3513   001B36  22DA               	addwfc	fsr2h,f,c
  3514   001B38  B2DF               	btfsc	indf2,1,c
  3515   001B3A  EFA1  F00D         	goto	u9851
  3516   001B3E  EFA3  F00D         	goto	u9850
  3517   001B42                     u9851:
  3518   001B42  EFA6  F00D         	goto	l10656
  3519   001B46                     u9850:
  3520   001B46                     
  3521                           ;MCAL_Layer/I2C/hal_i2c.c: 56:             (SSPSTATbits.SMP=0);
  3522   001B46  9EC7               	bcf	199,7,c	;volatile
  3523                           
  3524                           ;MCAL_Layer/I2C/hal_i2c.c: 57:         }
  3525   001B48  EFB4  F00D         	goto	l10660
  3526   001B4C                     l10656:
  3527   001B4C  EE20 F004          	lfsr	2,4
  3528   001B50  5051               	movf	MSSP_I2C_Init@i2c_obj^0,w,c
  3529   001B52  26D9               	addwf	fsr2l,f,c
  3530   001B54  5052               	movf	(MSSP_I2C_Init@i2c_obj+1)^0,w,c
  3531   001B56  22DA               	addwfc	fsr2h,f,c
  3532   001B58  A2DF               	btfss	indf2,1,c
  3533   001B5A  EFB1  F00D         	goto	u9861
  3534   001B5E  EFB3  F00D         	goto	u9860
  3535   001B62                     u9861:
  3536   001B62  EFB4  F00D         	goto	l10660
  3537   001B66                     u9860:
  3538   001B66                     
  3539                           ;MCAL_Layer/I2C/hal_i2c.c: 59:             (SSPSTATbits.SMP=1);
  3540   001B66  8EC7               	bsf	199,7,c	;volatile
  3541   001B68                     l10660:
  3542                           
  3543                           ;MCAL_Layer/I2C/hal_i2c.c: 63:         if(1 == i2c_obj->i2c_cfg.i2c_SMBus_control){
  3544   001B68  EE20 F004          	lfsr	2,4
  3545   001B6C  5051               	movf	MSSP_I2C_Init@i2c_obj^0,w,c
  3546   001B6E  26D9               	addwf	fsr2l,f,c
  3547   001B70  5052               	movf	(MSSP_I2C_Init@i2c_obj+1)^0,w,c
  3548   001B72  22DA               	addwfc	fsr2h,f,c
  3549   001B74  A4DF               	btfss	indf2,2,c
  3550   001B76  EFBF  F00D         	goto	u9871
  3551   001B7A  EFC1  F00D         	goto	u9870
  3552   001B7E                     u9871:
  3553   001B7E  EFC4  F00D         	goto	l10664
  3554   001B82                     u9870:
  3555   001B82                     
  3556                           ;MCAL_Layer/I2C/hal_i2c.c: 64:             (SSPSTATbits.CKE=1);
  3557   001B82  8CC7               	bsf	199,6,c	;volatile
  3558                           
  3559                           ;MCAL_Layer/I2C/hal_i2c.c: 65:         }
  3560   001B84  EFD2  F00D         	goto	l925
  3561   001B88                     l10664:
  3562   001B88  EE20 F004          	lfsr	2,4
  3563   001B8C  5051               	movf	MSSP_I2C_Init@i2c_obj^0,w,c
  3564   001B8E  26D9               	addwf	fsr2l,f,c
  3565   001B90  5052               	movf	(MSSP_I2C_Init@i2c_obj+1)^0,w,c
  3566   001B92  22DA               	addwfc	fsr2h,f,c
  3567   001B94  B4DF               	btfsc	indf2,2,c
  3568   001B96  EFCF  F00D         	goto	u9881
  3569   001B9A  EFD1  F00D         	goto	u9880
  3570   001B9E                     u9881:
  3571   001B9E  EFD2  F00D         	goto	l925
  3572   001BA2                     u9880:
  3573   001BA2                     
  3574                           ;MCAL_Layer/I2C/hal_i2c.c: 67:             (SSPSTATbits.CKE=0);
  3575   001BA2  9CC7               	bcf	199,6,c	;volatile
  3576   001BA4                     l925:
  3577                           
  3578                           ;MCAL_Layer/I2C/hal_i2c.c: 75:         (SSPCON1bits.SSPEN=1);
  3579   001BA4  8AC6               	bsf	198,5,c	;volatile
  3580   001BA6  EF39  F00D         	goto	l10632
  3581   001BAA                     l911:
  3582                           
  3583                           ;MCAL_Layer/I2C/hal_i2c.c: 79:     return ret;
  3584   001BAA  0E01               	movlw	1
  3585   001BAC  0012               	return		;funcret
  3586   001BAE                     __end_of_MSSP_I2C_Init:
  3587                           	callstack 0
  3588                           
  3589 ;; *************** function _MSSP_I2C_Master_Mode_Clock_CFG *****************
  3590 ;; Defined at:
  3591 ;;		line 226 in file "MCAL_Layer/I2C/hal_i2c.c"
  3592 ;; Parameters:    Size  Location     Type
  3593 ;;  i2c_obj         2   76[COMRAM] PTR const struct .
  3594 ;;		 -> i2c_obj(5), 
  3595 ;; Auto vars:     Size  Location     Type
  3596 ;;		None
  3597 ;; Return value:  Size  Location     Type
  3598 ;;                  1    wreg      void 
  3599 ;; Registers used:
  3600 ;;		wreg, fsr2l, fsr2h, status,2, status,0, cstack
  3601 ;; Tracked objects:
  3602 ;;		On entry : 0/0
  3603 ;;		On exit  : 0/0
  3604 ;;		Unchanged: 0/0
  3605 ;; Data sizes:     COMRAM   BANK0   BANK1   BANK2   BANK3   BANK4   BANK5   BANK6   BANK7   BANK8   BANK9  BANK10  BANK1
      +1  BANK12  BANK13  BANK14  BANK15
  3606 ;;      Params:         2       0       0       0       0       0       0       0       0       0       0       0       
      +0       0       0       0       0
  3607 ;;      Locals:         0       0       0       0       0       0       0       0       0       0       0       0       
      +0       0       0       0       0
  3608 ;;      Temps:          2       0       0       0       0       0       0       0       0       0       0       0       
      +0       0       0       0       0
  3609 ;;      Totals:         4       0       0       0       0       0       0       0       0       0       0       0       
      +0       0       0       0       0
  3610 ;;Total ram usage:        4 bytes
  3611 ;; Hardware stack levels used: 1
  3612 ;; Hardware stack levels required when called: 5
  3613 ;; This function calls:
  3614 ;;		___fladd
  3615 ;;		___fldiv
  3616 ;;		___fltol
  3617 ;;		___xxtofl
  3618 ;; This function is called by:
  3619 ;;		_MSSP_I2C_Init
  3620 ;; This function uses a non-reentrant model
  3621 ;;
  3622                           
  3623                           	psect	text11
  3624   002C6E                     __ptext11:
  3625                           	callstack 0
  3626   002C6E                     _MSSP_I2C_Master_Mode_Clock_CFG:
  3627                           	callstack 22
  3628   002C6E                     
  3629                           ;MCAL_Layer/I2C/hal_i2c.c: 227:     (SSPCON1bits.SSPM=i2c_obj->i2c_cfg.i2c_mode_cfg);
  3630   002C6E  EE20 F002          	lfsr	2,2
  3631   002C72  504D               	movf	MSSP_I2C_Master_Mode_Clock_CFG@i2c_obj^0,w,c
  3632   002C74  26D9               	addwf	fsr2l,f,c
  3633   002C76  504E               	movf	(MSSP_I2C_Master_Mode_Clock_CFG@i2c_obj+1)^0,w,c
  3634   002C78  22DA               	addwfc	fsr2h,f,c
  3635   002C7A  50DF               	movf	indf2,w,c
  3636   002C7C  6E4F               	movwf	??_MSSP_I2C_Master_Mode_Clock_CFG^0,c
  3637   002C7E  50C6               	movf	198,w,c	;volatile
  3638   002C80  184F               	xorwf	??_MSSP_I2C_Master_Mode_Clock_CFG^0,w,c
  3639   002C82  0BF0               	andlw	-16
  3640   002C84  184F               	xorwf	??_MSSP_I2C_Master_Mode_Clock_CFG^0,w,c
  3641   002C86  6EC6               	movwf	198,c	;volatile
  3642   002C88                     
  3643                           ;MCAL_Layer/I2C/hal_i2c.c: 228:     SSPADD= (uint8)(((4000000UL/4.0)/i2c_obj->i2c_clock)
      +                           - 1);
  3644   002C88  0E00               	movlw	0
  3645   002C8A  6E37               	movwf	___fladd@a^0,c
  3646   002C8C  0E00               	movlw	0
  3647   002C8E  6E38               	movwf	(___fladd@a+1)^0,c
  3648   002C90  0E80               	movlw	128
  3649   002C92  6E39               	movwf	(___fladd@a+2)^0,c
  3650   002C94  0EBF               	movlw	191
  3651   002C96  6E3A               	movwf	(___fladd@a+3)^0,c
  3652   002C98  C04D  FFD9         	movff	MSSP_I2C_Master_Mode_Clock_CFG@i2c_obj,fsr2l
  3653   002C9C  C04E  FFDA         	movff	MSSP_I2C_Master_Mode_Clock_CFG@i2c_obj+1,fsr2h
  3654   002CA0  CFDE F04F          	movff	postinc2,??_MSSP_I2C_Master_Mode_Clock_CFG
  3655   002CA4  CFDD F050          	movff	postdec2,??_MSSP_I2C_Master_Mode_Clock_CFG+1
  3656   002CA8  C04F  F00C         	movff	??_MSSP_I2C_Master_Mode_Clock_CFG,___xxtofl@val
  3657   002CAC  C050  F00D         	movff	??_MSSP_I2C_Master_Mode_Clock_CFG+1,___xxtofl@val+1
  3658   002CB0  6A0E               	clrf	(___xxtofl@val+2)^0,c
  3659   002CB2  6A0F               	clrf	(___xxtofl@val+3)^0,c
  3660   002CB4  0E00               	movlw	0
  3661   002CB6  ECA2  F00B         	call	___xxtofl
  3662   002CBA  C00C  F01E         	movff	?___xxtofl,___fldiv@a
  3663   002CBE  C00D  F01F         	movff	?___xxtofl+1,___fldiv@a+1
  3664   002CC2  C00E  F020         	movff	?___xxtofl+2,___fldiv@a+2
  3665   002CC6  C00F  F021         	movff	?___xxtofl+3,___fldiv@a+3
  3666   002CCA  0E00               	movlw	0
  3667   002CCC  6E1A               	movwf	___fldiv@b^0,c
  3668   002CCE  0E24               	movlw	36
  3669   002CD0  6E1B               	movwf	(___fldiv@b+1)^0,c
  3670   002CD2  0E74               	movlw	116
  3671   002CD4  6E1C               	movwf	(___fldiv@b+2)^0,c
  3672   002CD6  0E49               	movlw	73
  3673   002CD8  6E1D               	movwf	(___fldiv@b+3)^0,c
  3674   002CDA  ECD5  F009         	call	___fldiv	;wreg free
  3675   002CDE  C01A  F033         	movff	?___fldiv,___fladd@b
  3676   002CE2  C01B  F034         	movff	?___fldiv+1,___fladd@b+1
  3677   002CE6  C01C  F035         	movff	?___fldiv+2,___fladd@b+2
  3678   002CEA  C01D  F036         	movff	?___fldiv+3,___fladd@b+3
  3679   002CEE  EC72  F005         	call	___fladd	;wreg free
  3680   002CF2  C033  F043         	movff	?___fladd,___fltol@f1
  3681   002CF6  C034  F044         	movff	?___fladd+1,___fltol@f1+1
  3682   002CFA  C035  F045         	movff	?___fladd+2,___fltol@f1+2
  3683   002CFE  C036  F046         	movff	?___fladd+3,___fltol@f1+3
  3684   002D02  EC56  F011         	call	___fltol	;wreg free
  3685   002D06  5043               	movf	?___fltol^0,w,c
  3686   002D08  6EC8               	movwf	200,c	;volatile
  3687   002D0A  0012               	return		;funcret
  3688   002D0C                     __end_of_MSSP_I2C_Master_Mode_Clock_CFG:
  3689                           	callstack 0
  3690                           
  3691 ;; *************** function _MSSP_I2C_MODE_GPIO_CFG *****************
  3692 ;; Defined at:
  3693 ;;		line 222 in file "MCAL_Layer/I2C/hal_i2c.c"
  3694 ;; Parameters:    Size  Location     Type
  3695 ;;		None
  3696 ;; Auto vars:     Size  Location     Type
  3697 ;;		None
  3698 ;; Return value:  Size  Location     Type
  3699 ;;                  1    wreg      void 
  3700 ;; Registers used:
  3701 ;;		None
  3702 ;; Tracked objects:
  3703 ;;		On entry : 0/0
  3704 ;;		On exit  : 0/0
  3705 ;;		Unchanged: 0/0
  3706 ;; Data sizes:     COMRAM   BANK0   BANK1   BANK2   BANK3   BANK4   BANK5   BANK6   BANK7   BANK8   BANK9  BANK10  BANK1
      +1  BANK12  BANK13  BANK14  BANK15
  3707 ;;      Params:         0       0       0       0       0       0       0       0       0       0       0       0       
      +0       0       0       0       0
  3708 ;;      Locals:         0       0       0       0       0       0       0       0       0       0       0       0       
      +0       0       0       0       0
  3709 ;;      Temps:          0       0       0       0       0       0       0       0       0       0       0       0       
      +0       0       0       0       0
  3710 ;;      Totals:         0       0       0       0       0       0       0       0       0       0       0       0       
      +0       0       0       0       0
  3711 ;;Total ram usage:        0 bytes
  3712 ;; Hardware stack levels used: 1
  3713 ;; Hardware stack levels required when called: 4
  3714 ;; This function calls:
  3715 ;;		Nothing
  3716 ;; This function is called by:
  3717 ;;		_MSSP_I2C_Init
  3718 ;; This function uses a non-reentrant model
  3719 ;;
  3720                           
  3721                           	psect	text12
  3722   003B1E                     __ptext12:
  3723                           	callstack 0
  3724   003B1E                     _MSSP_I2C_MODE_GPIO_CFG:
  3725                           	callstack 23
  3726   003B1E                     
  3727                           ;MCAL_Layer/I2C/hal_i2c.c: 223:     TRISCbits.TRISC3=1;
  3728   003B1E  8694               	bsf	148,3,c	;volatile
  3729                           
  3730                           ;MCAL_Layer/I2C/hal_i2c.c: 224:     TRISCbits.TRISC4=1;
  3731   003B20  8894               	bsf	148,4,c	;volatile
  3732   003B22  0012               	return		;funcret
  3733   003B24                     __end_of_MSSP_I2C_MODE_GPIO_CFG:
  3734                           	callstack 0
  3735                           
  3736 ;; *************** function _I2C_Obj_CFG *****************
  3737 ;; Defined at:
  3738 ;;		line 96 in file "ECU_Layer/ecu_layer_init.c"
  3739 ;; Parameters:    Size  Location     Type
  3740 ;;		None
  3741 ;; Auto vars:     Size  Location     Type
  3742 ;;		None
  3743 ;; Return value:  Size  Location     Type
  3744 ;;                  1    wreg      void 
  3745 ;; Registers used:
  3746 ;;		wreg, status,2
  3747 ;; Tracked objects:
  3748 ;;		On entry : 0/0
  3749 ;;		On exit  : 0/0
  3750 ;;		Unchanged: 0/0
  3751 ;; Data sizes:     COMRAM   BANK0   BANK1   BANK2   BANK3   BANK4   BANK5   BANK6   BANK7   BANK8   BANK9  BANK10  BANK1
      +1  BANK12  BANK13  BANK14  BANK15
  3752 ;;      Params:         0       0       0       0       0       0       0       0       0       0       0       0       
      +0       0       0       0       0
  3753 ;;      Locals:         0       0       0       0       0       0       0       0       0       0       0       0       
      +0       0       0       0       0
  3754 ;;      Temps:          0       0       0       0       0       0       0       0       0       0       0       0       
      +0       0       0       0       0
  3755 ;;      Totals:         0       0       0       0       0       0       0       0       0       0       0       0       
      +0       0       0       0       0
  3756 ;;Total ram usage:        0 bytes
  3757 ;; Hardware stack levels used: 1
  3758 ;; Hardware stack levels required when called: 4
  3759 ;; This function calls:
  3760 ;;		Nothing
  3761 ;; This function is called by:
  3762 ;;		_ecu_layer_intialize
  3763 ;; This function uses a non-reentrant model
  3764 ;;
  3765                           
  3766                           	psect	text13
  3767   003AC8                     __ptext13:
  3768                           	callstack 0
  3769   003AC8                     _I2C_Obj_CFG:
  3770                           	callstack 24
  3771   003AC8                     
  3772                           ;ECU_Layer/ecu_layer_init.c: 98:     i2c_obj.i2c_clock=100000;
  3773   003AC8  0E86               	movlw	134
  3774   003ACA  6E66               	movwf	(_i2c_obj+1)^0,c
  3775   003ACC  0EA0               	movlw	160
  3776   003ACE  6E65               	movwf	_i2c_obj^0,c
  3777   003AD0                     
  3778                           ;ECU_Layer/ecu_layer_init.c: 99:     i2c_obj.i2c_cfg.i2c_mode=1;
  3779   003AD0  8069               	bsf	(_i2c_obj+4)^0,0,c
  3780                           
  3781                           ;ECU_Layer/ecu_layer_init.c: 100:     i2c_obj.i2c_cfg.i2c_mode_cfg=0x08U;
  3782   003AD2  0E08               	movlw	8
  3783   003AD4  6E67               	movwf	(_i2c_obj+2)^0,c
  3784   003AD6                     
  3785                           ;ECU_Layer/ecu_layer_init.c: 101:     i2c_obj.i2c_cfg.i2c_SMBus_control=0;
  3786   003AD6  9469               	bcf	(_i2c_obj+4)^0,2,c
  3787   003AD8                     
  3788                           ;ECU_Layer/ecu_layer_init.c: 102:     i2c_obj.i2c_cfg.i2c_slew_rate=1;
  3789   003AD8  8269               	bsf	(_i2c_obj+4)^0,1,c
  3790   003ADA  0012               	return		;funcret
  3791   003ADC                     __end_of_I2C_Obj_CFG:
  3792                           	callstack 0
  3793                           
  3794 ;; *************** function _EUSART_ASYNC_Init *****************
  3795 ;; Defined at:
  3796 ;;		line 20 in file "MCAL_Layer/USART/hal_usart.c"
  3797 ;; Parameters:    Size  Location     Type
  3798 ;;  _eusart         2   80[COMRAM] PTR const struct .
  3799 ;;		 -> usart_obj(16), 
  3800 ;; Auto vars:     Size  Location     Type
  3801 ;;  ret             1    0        unsigned char 
  3802 ;; Return value:  Size  Location     Type
  3803 ;;                  1    wreg      unsigned char 
  3804 ;; Registers used:
  3805 ;;		wreg, fsr2l, fsr2h, status,2, status,0, cstack
  3806 ;; Tracked objects:
  3807 ;;		On entry : 0/0
  3808 ;;		On exit  : 0/0
  3809 ;;		Unchanged: 0/0
  3810 ;; Data sizes:     COMRAM   BANK0   BANK1   BANK2   BANK3   BANK4   BANK5   BANK6   BANK7   BANK8   BANK9  BANK10  BANK1
      +1  BANK12  BANK13  BANK14  BANK15
  3811 ;;      Params:         2       0       0       0       0       0       0       0       0       0       0       0       
      +0       0       0       0       0
  3812 ;;      Locals:         0       0       0       0       0       0       0       0       0       0       0       0       
      +0       0       0       0       0
  3813 ;;      Temps:          0       0       0       0       0       0       0       0       0       0       0       0       
      +0       0       0       0       0
  3814 ;;      Totals:         2       0       0       0       0       0       0       0       0       0       0       0       
      +0       0       0       0       0
  3815 ;;Total ram usage:        2 bytes
  3816 ;; Hardware stack levels used: 1
  3817 ;; Hardware stack levels required when called: 6
  3818 ;; This function calls:
  3819 ;;		_EUSART_ASYNC_RX_Init
  3820 ;;		_EUSART_ASYNC_TX_Init
  3821 ;;		_EUSART_Baud_Rate_Calculation
  3822 ;; This function is called by:
  3823 ;;		_ecu_layer_intialize
  3824 ;; This function uses a non-reentrant model
  3825 ;;
  3826                           
  3827                           	psect	text14
  3828   003706                     __ptext14:
  3829                           	callstack 0
  3830   003706                     _EUSART_ASYNC_Init:
  3831                           	callstack 22
  3832   003706                     
  3833                           ;MCAL_Layer/USART/hal_usart.c: 23:     if(((void*)0) == _eusart){
  3834   003706  5051               	movf	EUSART_ASYNC_Init@_eusart^0,w,c
  3835   003708  1052               	iorwf	(EUSART_ASYNC_Init@_eusart+1)^0,w,c
  3836   00370A  A4D8               	btfss	status,2,c
  3837   00370C  EF8A  F01B         	goto	u9891
  3838   003710  EF8C  F01B         	goto	u9890
  3839   003714                     u9891:
  3840   003714  EF8E  F01B         	goto	l10678
  3841   003718                     u9890:
  3842   003718                     l10676:
  3843                           
  3844                           ;MCAL_Layer/USART/hal_usart.c: 25:     }
  3845   003718  EFA6  F01B         	goto	l10690
  3846   00371C                     l10678:
  3847                           
  3848                           ;MCAL_Layer/USART/hal_usart.c: 27:         EUSART_Baud_Rate_Calculation(_eusart);
  3849   00371C  C051  F04D         	movff	EUSART_ASYNC_Init@_eusart,EUSART_Baud_Rate_Calculation@_eusart
  3850   003720  C052  F04E         	movff	EUSART_ASYNC_Init@_eusart+1,EUSART_Baud_Rate_Calculation@_eusart+1
  3851   003724  ECFA  F002         	call	_EUSART_Baud_Rate_Calculation	;wreg free
  3852   003728                     
  3853                           ;MCAL_Layer/USART/hal_usart.c: 28:         RCSTAbits.SPEN=0;
  3854   003728  9EAB               	bcf	171,7,c	;volatile
  3855   00372A                     
  3856                           ;MCAL_Layer/USART/hal_usart.c: 29:         TRISCbits.RC6=1;
  3857   00372A  8C94               	bsf	148,6,c	;volatile
  3858   00372C                     
  3859                           ;MCAL_Layer/USART/hal_usart.c: 30:         TRISCbits.RC7=1;
  3860   00372C  8E94               	bsf	148,7,c	;volatile
  3861                           
  3862                           ;MCAL_Layer/USART/hal_usart.c: 31:         EUSART_ASYNC_TX_Init(_eusart);
  3863   00372E  C051  F00C         	movff	EUSART_ASYNC_Init@_eusart,EUSART_ASYNC_TX_Init@_eusart
  3864   003732  C052  F00D         	movff	EUSART_ASYNC_Init@_eusart+1,EUSART_ASYNC_TX_Init@_eusart+1
  3865   003736  ECB7  F013         	call	_EUSART_ASYNC_TX_Init	;wreg free
  3866                           
  3867                           ;MCAL_Layer/USART/hal_usart.c: 32:         EUSART_ASYNC_RX_Init(_eusart);
  3868   00373A  C051  F00C         	movff	EUSART_ASYNC_Init@_eusart,EUSART_ASYNC_RX_Init@_eusart
  3869   00373E  C052  F00D         	movff	EUSART_ASYNC_Init@_eusart+1,EUSART_ASYNC_RX_Init@_eusart+1
  3870   003742  ECD9  F011         	call	_EUSART_ASYNC_RX_Init	;wreg free
  3871   003746                     
  3872                           ;MCAL_Layer/USART/hal_usart.c: 33:         RCSTAbits.SPEN=1;
  3873   003746  8EAB               	bsf	171,7,c	;volatile
  3874   003748  EF8C  F01B         	goto	l10676
  3875   00374C                     l10690:
  3876                           
  3877                           ;MCAL_Layer/USART/hal_usart.c: 36:     return ret;
  3878   00374C  0E01               	movlw	1
  3879   00374E  0012               	return		;funcret
  3880   003750                     __end_of_EUSART_ASYNC_Init:
  3881                           	callstack 0
  3882                           
  3883 ;; *************** function _EUSART_Baud_Rate_Calculation *****************
  3884 ;; Defined at:
  3885 ;;		line 121 in file "MCAL_Layer/USART/hal_usart.c"
  3886 ;; Parameters:    Size  Location     Type
  3887 ;;  _eusart         2   76[COMRAM] PTR const struct .
  3888 ;;		 -> usart_obj(16), 
  3889 ;; Auto vars:     Size  Location     Type
  3890 ;;  Baud_Rate_Te    4    0[BANK1 ] float 
  3891 ;; Return value:  Size  Location     Type
  3892 ;;                  1    wreg      void 
  3893 ;; Registers used:
  3894 ;;		wreg, fsr2l, fsr2h, status,2, status,0, cstack
  3895 ;; Tracked objects:
  3896 ;;		On entry : 0/0
  3897 ;;		On exit  : 0/0
  3898 ;;		Unchanged: 0/0
  3899 ;; Data sizes:     COMRAM   BANK0   BANK1   BANK2   BANK3   BANK4   BANK5   BANK6   BANK7   BANK8   BANK9  BANK10  BANK1
      +1  BANK12  BANK13  BANK14  BANK15
  3900 ;;      Params:         2       0       0       0       0       0       0       0       0       0       0       0       
      +0       0       0       0       0
  3901 ;;      Locals:         0       0       8       0       0       0       0       0       0       0       0       0       
      +0       0       0       0       0
  3902 ;;      Temps:          2       0       0       0       0       0       0       0       0       0       0       0       
      +0       0       0       0       0
  3903 ;;      Totals:         4       0       8       0       0       0       0       0       0       0       0       0       
      +0       0       0       0       0
  3904 ;;Total ram usage:       12 bytes
  3905 ;; Hardware stack levels used: 1
  3906 ;; Hardware stack levels required when called: 5
  3907 ;; This function calls:
  3908 ;;		___fladd
  3909 ;;		___fldiv
  3910 ;;		___fltol
  3911 ;;		___xxtofl
  3912 ;; This function is called by:
  3913 ;;		_EUSART_ASYNC_Init
  3914 ;; This function uses a non-reentrant model
  3915 ;;
  3916                           
  3917                           	psect	text15
  3918   0005F4                     __ptext15:
  3919                           	callstack 0
  3920   0005F4                     _EUSART_Baud_Rate_Calculation:
  3921                           	callstack 22
  3922   0005F4                     
  3923                           ;MCAL_Layer/USART/hal_usart.c: 122:     float Baud_Rate_Temp=0;
  3924   0005F4  0E00               	movlw	0
  3925   0005F6  0101               	movlb	1	; () banked
  3926   0005F8  6F61               	movwf	EUSART_Baud_Rate_Calculation@Baud_Rate_Temp& (0+255),b
  3927   0005FA  0E00               	movlw	0
  3928   0005FC  6F62               	movwf	(EUSART_Baud_Rate_Calculation@Baud_Rate_Temp+1)& (0+255),b
  3929   0005FE  0E00               	movlw	0
  3930   000600  6F63               	movwf	(EUSART_Baud_Rate_Calculation@Baud_Rate_Temp+2)& (0+255),b
  3931   000602  0E00               	movlw	0
  3932   000604  6F64               	movwf	(EUSART_Baud_Rate_Calculation@Baud_Rate_Temp+3)& (0+255),b
  3933                           
  3934                           ;MCAL_Layer/USART/hal_usart.c: 123:     switch(_eusart->baudrate_gen_config){
  3935   000606  EF2B  F005         	goto	l10210
  3936   00060A                     l1662:
  3937                           
  3938                           ; BSR set to: 1
  3939                           ;MCAL_Layer/USART/hal_usart.c: 125:             TXSTAbits.SYNC= 0;
  3940   00060A  98AC               	bcf	172,4,c	;volatile
  3941                           
  3942                           ;MCAL_Layer/USART/hal_usart.c: 126:             TXSTAbits.BRGH= 0;
  3943   00060C  94AC               	bcf	172,2,c	;volatile
  3944                           
  3945                           ;MCAL_Layer/USART/hal_usart.c: 127:             BAUDCONbits.BRG16 = 0;
  3946   00060E  96B8               	bcf	184,3,c	;volatile
  3947   000610                     
  3948                           ; BSR set to: 1
  3949                           ;MCAL_Layer/USART/hal_usart.c: 128:             Baud_Rate_Temp=((4000000UL / (float)_eus
      +                          art->baudrate) /64) - 1;
  3950   000610  C04D  FFD9         	movff	EUSART_Baud_Rate_Calculation@_eusart,fsr2l
  3951   000614  C04E  FFDA         	movff	EUSART_Baud_Rate_Calculation@_eusart+1,fsr2h
  3952   000618  CFDE F04F          	movff	postinc2,??_EUSART_Baud_Rate_Calculation
  3953   00061C  CFDD F050          	movff	postdec2,??_EUSART_Baud_Rate_Calculation+1
  3954   000620  C04F  F00C         	movff	??_EUSART_Baud_Rate_Calculation,___xxtofl@val
  3955   000624  C050  F00D         	movff	??_EUSART_Baud_Rate_Calculation+1,___xxtofl@val+1
  3956   000628  6A0E               	clrf	(___xxtofl@val+2)^0,c
  3957   00062A  6A0F               	clrf	(___xxtofl@val+3)^0,c
  3958   00062C  0E00               	movlw	0
  3959   00062E  ECA2  F00B         	call	___xxtofl
  3960   000632  C00C  F01E         	movff	?___xxtofl,___fldiv@a
  3961   000636  C00D  F01F         	movff	?___xxtofl+1,___fldiv@a+1
  3962   00063A  C00E  F020         	movff	?___xxtofl+2,___fldiv@a+2
  3963   00063E  C00F  F021         	movff	?___xxtofl+3,___fldiv@a+3
  3964   000642  0E00               	movlw	0
  3965   000644  6E1A               	movwf	___fldiv@b^0,c
  3966   000646  0E24               	movlw	36
  3967   000648  6E1B               	movwf	(___fldiv@b+1)^0,c
  3968   00064A  0E74               	movlw	116
  3969   00064C  6E1C               	movwf	(___fldiv@b+2)^0,c
  3970   00064E  0E4A               	movlw	74
  3971   000650  6E1D               	movwf	(___fldiv@b+3)^0,c
  3972   000652  ECD5  F009         	call	___fldiv	;wreg free
  3973   000656  C01A  F165         	movff	?___fldiv,_EUSART_Baud_Rate_Calculation$5468
  3974   00065A  C01B  F166         	movff	?___fldiv+1,_EUSART_Baud_Rate_Calculation$5468+1
  3975   00065E  C01C  F167         	movff	?___fldiv+2,_EUSART_Baud_Rate_Calculation$5468+2
  3976   000662  C01D  F168         	movff	?___fldiv+3,_EUSART_Baud_Rate_Calculation$5468+3
  3977   000666                     
  3978                           ;MCAL_Layer/USART/hal_usart.c: 128:             Baud_Rate_Temp=((4000000UL / (float)_eus
      +                          art->baudrate) /64) - 1;
  3979   000666  0E00               	movlw	0
  3980   000668  6E1E               	movwf	___fldiv@a^0,c
  3981   00066A  0E00               	movlw	0
  3982   00066C  6E1F               	movwf	(___fldiv@a+1)^0,c
  3983   00066E  0E80               	movlw	128
  3984   000670  6E20               	movwf	(___fldiv@a+2)^0,c
  3985   000672  0E42               	movlw	66
  3986   000674  6E21               	movwf	(___fldiv@a+3)^0,c
  3987   000676  C165  F01A         	movff	_EUSART_Baud_Rate_Calculation$5468,___fldiv@b
  3988   00067A  C166  F01B         	movff	_EUSART_Baud_Rate_Calculation$5468+1,___fldiv@b+1
  3989   00067E  C167  F01C         	movff	_EUSART_Baud_Rate_Calculation$5468+2,___fldiv@b+2
  3990   000682  C168  F01D         	movff	_EUSART_Baud_Rate_Calculation$5468+3,___fldiv@b+3
  3991   000686  ECD5  F009         	call	___fldiv	;wreg free
  3992   00068A  C01A  F033         	movff	?___fldiv,___fladd@b
  3993   00068E  C01B  F034         	movff	?___fldiv+1,___fladd@b+1
  3994   000692  C01C  F035         	movff	?___fldiv+2,___fladd@b+2
  3995   000696  C01D  F036         	movff	?___fldiv+3,___fladd@b+3
  3996   00069A  0E00               	movlw	0
  3997   00069C  6E37               	movwf	___fladd@a^0,c
  3998   00069E  0E00               	movlw	0
  3999   0006A0  6E38               	movwf	(___fladd@a+1)^0,c
  4000   0006A2  0E80               	movlw	128
  4001   0006A4  6E39               	movwf	(___fladd@a+2)^0,c
  4002   0006A6  0EBF               	movlw	191
  4003   0006A8  6E3A               	movwf	(___fladd@a+3)^0,c
  4004   0006AA  EC72  F005         	call	___fladd	;wreg free
  4005   0006AE  C033  F161         	movff	?___fladd,EUSART_Baud_Rate_Calculation@Baud_Rate_Temp
  4006   0006B2  C034  F162         	movff	?___fladd+1,EUSART_Baud_Rate_Calculation@Baud_Rate_Temp+1
  4007   0006B6  C035  F163         	movff	?___fladd+2,EUSART_Baud_Rate_Calculation@Baud_Rate_Temp+2
  4008   0006BA  C036  F164         	movff	?___fladd+3,EUSART_Baud_Rate_Calculation@Baud_Rate_Temp+3
  4009                           
  4010                           ;MCAL_Layer/USART/hal_usart.c: 129:             break;
  4011   0006BE  EF56  F005         	goto	l10212
  4012   0006C2                     l1664:
  4013                           
  4014                           ; BSR set to: 1
  4015                           ;MCAL_Layer/USART/hal_usart.c: 131:             TXSTAbits.SYNC= 0;
  4016   0006C2  98AC               	bcf	172,4,c	;volatile
  4017                           
  4018                           ;MCAL_Layer/USART/hal_usart.c: 132:             TXSTAbits.BRGH= 1;
  4019   0006C4  84AC               	bsf	172,2,c	;volatile
  4020                           
  4021                           ;MCAL_Layer/USART/hal_usart.c: 133:             BAUDCONbits.BRG16 = 0;
  4022   0006C6  96B8               	bcf	184,3,c	;volatile
  4023   0006C8                     
  4024                           ; BSR set to: 1
  4025                           ;MCAL_Layer/USART/hal_usart.c: 134:             Baud_Rate_Temp=((4000000UL / (float)_eus
      +                          art->baudrate) /16) - 1;
  4026   0006C8  C04D  FFD9         	movff	EUSART_Baud_Rate_Calculation@_eusart,fsr2l
  4027   0006CC  C04E  FFDA         	movff	EUSART_Baud_Rate_Calculation@_eusart+1,fsr2h
  4028   0006D0  CFDE F04F          	movff	postinc2,??_EUSART_Baud_Rate_Calculation
  4029   0006D4  CFDD F050          	movff	postdec2,??_EUSART_Baud_Rate_Calculation+1
  4030   0006D8  C04F  F00C         	movff	??_EUSART_Baud_Rate_Calculation,___xxtofl@val
  4031   0006DC  C050  F00D         	movff	??_EUSART_Baud_Rate_Calculation+1,___xxtofl@val+1
  4032   0006E0  6A0E               	clrf	(___xxtofl@val+2)^0,c
  4033   0006E2  6A0F               	clrf	(___xxtofl@val+3)^0,c
  4034   0006E4  0E00               	movlw	0
  4035   0006E6  ECA2  F00B         	call	___xxtofl
  4036   0006EA  C00C  F01E         	movff	?___xxtofl,___fldiv@a
  4037   0006EE  C00D  F01F         	movff	?___xxtofl+1,___fldiv@a+1
  4038   0006F2  C00E  F020         	movff	?___xxtofl+2,___fldiv@a+2
  4039   0006F6  C00F  F021         	movff	?___xxtofl+3,___fldiv@a+3
  4040   0006FA  0E00               	movlw	0
  4041   0006FC  6E1A               	movwf	___fldiv@b^0,c
  4042   0006FE  0E24               	movlw	36
  4043   000700  6E1B               	movwf	(___fldiv@b+1)^0,c
  4044   000702  0E74               	movlw	116
  4045   000704  6E1C               	movwf	(___fldiv@b+2)^0,c
  4046   000706  0E4A               	movlw	74
  4047   000708  6E1D               	movwf	(___fldiv@b+3)^0,c
  4048   00070A  ECD5  F009         	call	___fldiv	;wreg free
  4049   00070E  C01A  F165         	movff	?___fldiv,_EUSART_Baud_Rate_Calculation$5468
  4050   000712  C01B  F166         	movff	?___fldiv+1,_EUSART_Baud_Rate_Calculation$5468+1
  4051   000716  C01C  F167         	movff	?___fldiv+2,_EUSART_Baud_Rate_Calculation$5468+2
  4052   00071A  C01D  F168         	movff	?___fldiv+3,_EUSART_Baud_Rate_Calculation$5468+3
  4053   00071E                     
  4054                           ;MCAL_Layer/USART/hal_usart.c: 134:             Baud_Rate_Temp=((4000000UL / (float)_eus
      +                          art->baudrate) /16) - 1;
  4055   00071E  0E00               	movlw	0
  4056   000720  6E1E               	movwf	___fldiv@a^0,c
  4057   000722  0E00               	movlw	0
  4058   000724  6E1F               	movwf	(___fldiv@a+1)^0,c
  4059   000726  0E80               	movlw	128
  4060   000728  6E20               	movwf	(___fldiv@a+2)^0,c
  4061   00072A  0E41               	movlw	65
  4062   00072C  6E21               	movwf	(___fldiv@a+3)^0,c
  4063   00072E  C165  F01A         	movff	_EUSART_Baud_Rate_Calculation$5468,___fldiv@b
  4064   000732  C166  F01B         	movff	_EUSART_Baud_Rate_Calculation$5468+1,___fldiv@b+1
  4065   000736  C167  F01C         	movff	_EUSART_Baud_Rate_Calculation$5468+2,___fldiv@b+2
  4066   00073A  C168  F01D         	movff	_EUSART_Baud_Rate_Calculation$5468+3,___fldiv@b+3
  4067   00073E  ECD5  F009         	call	___fldiv	;wreg free
  4068   000742  C01A  F033         	movff	?___fldiv,___fladd@b
  4069   000746  C01B  F034         	movff	?___fldiv+1,___fladd@b+1
  4070   00074A  C01C  F035         	movff	?___fldiv+2,___fladd@b+2
  4071   00074E  C01D  F036         	movff	?___fldiv+3,___fladd@b+3
  4072   000752  0E00               	movlw	0
  4073   000754  6E37               	movwf	___fladd@a^0,c
  4074   000756  0E00               	movlw	0
  4075   000758  6E38               	movwf	(___fladd@a+1)^0,c
  4076   00075A  0E80               	movlw	128
  4077   00075C  6E39               	movwf	(___fladd@a+2)^0,c
  4078   00075E  0EBF               	movlw	191
  4079   000760  6E3A               	movwf	(___fladd@a+3)^0,c
  4080   000762  EC72  F005         	call	___fladd	;wreg free
  4081   000766  C033  F161         	movff	?___fladd,EUSART_Baud_Rate_Calculation@Baud_Rate_Temp
  4082   00076A  C034  F162         	movff	?___fladd+1,EUSART_Baud_Rate_Calculation@Baud_Rate_Temp+1
  4083   00076E  C035  F163         	movff	?___fladd+2,EUSART_Baud_Rate_Calculation@Baud_Rate_Temp+2
  4084   000772  C036  F164         	movff	?___fladd+3,EUSART_Baud_Rate_Calculation@Baud_Rate_Temp+3
  4085                           
  4086                           ;MCAL_Layer/USART/hal_usart.c: 135:             break;
  4087   000776  EF56  F005         	goto	l10212
  4088   00077A                     l1665:
  4089                           
  4090                           ; BSR set to: 1
  4091                           ;MCAL_Layer/USART/hal_usart.c: 137:             TXSTAbits.SYNC= 0;
  4092   00077A  98AC               	bcf	172,4,c	;volatile
  4093                           
  4094                           ;MCAL_Layer/USART/hal_usart.c: 138:             TXSTAbits.BRGH= 0;
  4095   00077C  94AC               	bcf	172,2,c	;volatile
  4096                           
  4097                           ;MCAL_Layer/USART/hal_usart.c: 139:             BAUDCONbits.BRG16 = 1;
  4098   00077E  86B8               	bsf	184,3,c	;volatile
  4099   000780                     
  4100                           ; BSR set to: 1
  4101                           ;MCAL_Layer/USART/hal_usart.c: 140:             Baud_Rate_Temp=((4000000UL / (float)_eus
      +                          art->baudrate) /16) - 1;
  4102   000780  C04D  FFD9         	movff	EUSART_Baud_Rate_Calculation@_eusart,fsr2l
  4103   000784  C04E  FFDA         	movff	EUSART_Baud_Rate_Calculation@_eusart+1,fsr2h
  4104   000788  CFDE F04F          	movff	postinc2,??_EUSART_Baud_Rate_Calculation
  4105   00078C  CFDD F050          	movff	postdec2,??_EUSART_Baud_Rate_Calculation+1
  4106   000790  C04F  F00C         	movff	??_EUSART_Baud_Rate_Calculation,___xxtofl@val
  4107   000794  C050  F00D         	movff	??_EUSART_Baud_Rate_Calculation+1,___xxtofl@val+1
  4108   000798  6A0E               	clrf	(___xxtofl@val+2)^0,c
  4109   00079A  6A0F               	clrf	(___xxtofl@val+3)^0,c
  4110   00079C  0E00               	movlw	0
  4111   00079E  ECA2  F00B         	call	___xxtofl
  4112   0007A2  C00C  F01E         	movff	?___xxtofl,___fldiv@a
  4113   0007A6  C00D  F01F         	movff	?___xxtofl+1,___fldiv@a+1
  4114   0007AA  C00E  F020         	movff	?___xxtofl+2,___fldiv@a+2
  4115   0007AE  C00F  F021         	movff	?___xxtofl+3,___fldiv@a+3
  4116   0007B2  0E00               	movlw	0
  4117   0007B4  6E1A               	movwf	___fldiv@b^0,c
  4118   0007B6  0E24               	movlw	36
  4119   0007B8  6E1B               	movwf	(___fldiv@b+1)^0,c
  4120   0007BA  0E74               	movlw	116
  4121   0007BC  6E1C               	movwf	(___fldiv@b+2)^0,c
  4122   0007BE  0E4A               	movlw	74
  4123   0007C0  6E1D               	movwf	(___fldiv@b+3)^0,c
  4124   0007C2  ECD5  F009         	call	___fldiv	;wreg free
  4125   0007C6  C01A  F165         	movff	?___fldiv,_EUSART_Baud_Rate_Calculation$5468
  4126   0007CA  C01B  F166         	movff	?___fldiv+1,_EUSART_Baud_Rate_Calculation$5468+1
  4127   0007CE  C01C  F167         	movff	?___fldiv+2,_EUSART_Baud_Rate_Calculation$5468+2
  4128   0007D2  C01D  F168         	movff	?___fldiv+3,_EUSART_Baud_Rate_Calculation$5468+3
  4129   0007D6                     
  4130                           ;MCAL_Layer/USART/hal_usart.c: 140:             Baud_Rate_Temp=((4000000UL / (float)_eus
      +                          art->baudrate) /16) - 1;
  4131   0007D6  0E00               	movlw	0
  4132   0007D8  6E1E               	movwf	___fldiv@a^0,c
  4133   0007DA  0E00               	movlw	0
  4134   0007DC  6E1F               	movwf	(___fldiv@a+1)^0,c
  4135   0007DE  0E80               	movlw	128
  4136   0007E0  6E20               	movwf	(___fldiv@a+2)^0,c
  4137   0007E2  0E41               	movlw	65
  4138   0007E4  6E21               	movwf	(___fldiv@a+3)^0,c
  4139   0007E6  C165  F01A         	movff	_EUSART_Baud_Rate_Calculation$5468,___fldiv@b
  4140   0007EA  C166  F01B         	movff	_EUSART_Baud_Rate_Calculation$5468+1,___fldiv@b+1
  4141   0007EE  C167  F01C         	movff	_EUSART_Baud_Rate_Calculation$5468+2,___fldiv@b+2
  4142   0007F2  C168  F01D         	movff	_EUSART_Baud_Rate_Calculation$5468+3,___fldiv@b+3
  4143   0007F6  ECD5  F009         	call	___fldiv	;wreg free
  4144   0007FA  C01A  F033         	movff	?___fldiv,___fladd@b
  4145   0007FE  C01B  F034         	movff	?___fldiv+1,___fladd@b+1
  4146   000802  C01C  F035         	movff	?___fldiv+2,___fladd@b+2
  4147   000806  C01D  F036         	movff	?___fldiv+3,___fladd@b+3
  4148   00080A  0E00               	movlw	0
  4149   00080C  6E37               	movwf	___fladd@a^0,c
  4150   00080E  0E00               	movlw	0
  4151   000810  6E38               	movwf	(___fladd@a+1)^0,c
  4152   000812  0E80               	movlw	128
  4153   000814  6E39               	movwf	(___fladd@a+2)^0,c
  4154   000816  0EBF               	movlw	191
  4155   000818  6E3A               	movwf	(___fladd@a+3)^0,c
  4156   00081A  EC72  F005         	call	___fladd	;wreg free
  4157   00081E  C033  F161         	movff	?___fladd,EUSART_Baud_Rate_Calculation@Baud_Rate_Temp
  4158   000822  C034  F162         	movff	?___fladd+1,EUSART_Baud_Rate_Calculation@Baud_Rate_Temp+1
  4159   000826  C035  F163         	movff	?___fladd+2,EUSART_Baud_Rate_Calculation@Baud_Rate_Temp+2
  4160   00082A  C036  F164         	movff	?___fladd+3,EUSART_Baud_Rate_Calculation@Baud_Rate_Temp+3
  4161                           
  4162                           ;MCAL_Layer/USART/hal_usart.c: 141:             break;
  4163   00082E  EF56  F005         	goto	l10212
  4164   000832                     l1666:
  4165                           
  4166                           ; BSR set to: 1
  4167                           ;MCAL_Layer/USART/hal_usart.c: 143:             TXSTAbits.SYNC= 0;
  4168   000832  98AC               	bcf	172,4,c	;volatile
  4169                           
  4170                           ;MCAL_Layer/USART/hal_usart.c: 144:             TXSTAbits.BRGH= 1;
  4171   000834  84AC               	bsf	172,2,c	;volatile
  4172                           
  4173                           ;MCAL_Layer/USART/hal_usart.c: 145:             BAUDCONbits.BRG16 = 1;
  4174   000836  86B8               	bsf	184,3,c	;volatile
  4175   000838                     
  4176                           ; BSR set to: 1
  4177                           ;MCAL_Layer/USART/hal_usart.c: 146:             Baud_Rate_Temp=((4000000UL / (float)_eus
      +                          art->baudrate) /4) - 1;
  4178   000838  C04D  FFD9         	movff	EUSART_Baud_Rate_Calculation@_eusart,fsr2l
  4179   00083C  C04E  FFDA         	movff	EUSART_Baud_Rate_Calculation@_eusart+1,fsr2h
  4180   000840  CFDE F04F          	movff	postinc2,??_EUSART_Baud_Rate_Calculation
  4181   000844  CFDD F050          	movff	postdec2,??_EUSART_Baud_Rate_Calculation+1
  4182   000848  C04F  F00C         	movff	??_EUSART_Baud_Rate_Calculation,___xxtofl@val
  4183   00084C  C050  F00D         	movff	??_EUSART_Baud_Rate_Calculation+1,___xxtofl@val+1
  4184   000850  6A0E               	clrf	(___xxtofl@val+2)^0,c
  4185   000852  6A0F               	clrf	(___xxtofl@val+3)^0,c
  4186   000854  0E00               	movlw	0
  4187   000856  ECA2  F00B         	call	___xxtofl
  4188   00085A  C00C  F01E         	movff	?___xxtofl,___fldiv@a
  4189   00085E  C00D  F01F         	movff	?___xxtofl+1,___fldiv@a+1
  4190   000862  C00E  F020         	movff	?___xxtofl+2,___fldiv@a+2
  4191   000866  C00F  F021         	movff	?___xxtofl+3,___fldiv@a+3
  4192   00086A  0E00               	movlw	0
  4193   00086C  6E1A               	movwf	___fldiv@b^0,c
  4194   00086E  0E24               	movlw	36
  4195   000870  6E1B               	movwf	(___fldiv@b+1)^0,c
  4196   000872  0E74               	movlw	116
  4197   000874  6E1C               	movwf	(___fldiv@b+2)^0,c
  4198   000876  0E4A               	movlw	74
  4199   000878  6E1D               	movwf	(___fldiv@b+3)^0,c
  4200   00087A  ECD5  F009         	call	___fldiv	;wreg free
  4201   00087E  C01A  F165         	movff	?___fldiv,_EUSART_Baud_Rate_Calculation$5468
  4202   000882  C01B  F166         	movff	?___fldiv+1,_EUSART_Baud_Rate_Calculation$5468+1
  4203   000886  C01C  F167         	movff	?___fldiv+2,_EUSART_Baud_Rate_Calculation$5468+2
  4204   00088A  C01D  F168         	movff	?___fldiv+3,_EUSART_Baud_Rate_Calculation$5468+3
  4205   00088E                     
  4206                           ;MCAL_Layer/USART/hal_usart.c: 146:             Baud_Rate_Temp=((4000000UL / (float)_eus
      +                          art->baudrate) /4) - 1;
  4207   00088E  0E00               	movlw	0
  4208   000890  6E1E               	movwf	___fldiv@a^0,c
  4209   000892  0E00               	movlw	0
  4210   000894  6E1F               	movwf	(___fldiv@a+1)^0,c
  4211   000896  0E80               	movlw	128
  4212   000898  6E20               	movwf	(___fldiv@a+2)^0,c
  4213   00089A  0E40               	movlw	64
  4214   00089C  6E21               	movwf	(___fldiv@a+3)^0,c
  4215   00089E  C165  F01A         	movff	_EUSART_Baud_Rate_Calculation$5468,___fldiv@b
  4216   0008A2  C166  F01B         	movff	_EUSART_Baud_Rate_Calculation$5468+1,___fldiv@b+1
  4217   0008A6  C167  F01C         	movff	_EUSART_Baud_Rate_Calculation$5468+2,___fldiv@b+2
  4218   0008AA  C168  F01D         	movff	_EUSART_Baud_Rate_Calculation$5468+3,___fldiv@b+3
  4219   0008AE  ECD5  F009         	call	___fldiv	;wreg free
  4220   0008B2  C01A  F033         	movff	?___fldiv,___fladd@b
  4221   0008B6  C01B  F034         	movff	?___fldiv+1,___fladd@b+1
  4222   0008BA  C01C  F035         	movff	?___fldiv+2,___fladd@b+2
  4223   0008BE  C01D  F036         	movff	?___fldiv+3,___fladd@b+3
  4224   0008C2  0E00               	movlw	0
  4225   0008C4  6E37               	movwf	___fladd@a^0,c
  4226   0008C6  0E00               	movlw	0
  4227   0008C8  6E38               	movwf	(___fladd@a+1)^0,c
  4228   0008CA  0E80               	movlw	128
  4229   0008CC  6E39               	movwf	(___fladd@a+2)^0,c
  4230   0008CE  0EBF               	movlw	191
  4231   0008D0  6E3A               	movwf	(___fladd@a+3)^0,c
  4232   0008D2  EC72  F005         	call	___fladd	;wreg free
  4233   0008D6  C033  F161         	movff	?___fladd,EUSART_Baud_Rate_Calculation@Baud_Rate_Temp
  4234   0008DA  C034  F162         	movff	?___fladd+1,EUSART_Baud_Rate_Calculation@Baud_Rate_Temp+1
  4235   0008DE  C035  F163         	movff	?___fladd+2,EUSART_Baud_Rate_Calculation@Baud_Rate_Temp+2
  4236   0008E2  C036  F164         	movff	?___fladd+3,EUSART_Baud_Rate_Calculation@Baud_Rate_Temp+3
  4237                           
  4238                           ;MCAL_Layer/USART/hal_usart.c: 147:             break;
  4239   0008E6  EF56  F005         	goto	l10212
  4240   0008EA                     l1667:
  4241                           
  4242                           ; BSR set to: 1
  4243                           ;MCAL_Layer/USART/hal_usart.c: 149:             TXSTAbits.SYNC= 1;
  4244   0008EA  88AC               	bsf	172,4,c	;volatile
  4245                           
  4246                           ;MCAL_Layer/USART/hal_usart.c: 150:             BAUDCONbits.BRG16 = 0;
  4247   0008EC  96B8               	bcf	184,3,c	;volatile
  4248   0008EE                     
  4249                           ; BSR set to: 1
  4250                           ;MCAL_Layer/USART/hal_usart.c: 151:             Baud_Rate_Temp=((4000000UL / (float)_eus
      +                          art->baudrate) /4) - 1;
  4251   0008EE  C04D  FFD9         	movff	EUSART_Baud_Rate_Calculation@_eusart,fsr2l
  4252   0008F2  C04E  FFDA         	movff	EUSART_Baud_Rate_Calculation@_eusart+1,fsr2h
  4253   0008F6  CFDE F04F          	movff	postinc2,??_EUSART_Baud_Rate_Calculation
  4254   0008FA  CFDD F050          	movff	postdec2,??_EUSART_Baud_Rate_Calculation+1
  4255   0008FE  C04F  F00C         	movff	??_EUSART_Baud_Rate_Calculation,___xxtofl@val
  4256   000902  C050  F00D         	movff	??_EUSART_Baud_Rate_Calculation+1,___xxtofl@val+1
  4257   000906  6A0E               	clrf	(___xxtofl@val+2)^0,c
  4258   000908  6A0F               	clrf	(___xxtofl@val+3)^0,c
  4259   00090A  0E00               	movlw	0
  4260   00090C  ECA2  F00B         	call	___xxtofl
  4261   000910  C00C  F01E         	movff	?___xxtofl,___fldiv@a
  4262   000914  C00D  F01F         	movff	?___xxtofl+1,___fldiv@a+1
  4263   000918  C00E  F020         	movff	?___xxtofl+2,___fldiv@a+2
  4264   00091C  C00F  F021         	movff	?___xxtofl+3,___fldiv@a+3
  4265   000920  0E00               	movlw	0
  4266   000922  6E1A               	movwf	___fldiv@b^0,c
  4267   000924  0E24               	movlw	36
  4268   000926  6E1B               	movwf	(___fldiv@b+1)^0,c
  4269   000928  0E74               	movlw	116
  4270   00092A  6E1C               	movwf	(___fldiv@b+2)^0,c
  4271   00092C  0E4A               	movlw	74
  4272   00092E  6E1D               	movwf	(___fldiv@b+3)^0,c
  4273   000930  ECD5  F009         	call	___fldiv	;wreg free
  4274   000934  C01A  F165         	movff	?___fldiv,_EUSART_Baud_Rate_Calculation$5468
  4275   000938  C01B  F166         	movff	?___fldiv+1,_EUSART_Baud_Rate_Calculation$5468+1
  4276   00093C  C01C  F167         	movff	?___fldiv+2,_EUSART_Baud_Rate_Calculation$5468+2
  4277   000940  C01D  F168         	movff	?___fldiv+3,_EUSART_Baud_Rate_Calculation$5468+3
  4278   000944                     
  4279                           ;MCAL_Layer/USART/hal_usart.c: 151:             Baud_Rate_Temp=((4000000UL / (float)_eus
      +                          art->baudrate) /4) - 1;
  4280   000944  0E00               	movlw	0
  4281   000946  6E1E               	movwf	___fldiv@a^0,c
  4282   000948  0E00               	movlw	0
  4283   00094A  6E1F               	movwf	(___fldiv@a+1)^0,c
  4284   00094C  0E80               	movlw	128
  4285   00094E  6E20               	movwf	(___fldiv@a+2)^0,c
  4286   000950  0E40               	movlw	64
  4287   000952  6E21               	movwf	(___fldiv@a+3)^0,c
  4288   000954  C165  F01A         	movff	_EUSART_Baud_Rate_Calculation$5468,___fldiv@b
  4289   000958  C166  F01B         	movff	_EUSART_Baud_Rate_Calculation$5468+1,___fldiv@b+1
  4290   00095C  C167  F01C         	movff	_EUSART_Baud_Rate_Calculation$5468+2,___fldiv@b+2
  4291   000960  C168  F01D         	movff	_EUSART_Baud_Rate_Calculation$5468+3,___fldiv@b+3
  4292   000964  ECD5  F009         	call	___fldiv	;wreg free
  4293   000968  C01A  F033         	movff	?___fldiv,___fladd@b
  4294   00096C  C01B  F034         	movff	?___fldiv+1,___fladd@b+1
  4295   000970  C01C  F035         	movff	?___fldiv+2,___fladd@b+2
  4296   000974  C01D  F036         	movff	?___fldiv+3,___fladd@b+3
  4297   000978  0E00               	movlw	0
  4298   00097A  6E37               	movwf	___fladd@a^0,c
  4299   00097C  0E00               	movlw	0
  4300   00097E  6E38               	movwf	(___fladd@a+1)^0,c
  4301   000980  0E80               	movlw	128
  4302   000982  6E39               	movwf	(___fladd@a+2)^0,c
  4303   000984  0EBF               	movlw	191
  4304   000986  6E3A               	movwf	(___fladd@a+3)^0,c
  4305   000988  EC72  F005         	call	___fladd	;wreg free
  4306   00098C  C033  F161         	movff	?___fladd,EUSART_Baud_Rate_Calculation@Baud_Rate_Temp
  4307   000990  C034  F162         	movff	?___fladd+1,EUSART_Baud_Rate_Calculation@Baud_Rate_Temp+1
  4308   000994  C035  F163         	movff	?___fladd+2,EUSART_Baud_Rate_Calculation@Baud_Rate_Temp+2
  4309   000998  C036  F164         	movff	?___fladd+3,EUSART_Baud_Rate_Calculation@Baud_Rate_Temp+3
  4310                           
  4311                           ;MCAL_Layer/USART/hal_usart.c: 152:             break;
  4312   00099C  EF56  F005         	goto	l10212
  4313   0009A0                     l1668:
  4314                           
  4315                           ; BSR set to: 1
  4316                           ;MCAL_Layer/USART/hal_usart.c: 154:             TXSTAbits.SYNC= 1;
  4317   0009A0  88AC               	bsf	172,4,c	;volatile
  4318                           
  4319                           ;MCAL_Layer/USART/hal_usart.c: 155:             BAUDCONbits.BRG16 = 1;
  4320   0009A2  86B8               	bsf	184,3,c	;volatile
  4321   0009A4                     
  4322                           ; BSR set to: 1
  4323                           ;MCAL_Layer/USART/hal_usart.c: 156:             Baud_Rate_Temp=((4000000UL / (float)_eus
      +                          art->baudrate) /4) - 1;
  4324   0009A4  C04D  FFD9         	movff	EUSART_Baud_Rate_Calculation@_eusart,fsr2l
  4325   0009A8  C04E  FFDA         	movff	EUSART_Baud_Rate_Calculation@_eusart+1,fsr2h
  4326   0009AC  CFDE F04F          	movff	postinc2,??_EUSART_Baud_Rate_Calculation
  4327   0009B0  CFDD F050          	movff	postdec2,??_EUSART_Baud_Rate_Calculation+1
  4328   0009B4  C04F  F00C         	movff	??_EUSART_Baud_Rate_Calculation,___xxtofl@val
  4329   0009B8  C050  F00D         	movff	??_EUSART_Baud_Rate_Calculation+1,___xxtofl@val+1
  4330   0009BC  6A0E               	clrf	(___xxtofl@val+2)^0,c
  4331   0009BE  6A0F               	clrf	(___xxtofl@val+3)^0,c
  4332   0009C0  0E00               	movlw	0
  4333   0009C2  ECA2  F00B         	call	___xxtofl
  4334   0009C6  C00C  F01E         	movff	?___xxtofl,___fldiv@a
  4335   0009CA  C00D  F01F         	movff	?___xxtofl+1,___fldiv@a+1
  4336   0009CE  C00E  F020         	movff	?___xxtofl+2,___fldiv@a+2
  4337   0009D2  C00F  F021         	movff	?___xxtofl+3,___fldiv@a+3
  4338   0009D6  0E00               	movlw	0
  4339   0009D8  6E1A               	movwf	___fldiv@b^0,c
  4340   0009DA  0E24               	movlw	36
  4341   0009DC  6E1B               	movwf	(___fldiv@b+1)^0,c
  4342   0009DE  0E74               	movlw	116
  4343   0009E0  6E1C               	movwf	(___fldiv@b+2)^0,c
  4344   0009E2  0E4A               	movlw	74
  4345   0009E4  6E1D               	movwf	(___fldiv@b+3)^0,c
  4346   0009E6  ECD5  F009         	call	___fldiv	;wreg free
  4347   0009EA  C01A  F165         	movff	?___fldiv,_EUSART_Baud_Rate_Calculation$5468
  4348   0009EE  C01B  F166         	movff	?___fldiv+1,_EUSART_Baud_Rate_Calculation$5468+1
  4349   0009F2  C01C  F167         	movff	?___fldiv+2,_EUSART_Baud_Rate_Calculation$5468+2
  4350   0009F6  C01D  F168         	movff	?___fldiv+3,_EUSART_Baud_Rate_Calculation$5468+3
  4351   0009FA                     
  4352                           ;MCAL_Layer/USART/hal_usart.c: 156:             Baud_Rate_Temp=((4000000UL / (float)_eus
      +                          art->baudrate) /4) - 1;
  4353   0009FA  0E00               	movlw	0
  4354   0009FC  6E1E               	movwf	___fldiv@a^0,c
  4355   0009FE  0E00               	movlw	0
  4356   000A00  6E1F               	movwf	(___fldiv@a+1)^0,c
  4357   000A02  0E80               	movlw	128
  4358   000A04  6E20               	movwf	(___fldiv@a+2)^0,c
  4359   000A06  0E40               	movlw	64
  4360   000A08  6E21               	movwf	(___fldiv@a+3)^0,c
  4361   000A0A  C165  F01A         	movff	_EUSART_Baud_Rate_Calculation$5468,___fldiv@b
  4362   000A0E  C166  F01B         	movff	_EUSART_Baud_Rate_Calculation$5468+1,___fldiv@b+1
  4363   000A12  C167  F01C         	movff	_EUSART_Baud_Rate_Calculation$5468+2,___fldiv@b+2
  4364   000A16  C168  F01D         	movff	_EUSART_Baud_Rate_Calculation$5468+3,___fldiv@b+3
  4365   000A1A  ECD5  F009         	call	___fldiv	;wreg free
  4366   000A1E  C01A  F033         	movff	?___fldiv,___fladd@b
  4367   000A22  C01B  F034         	movff	?___fldiv+1,___fladd@b+1
  4368   000A26  C01C  F035         	movff	?___fldiv+2,___fladd@b+2
  4369   000A2A  C01D  F036         	movff	?___fldiv+3,___fladd@b+3
  4370   000A2E  0E00               	movlw	0
  4371   000A30  6E37               	movwf	___fladd@a^0,c
  4372   000A32  0E00               	movlw	0
  4373   000A34  6E38               	movwf	(___fladd@a+1)^0,c
  4374   000A36  0E80               	movlw	128
  4375   000A38  6E39               	movwf	(___fladd@a+2)^0,c
  4376   000A3A  0EBF               	movlw	191
  4377   000A3C  6E3A               	movwf	(___fladd@a+3)^0,c
  4378   000A3E  EC72  F005         	call	___fladd	;wreg free
  4379   000A42  C033  F161         	movff	?___fladd,EUSART_Baud_Rate_Calculation@Baud_Rate_Temp
  4380   000A46  C034  F162         	movff	?___fladd+1,EUSART_Baud_Rate_Calculation@Baud_Rate_Temp+1
  4381   000A4A  C035  F163         	movff	?___fladd+2,EUSART_Baud_Rate_Calculation@Baud_Rate_Temp+2
  4382   000A4E  C036  F164         	movff	?___fladd+3,EUSART_Baud_Rate_Calculation@Baud_Rate_Temp+3
  4383                           
  4384                           ;MCAL_Layer/USART/hal_usart.c: 157:             break;
  4385   000A52  EF56  F005         	goto	l10212
  4386   000A56                     l10210:
  4387                           
  4388                           ; BSR set to: 1
  4389   000A56  EE20 F002          	lfsr	2,2
  4390   000A5A  504D               	movf	EUSART_Baud_Rate_Calculation@_eusart^0,w,c
  4391   000A5C  26D9               	addwf	fsr2l,f,c
  4392   000A5E  504E               	movf	(EUSART_Baud_Rate_Calculation@_eusart+1)^0,w,c
  4393   000A60  22DA               	addwfc	fsr2h,f,c
  4394   000A62  50DF               	movf	indf2,w,c
  4395   000A64  6E4F               	movwf	??_EUSART_Baud_Rate_Calculation^0,c
  4396   000A66  6A50               	clrf	(??_EUSART_Baud_Rate_Calculation+1)^0,c
  4397                           
  4398                           ; Switch on 2 bytes has been partitioned into a top level switch of size 1, and 1 sub-sw
      +                          itches
  4399                           ; Switch size 1, requested type "simple"
  4400                           ; Number of cases is 1, Range of values is 0 to 0
  4401                           ; switch strategies available:
  4402                           ; Name         Instructions Cycles
  4403                           ; simple_byte            4     3 (average)
  4404                           ;	Chosen strategy is simple_byte
  4405   000A68  5050               	movf	(??_EUSART_Baud_Rate_Calculation+1)^0,w,c
  4406   000A6A  0A00               	xorlw	0	; case 0
  4407   000A6C  B4D8               	btfsc	status,2,c
  4408   000A6E  EF3B  F005         	goto	l11996
  4409   000A72  EF56  F005         	goto	l10212
  4410   000A76                     l11996:
  4411                           
  4412                           ; BSR set to: 1
  4413                           ; Switch size 1, requested type "simple"
  4414                           ; Number of cases is 6, Range of values is 0 to 5
  4415                           ; switch strategies available:
  4416                           ; Name         Instructions Cycles
  4417                           ; simple_byte           19    10 (average)
  4418                           ;	Chosen strategy is simple_byte
  4419   000A76  504F               	movf	??_EUSART_Baud_Rate_Calculation^0,w,c
  4420   000A78  0A00               	xorlw	0	; case 0
  4421   000A7A  B4D8               	btfsc	status,2,c
  4422   000A7C  EF05  F003         	goto	l1662
  4423   000A80  0A01               	xorlw	1	; case 1
  4424   000A82  B4D8               	btfsc	status,2,c
  4425   000A84  EF61  F003         	goto	l1664
  4426   000A88  0A03               	xorlw	3	; case 2
  4427   000A8A  B4D8               	btfsc	status,2,c
  4428   000A8C  EFBD  F003         	goto	l1665
  4429   000A90  0A01               	xorlw	1	; case 3
  4430   000A92  B4D8               	btfsc	status,2,c
  4431   000A94  EF19  F004         	goto	l1666
  4432   000A98  0A07               	xorlw	7	; case 4
  4433   000A9A  B4D8               	btfsc	status,2,c
  4434   000A9C  EF75  F004         	goto	l1667
  4435   000AA0  0A01               	xorlw	1	; case 5
  4436   000AA2  B4D8               	btfsc	status,2,c
  4437   000AA4  EFD0  F004         	goto	l1668
  4438   000AA8  EF56  F005         	goto	l10212
  4439   000AAC                     l10212:
  4440                           
  4441                           ;MCAL_Layer/USART/hal_usart.c: 160:     SPBRG= (uint8)((uint32)Baud_Rate_Temp);
  4442   000AAC  C161  F043         	movff	EUSART_Baud_Rate_Calculation@Baud_Rate_Temp,___fltol@f1
  4443   000AB0  C162  F044         	movff	EUSART_Baud_Rate_Calculation@Baud_Rate_Temp+1,___fltol@f1+1
  4444   000AB4  C163  F045         	movff	EUSART_Baud_Rate_Calculation@Baud_Rate_Temp+2,___fltol@f1+2
  4445   000AB8  C164  F046         	movff	EUSART_Baud_Rate_Calculation@Baud_Rate_Temp+3,___fltol@f1+3
  4446   000ABC  EC56  F011         	call	___fltol	;wreg free
  4447   000AC0  5043               	movf	?___fltol^0,w,c
  4448   000AC2  6EAF               	movwf	175,c	;volatile
  4449                           
  4450                           ;MCAL_Layer/USART/hal_usart.c: 161:     SPBRGH= (uint8)(((uint32)Baud_Rate_Temp) >> 8);
  4451   000AC4  C161  F043         	movff	EUSART_Baud_Rate_Calculation@Baud_Rate_Temp,___fltol@f1
  4452   000AC8  C162  F044         	movff	EUSART_Baud_Rate_Calculation@Baud_Rate_Temp+1,___fltol@f1+1
  4453   000ACC  C163  F045         	movff	EUSART_Baud_Rate_Calculation@Baud_Rate_Temp+2,___fltol@f1+2
  4454   000AD0  C164  F046         	movff	EUSART_Baud_Rate_Calculation@Baud_Rate_Temp+3,___fltol@f1+3
  4455   000AD4  EC56  F011         	call	___fltol	;wreg free
  4456   000AD8  C044  F043         	movff	?___fltol+1,?___fltol
  4457   000ADC  6A44               	clrf	(?___fltol+1)^0,c
  4458   000ADE  5043               	movf	?___fltol^0,w,c
  4459   000AE0  6EB0               	movwf	176,c	;volatile
  4460   000AE2  0012               	return		;funcret
  4461   000AE4                     __end_of_EUSART_Baud_Rate_Calculation:
  4462                           	callstack 0
  4463                           
  4464 ;; *************** function ___xxtofl *****************
  4465 ;; Defined at:
  4466 ;;		line 10 in file "C:\Program Files\Microchip\xc8\v2.41\pic\sources\c99\common\xxtofl.c"
  4467 ;; Parameters:    Size  Location     Type
  4468 ;;  sign            1    wreg     unsigned char 
  4469 ;;  val             4   11[COMRAM] long 
  4470 ;; Auto vars:     Size  Location     Type
  4471 ;;  sign            1   19[COMRAM] unsigned char 
  4472 ;;  arg             4   21[COMRAM] unsigned long 
  4473 ;;  exp             1   20[COMRAM] unsigned char 
  4474 ;; Return value:  Size  Location     Type
  4475 ;;                  4   11[COMRAM] unsigned char 
  4476 ;; Registers used:
  4477 ;;		wreg, status,2, status,0
  4478 ;; Tracked objects:
  4479 ;;		On entry : 0/0
  4480 ;;		On exit  : 0/0
  4481 ;;		Unchanged: 0/0
  4482 ;; Data sizes:     COMRAM   BANK0   BANK1   BANK2   BANK3   BANK4   BANK5   BANK6   BANK7   BANK8   BANK9  BANK10  BANK1
      +1  BANK12  BANK13  BANK14  BANK15
  4483 ;;      Params:         4       0       0       0       0       0       0       0       0       0       0       0       
      +0       0       0       0       0
  4484 ;;      Locals:         6       0       0       0       0       0       0       0       0       0       0       0       
      +0       0       0       0       0
  4485 ;;      Temps:          4       0       0       0       0       0       0       0       0       0       0       0       
      +0       0       0       0       0
  4486 ;;      Totals:        14       0       0       0       0       0       0       0       0       0       0       0       
      +0       0       0       0       0
  4487 ;;Total ram usage:       14 bytes
  4488 ;; Hardware stack levels used: 1
  4489 ;; Hardware stack levels required when called: 4
  4490 ;; This function calls:
  4491 ;;		Nothing
  4492 ;; This function is called by:
  4493 ;;		_MSSP_I2C_Master_Mode_Clock_CFG
  4494 ;;		_EUSART_Baud_Rate_Calculation
  4495 ;; This function uses a non-reentrant model
  4496 ;;
  4497                           
  4498                           	psect	text16
  4499   001744                     __ptext16:
  4500                           	callstack 0
  4501   001744                     ___xxtofl:
  4502                           	callstack 22
  4503                           
  4504                           ;incstack = 0
  4505                           ;___xxtofl@sign stored from wreg
  4506   001744  6E14               	movwf	___xxtofl@sign^0,c
  4507   001746  5014               	movf	___xxtofl@sign^0,w,c
  4508   001748  B4D8               	btfsc	status,2,c
  4509   00174A  EFA9  F00B         	goto	u9011
  4510   00174E  EFAB  F00B         	goto	u9010
  4511   001752                     u9011:
  4512   001752  EFCD  F00B         	goto	l2525
  4513   001756                     u9010:
  4514   001756  BE0F               	btfsc	(___xxtofl@val+3)^0,7,c
  4515   001758  EFB2  F00B         	goto	u9020
  4516   00175C  EFB0  F00B         	goto	u9021
  4517   001760                     u9021:
  4518   001760  EFCD  F00B         	goto	l2525
  4519   001764                     u9020:
  4520   001764  C00C  F010         	movff	___xxtofl@val,??___xxtofl
  4521   001768  C00D  F011         	movff	___xxtofl@val+1,??___xxtofl+1
  4522   00176C  C00E  F012         	movff	___xxtofl@val+2,??___xxtofl+2
  4523   001770  C00F  F013         	movff	___xxtofl@val+3,??___xxtofl+3
  4524   001774  1E10               	comf	??___xxtofl^0,f,c
  4525   001776  1E11               	comf	(??___xxtofl+1)^0,f,c
  4526   001778  1E12               	comf	(??___xxtofl+2)^0,f,c
  4527   00177A  1E13               	comf	(??___xxtofl+3)^0,f,c
  4528   00177C  2A10               	incf	??___xxtofl^0,f,c
  4529   00177E  0E00               	movlw	0
  4530   001780  2211               	addwfc	(??___xxtofl+1)^0,f,c
  4531   001782  2212               	addwfc	(??___xxtofl+2)^0,f,c
  4532   001784  2213               	addwfc	(??___xxtofl+3)^0,f,c
  4533   001786  C010  F016         	movff	??___xxtofl,___xxtofl@arg
  4534   00178A  C011  F017         	movff	??___xxtofl+1,___xxtofl@arg+1
  4535   00178E  C012  F018         	movff	??___xxtofl+2,___xxtofl@arg+2
  4536   001792  C013  F019         	movff	??___xxtofl+3,___xxtofl@arg+3
  4537   001796  EFD5  F00B         	goto	l10020
  4538   00179A                     l2525:
  4539   00179A  C00C  F016         	movff	___xxtofl@val,___xxtofl@arg
  4540   00179E  C00D  F017         	movff	___xxtofl@val+1,___xxtofl@arg+1
  4541   0017A2  C00E  F018         	movff	___xxtofl@val+2,___xxtofl@arg+2
  4542   0017A6  C00F  F019         	movff	___xxtofl@val+3,___xxtofl@arg+3
  4543   0017AA                     l10020:
  4544   0017AA  500C               	movf	___xxtofl@val^0,w,c
  4545   0017AC  100D               	iorwf	(___xxtofl@val+1)^0,w,c
  4546   0017AE  100E               	iorwf	(___xxtofl@val+2)^0,w,c
  4547   0017B0  100F               	iorwf	(___xxtofl@val+3)^0,w,c
  4548   0017B2  A4D8               	btfss	status,2,c
  4549   0017B4  EFDE  F00B         	goto	u9031
  4550   0017B8  EFE0  F00B         	goto	u9030
  4551   0017BC                     u9031:
  4552   0017BC  EFEA  F00B         	goto	l10026
  4553   0017C0                     u9030:
  4554   0017C0  0E00               	movlw	0
  4555   0017C2  6E0C               	movwf	?___xxtofl^0,c
  4556   0017C4  0E00               	movlw	0
  4557   0017C6  6E0D               	movwf	(?___xxtofl+1)^0,c
  4558   0017C8  0E00               	movlw	0
  4559   0017CA  6E0E               	movwf	(?___xxtofl+2)^0,c
  4560   0017CC  0E00               	movlw	0
  4561   0017CE  6E0F               	movwf	(?___xxtofl+3)^0,c
  4562   0017D0  EF7B  F00C         	goto	l2528
  4563   0017D4                     l10026:
  4564   0017D4  0E96               	movlw	150
  4565   0017D6  6E15               	movwf	___xxtofl@exp^0,c
  4566   0017D8  EFF4  F00B         	goto	l10030
  4567   0017DC                     l10028:
  4568   0017DC  2A15               	incf	___xxtofl@exp^0,f,c
  4569   0017DE  90D8               	bcf	status,0,c
  4570   0017E0  3219               	rrcf	(___xxtofl@arg+3)^0,f,c
  4571   0017E2  3218               	rrcf	(___xxtofl@arg+2)^0,f,c
  4572   0017E4  3217               	rrcf	(___xxtofl@arg+1)^0,f,c
  4573   0017E6  3216               	rrcf	___xxtofl@arg^0,f,c
  4574   0017E8                     l10030:
  4575   0017E8  0E00               	movlw	0
  4576   0017EA  1416               	andwf	___xxtofl@arg^0,w,c
  4577   0017EC  6E10               	movwf	??___xxtofl^0,c
  4578   0017EE  0E00               	movlw	0
  4579   0017F0  1417               	andwf	(___xxtofl@arg+1)^0,w,c
  4580   0017F2  6E11               	movwf	(??___xxtofl+1)^0,c
  4581   0017F4  0E00               	movlw	0
  4582   0017F6  1418               	andwf	(___xxtofl@arg+2)^0,w,c
  4583   0017F8  6E12               	movwf	(??___xxtofl+2)^0,c
  4584   0017FA  0EFE               	movlw	254
  4585   0017FC  1419               	andwf	(___xxtofl@arg+3)^0,w,c
  4586   0017FE  6E13               	movwf	(??___xxtofl+3)^0,c
  4587   001800  5010               	movf	??___xxtofl^0,w,c
  4588   001802  1011               	iorwf	(??___xxtofl+1)^0,w,c
  4589   001804  1012               	iorwf	(??___xxtofl+2)^0,w,c
  4590   001806  1013               	iorwf	(??___xxtofl+3)^0,w,c
  4591   001808  A4D8               	btfss	status,2,c
  4592   00180A  EF09  F00C         	goto	u9041
  4593   00180E  EF0B  F00C         	goto	u9040
  4594   001812                     u9041:
  4595   001812  EFEE  F00B         	goto	l10028
  4596   001816                     u9040:
  4597   001816  EF19  F00C         	goto	l2532
  4598   00181A                     l10032:
  4599   00181A  2A15               	incf	___xxtofl@exp^0,f,c
  4600   00181C  0E01               	movlw	1
  4601   00181E  2616               	addwf	___xxtofl@arg^0,f,c
  4602   001820  0E00               	movlw	0
  4603   001822  2217               	addwfc	(___xxtofl@arg+1)^0,f,c
  4604   001824  2218               	addwfc	(___xxtofl@arg+2)^0,f,c
  4605   001826  2219               	addwfc	(___xxtofl@arg+3)^0,f,c
  4606   001828  90D8               	bcf	status,0,c
  4607   00182A  3219               	rrcf	(___xxtofl@arg+3)^0,f,c
  4608   00182C  3218               	rrcf	(___xxtofl@arg+2)^0,f,c
  4609   00182E  3217               	rrcf	(___xxtofl@arg+1)^0,f,c
  4610   001830  3216               	rrcf	___xxtofl@arg^0,f,c
  4611   001832                     l2532:
  4612   001832  0E00               	movlw	0
  4613   001834  1416               	andwf	___xxtofl@arg^0,w,c
  4614   001836  6E10               	movwf	??___xxtofl^0,c
  4615   001838  0E00               	movlw	0
  4616   00183A  1417               	andwf	(___xxtofl@arg+1)^0,w,c
  4617   00183C  6E11               	movwf	(??___xxtofl+1)^0,c
  4618   00183E  0E00               	movlw	0
  4619   001840  1418               	andwf	(___xxtofl@arg+2)^0,w,c
  4620   001842  6E12               	movwf	(??___xxtofl+2)^0,c
  4621   001844  0EFF               	movlw	255
  4622   001846  1419               	andwf	(___xxtofl@arg+3)^0,w,c
  4623   001848  6E13               	movwf	(??___xxtofl+3)^0,c
  4624   00184A  5010               	movf	??___xxtofl^0,w,c
  4625   00184C  1011               	iorwf	(??___xxtofl+1)^0,w,c
  4626   00184E  1012               	iorwf	(??___xxtofl+2)^0,w,c
  4627   001850  1013               	iorwf	(??___xxtofl+3)^0,w,c
  4628   001852  A4D8               	btfss	status,2,c
  4629   001854  EF2E  F00C         	goto	u9051
  4630   001858  EF30  F00C         	goto	u9050
  4631   00185C                     u9051:
  4632   00185C  EF0D  F00C         	goto	l10032
  4633   001860                     u9050:
  4634   001860  EF38  F00C         	goto	l10040
  4635   001864                     l10038:
  4636   001864  0615               	decf	___xxtofl@exp^0,f,c
  4637   001866  90D8               	bcf	status,0,c
  4638   001868  3616               	rlcf	___xxtofl@arg^0,f,c
  4639   00186A  3617               	rlcf	(___xxtofl@arg+1)^0,f,c
  4640   00186C  3618               	rlcf	(___xxtofl@arg+2)^0,f,c
  4641   00186E  3619               	rlcf	(___xxtofl@arg+3)^0,f,c
  4642   001870                     l10040:
  4643   001870  BE18               	btfsc	(___xxtofl@arg+2)^0,7,c
  4644   001872  EF3D  F00C         	goto	u9061
  4645   001876  EF3F  F00C         	goto	u9060
  4646   00187A                     u9061:
  4647   00187A  EF47  F00C         	goto	l2539
  4648   00187E                     u9060:
  4649   00187E  0E02               	movlw	2
  4650   001880  6015               	cpfslt	___xxtofl@exp^0,c
  4651   001882  EF45  F00C         	goto	u9071
  4652   001886  EF47  F00C         	goto	u9070
  4653   00188A                     u9071:
  4654   00188A  EF32  F00C         	goto	l10038
  4655   00188E                     u9070:
  4656   00188E                     l2539:
  4657   00188E  B015               	btfsc	___xxtofl@exp^0,0,c
  4658   001890  EF4C  F00C         	goto	u9081
  4659   001894  EF4E  F00C         	goto	u9080
  4660   001898                     u9081:
  4661   001898  EF4F  F00C         	goto	l10046
  4662   00189C                     u9080:
  4663   00189C  9E18               	bcf	(___xxtofl@arg+2)^0,7,c
  4664   00189E                     l10046:
  4665   00189E  90D8               	bcf	status,0,c
  4666   0018A0  3215               	rrcf	___xxtofl@exp^0,f,c
  4667   0018A2  C015  F010         	movff	___xxtofl@exp,??___xxtofl
  4668   0018A6  6A11               	clrf	(??___xxtofl+1)^0,c
  4669   0018A8  6A12               	clrf	(??___xxtofl+2)^0,c
  4670   0018AA  6A13               	clrf	(??___xxtofl+3)^0,c
  4671   0018AC  C010  F013         	movff	??___xxtofl,??___xxtofl+3
  4672   0018B0  6A12               	clrf	(??___xxtofl+2)^0,c
  4673   0018B2  6A11               	clrf	(??___xxtofl+1)^0,c
  4674   0018B4  6A10               	clrf	??___xxtofl^0,c
  4675   0018B6  5010               	movf	??___xxtofl^0,w,c
  4676   0018B8  1216               	iorwf	___xxtofl@arg^0,f,c
  4677   0018BA  5011               	movf	(??___xxtofl+1)^0,w,c
  4678   0018BC  1217               	iorwf	(___xxtofl@arg+1)^0,f,c
  4679   0018BE  5012               	movf	(??___xxtofl+2)^0,w,c
  4680   0018C0  1218               	iorwf	(___xxtofl@arg+2)^0,f,c
  4681   0018C2  5013               	movf	(??___xxtofl+3)^0,w,c
  4682   0018C4  1219               	iorwf	(___xxtofl@arg+3)^0,f,c
  4683   0018C6  5014               	movf	___xxtofl@sign^0,w,c
  4684   0018C8  B4D8               	btfsc	status,2,c
  4685   0018CA  EF69  F00C         	goto	u9091
  4686   0018CE  EF6B  F00C         	goto	u9090
  4687   0018D2                     u9091:
  4688   0018D2  EF73  F00C         	goto	l10056
  4689   0018D6                     u9090:
  4690   0018D6  BE0F               	btfsc	(___xxtofl@val+3)^0,7,c
  4691   0018D8  EF72  F00C         	goto	u9100
  4692   0018DC  EF70  F00C         	goto	u9101
  4693   0018E0                     u9101:
  4694   0018E0  EF73  F00C         	goto	l10056
  4695   0018E4                     u9100:
  4696   0018E4  8E19               	bsf	(___xxtofl@arg+3)^0,7,c
  4697   0018E6                     l10056:
  4698   0018E6  C016  F00C         	movff	___xxtofl@arg,?___xxtofl
  4699   0018EA  C017  F00D         	movff	___xxtofl@arg+1,?___xxtofl+1
  4700   0018EE  C018  F00E         	movff	___xxtofl@arg+2,?___xxtofl+2
  4701   0018F2  C019  F00F         	movff	___xxtofl@arg+3,?___xxtofl+3
  4702   0018F6                     l2528:
  4703   0018F6  0012               	return		;funcret
  4704   0018F8                     __end_of___xxtofl:
  4705                           	callstack 0
  4706                           
  4707 ;; *************** function ___fltol *****************
  4708 ;; Defined at:
  4709 ;;		line 43 in file "C:\Program Files\Microchip\xc8\v2.41\pic\sources\c99\common\fltol.c"
  4710 ;; Parameters:    Size  Location     Type
  4711 ;;  f1              4   66[COMRAM] unsigned char 
  4712 ;; Auto vars:     Size  Location     Type
  4713 ;;  exp1            1   75[COMRAM] unsigned char 
  4714 ;;  sign1           1   74[COMRAM] unsigned char 
  4715 ;; Return value:  Size  Location     Type
  4716 ;;                  4   66[COMRAM] long 
  4717 ;; Registers used:
  4718 ;;		wreg, status,2, status,0
  4719 ;; Tracked objects:
  4720 ;;		On entry : 0/0
  4721 ;;		On exit  : 0/0
  4722 ;;		Unchanged: 0/0
  4723 ;; Data sizes:     COMRAM   BANK0   BANK1   BANK2   BANK3   BANK4   BANK5   BANK6   BANK7   BANK8   BANK9  BANK10  BANK1
      +1  BANK12  BANK13  BANK14  BANK15
  4724 ;;      Params:         4       0       0       0       0       0       0       0       0       0       0       0       
      +0       0       0       0       0
  4725 ;;      Locals:         2       0       0       0       0       0       0       0       0       0       0       0       
      +0       0       0       0       0
  4726 ;;      Temps:          4       0       0       0       0       0       0       0       0       0       0       0       
      +0       0       0       0       0
  4727 ;;      Totals:        10       0       0       0       0       0       0       0       0       0       0       0       
      +0       0       0       0       0
  4728 ;;Total ram usage:       10 bytes
  4729 ;; Hardware stack levels used: 1
  4730 ;; Hardware stack levels required when called: 4
  4731 ;; This function calls:
  4732 ;;		Nothing
  4733 ;; This function is called by:
  4734 ;;		_MSSP_I2C_Master_Mode_Clock_CFG
  4735 ;;		_EUSART_Baud_Rate_Calculation
  4736 ;; This function uses a non-reentrant model
  4737 ;;
  4738                           
  4739                           	psect	text17
  4740   0022AC                     __ptext17:
  4741                           	callstack 0
  4742   0022AC                     ___fltol:
  4743                           	callstack 22
  4744   0022AC  3445               	rlcf	(___fltol@f1+2)^0,w,c
  4745   0022AE  3446               	rlcf	(___fltol@f1+3)^0,w,c
  4746   0022B0  6E4C               	movwf	___fltol@exp1^0,c
  4747   0022B2  504C               	movf	___fltol@exp1^0,w,c
  4748   0022B4  A4D8               	btfss	status,2,c
  4749   0022B6  EF5F  F011         	goto	u8941
  4750   0022BA  EF61  F011         	goto	u8940
  4751   0022BE                     u8941:
  4752   0022BE  EF6B  F011         	goto	l9976
  4753   0022C2                     u8940:
  4754   0022C2                     l9972:
  4755   0022C2  0E00               	movlw	0
  4756   0022C4  6E43               	movwf	?___fltol^0,c
  4757   0022C6  0E00               	movlw	0
  4758   0022C8  6E44               	movwf	(?___fltol+1)^0,c
  4759   0022CA  0E00               	movlw	0
  4760   0022CC  6E45               	movwf	(?___fltol+2)^0,c
  4761   0022CE  0E00               	movlw	0
  4762   0022D0  6E46               	movwf	(?___fltol+3)^0,c
  4763   0022D2  EFD8  F011         	goto	l2167
  4764   0022D6                     l9976:
  4765   0022D6  C043  F047         	movff	___fltol@f1,??___fltol
  4766   0022DA  C044  F048         	movff	___fltol@f1+1,??___fltol+1
  4767   0022DE  C045  F049         	movff	___fltol@f1+2,??___fltol+2
  4768   0022E2  C046  F04A         	movff	___fltol@f1+3,??___fltol+3
  4769   0022E6  0E20               	movlw	32
  4770   0022E8  EF7B  F011         	goto	u8950
  4771   0022EC                     u8955:
  4772   0022EC  90D8               	bcf	status,0,c
  4773   0022EE  324A               	rrcf	(??___fltol+3)^0,f,c
  4774   0022F0  3249               	rrcf	(??___fltol+2)^0,f,c
  4775   0022F2  3248               	rrcf	(??___fltol+1)^0,f,c
  4776   0022F4  3247               	rrcf	??___fltol^0,f,c
  4777   0022F6                     u8950:
  4778   0022F6  2EE8               	decfsz	wreg,f,c
  4779   0022F8  EF76  F011         	goto	u8955
  4780   0022FC  5047               	movf	??___fltol^0,w,c
  4781   0022FE  6E4B               	movwf	___fltol@sign1^0,c
  4782   002300  8E45               	bsf	(___fltol@f1+2)^0,7,c
  4783   002302  0EFF               	movlw	255
  4784   002304  1643               	andwf	___fltol@f1^0,f,c
  4785   002306  0EFF               	movlw	255
  4786   002308  1644               	andwf	(___fltol@f1+1)^0,f,c
  4787   00230A  0EFF               	movlw	255
  4788   00230C  1645               	andwf	(___fltol@f1+2)^0,f,c
  4789   00230E  0E00               	movlw	0
  4790   002310  1646               	andwf	(___fltol@f1+3)^0,f,c
  4791   002312  0E96               	movlw	150
  4792   002314  5E4C               	subwf	___fltol@exp1^0,f,c
  4793   002316  BE4C               	btfsc	___fltol@exp1^0,7,c
  4794   002318  EF92  F011         	goto	u8960
  4795   00231C  EF90  F011         	goto	u8961
  4796   002320                     u8961:
  4797   002320  EFA8  F011         	goto	l9996
  4798   002324                     u8960:
  4799   002324  504C               	movf	___fltol@exp1^0,w,c
  4800   002326  0A80               	xorlw	128
  4801   002328  0F97               	addlw	151
  4802   00232A  B0D8               	btfsc	status,0,c
  4803   00232C  EF9A  F011         	goto	u8971
  4804   002330  EF9C  F011         	goto	u8970
  4805   002334                     u8971:
  4806   002334  EF9E  F011         	goto	l9992
  4807   002338                     u8970:
  4808   002338  EF61  F011         	goto	l9972
  4809   00233C                     l9992:
  4810   00233C  90D8               	bcf	status,0,c
  4811   00233E  3246               	rrcf	(___fltol@f1+3)^0,f,c
  4812   002340  3245               	rrcf	(___fltol@f1+2)^0,f,c
  4813   002342  3244               	rrcf	(___fltol@f1+1)^0,f,c
  4814   002344  3243               	rrcf	___fltol@f1^0,f,c
  4815   002346  3E4C               	incfsz	___fltol@exp1^0,f,c
  4816   002348  EF9E  F011         	goto	l9992
  4817   00234C  EFC0  F011         	goto	l10006
  4818   002350                     l9996:
  4819   002350  0E1F               	movlw	31
  4820   002352  644C               	cpfsgt	___fltol@exp1^0,c
  4821   002354  EFAE  F011         	goto	u8981
  4822   002358  EFB0  F011         	goto	u8980
  4823   00235C                     u8981:
  4824   00235C  EFB8  F011         	goto	l10004
  4825   002360                     u8980:
  4826   002360  EF61  F011         	goto	l9972
  4827   002364                     l10002:
  4828   002364  90D8               	bcf	status,0,c
  4829   002366  3643               	rlcf	___fltol@f1^0,f,c
  4830   002368  3644               	rlcf	(___fltol@f1+1)^0,f,c
  4831   00236A  3645               	rlcf	(___fltol@f1+2)^0,f,c
  4832   00236C  3646               	rlcf	(___fltol@f1+3)^0,f,c
  4833   00236E  064C               	decf	___fltol@exp1^0,f,c
  4834   002370                     l10004:
  4835   002370  504C               	movf	___fltol@exp1^0,w,c
  4836   002372  A4D8               	btfss	status,2,c
  4837   002374  EFBE  F011         	goto	u8991
  4838   002378  EFC0  F011         	goto	u8990
  4839   00237C                     u8991:
  4840   00237C  EFB2  F011         	goto	l10002
  4841   002380                     u8990:
  4842   002380                     l10006:
  4843   002380  504B               	movf	___fltol@sign1^0,w,c
  4844   002382  B4D8               	btfsc	status,2,c
  4845   002384  EFC6  F011         	goto	u9001
  4846   002388  EFC8  F011         	goto	u9000
  4847   00238C                     u9001:
  4848   00238C  EFD0  F011         	goto	l10010
  4849   002390                     u9000:
  4850   002390  1E46               	comf	(___fltol@f1+3)^0,f,c
  4851   002392  1E45               	comf	(___fltol@f1+2)^0,f,c
  4852   002394  1E44               	comf	(___fltol@f1+1)^0,f,c
  4853   002396  6C43               	negf	___fltol@f1^0,c
  4854   002398  0E00               	movlw	0
  4855   00239A  2244               	addwfc	(___fltol@f1+1)^0,f,c
  4856   00239C  2245               	addwfc	(___fltol@f1+2)^0,f,c
  4857   00239E  2246               	addwfc	(___fltol@f1+3)^0,f,c
  4858   0023A0                     l10010:
  4859   0023A0  C043  F043         	movff	___fltol@f1,?___fltol
  4860   0023A4  C044  F044         	movff	___fltol@f1+1,?___fltol+1
  4861   0023A8  C045  F045         	movff	___fltol@f1+2,?___fltol+2
  4862   0023AC  C046  F046         	movff	___fltol@f1+3,?___fltol+3
  4863   0023B0                     l2167:
  4864   0023B0  0012               	return		;funcret
  4865   0023B2                     __end_of___fltol:
  4866                           	callstack 0
  4867                           
  4868 ;; *************** function ___fldiv *****************
  4869 ;; Defined at:
  4870 ;;		line 11 in file "C:\Program Files\Microchip\xc8\v2.41\pic\sources\c99\common\sprcdiv.c"
  4871 ;; Parameters:    Size  Location     Type
  4872 ;;  b               4   25[COMRAM] long 
  4873 ;;  a               4   29[COMRAM] long 
  4874 ;; Auto vars:     Size  Location     Type
  4875 ;;  grs             4   44[COMRAM] unsigned long 
  4876 ;;  rem             4   37[COMRAM] unsigned long 
  4877 ;;  new_exp         2   42[COMRAM] short 
  4878 ;;  aexp            1   49[COMRAM] unsigned char 
  4879 ;;  bexp            1   48[COMRAM] unsigned char 
  4880 ;;  sign            1   41[COMRAM] unsigned char 
  4881 ;; Return value:  Size  Location     Type
  4882 ;;                  4   25[COMRAM] unsigned char 
  4883 ;; Registers used:
  4884 ;;		wreg, status,2, status,0
  4885 ;; Tracked objects:
  4886 ;;		On entry : 0/0
  4887 ;;		On exit  : 0/0
  4888 ;;		Unchanged: 0/0
  4889 ;; Data sizes:     COMRAM   BANK0   BANK1   BANK2   BANK3   BANK4   BANK5   BANK6   BANK7   BANK8   BANK9  BANK10  BANK1
      +1  BANK12  BANK13  BANK14  BANK15
  4890 ;;      Params:         8       0       0       0       0       0       0       0       0       0       0       0       
      +0       0       0       0       0
  4891 ;;      Locals:        13       0       0       0       0       0       0       0       0       0       0       0       
      +0       0       0       0       0
  4892 ;;      Temps:          4       0       0       0       0       0       0       0       0       0       0       0       
      +0       0       0       0       0
  4893 ;;      Totals:        25       0       0       0       0       0       0       0       0       0       0       0       
      +0       0       0       0       0
  4894 ;;Total ram usage:       25 bytes
  4895 ;; Hardware stack levels used: 1
  4896 ;; Hardware stack levels required when called: 4
  4897 ;; This function calls:
  4898 ;;		Nothing
  4899 ;; This function is called by:
  4900 ;;		_MSSP_I2C_Master_Mode_Clock_CFG
  4901 ;;		_EUSART_Baud_Rate_Calculation
  4902 ;; This function uses a non-reentrant model
  4903 ;;
  4904                           
  4905                           	psect	text18
  4906   0013AA                     __ptext18:
  4907                           	callstack 0
  4908   0013AA                     ___fldiv:
  4909                           	callstack 22
  4910   0013AA  501D               	movf	(___fldiv@b+3)^0,w,c
  4911   0013AC  0B80               	andlw	128
  4912   0013AE  6E2A               	movwf	___fldiv@sign^0,c
  4913   0013B0  501D               	movf	(___fldiv@b+3)^0,w,c
  4914   0013B2  241D               	addwf	(___fldiv@b+3)^0,w,c
  4915   0013B4  6E31               	movwf	___fldiv@bexp^0,c
  4916   0013B6  AE1C               	btfss	(___fldiv@b+2)^0,7,c
  4917   0013B8  EFE0  F009         	goto	u8711
  4918   0013BC  EFE2  F009         	goto	u8710
  4919   0013C0                     u8711:
  4920   0013C0  EFE3  F009         	goto	l9838
  4921   0013C4                     u8710:
  4922   0013C4  8031               	bsf	___fldiv@bexp^0,0,c
  4923   0013C6                     l9838:
  4924   0013C6  5031               	movf	___fldiv@bexp^0,w,c
  4925   0013C8  B4D8               	btfsc	status,2,c
  4926   0013CA  EFE9  F009         	goto	u8721
  4927   0013CE  EFEB  F009         	goto	u8720
  4928   0013D2                     u8721:
  4929   0013D2  EF00  F00A         	goto	l9848
  4930   0013D6                     u8720:
  4931   0013D6  2831               	incf	___fldiv@bexp^0,w,c
  4932   0013D8  A4D8               	btfss	status,2,c
  4933   0013DA  EFF1  F009         	goto	u8731
  4934   0013DE  EFF3  F009         	goto	u8730
  4935   0013E2                     u8731:
  4936   0013E2  EFFB  F009         	goto	l9844
  4937   0013E6                     u8730:
  4938   0013E6  0E00               	movlw	0
  4939   0013E8  6E1A               	movwf	___fldiv@b^0,c
  4940   0013EA  0E00               	movlw	0
  4941   0013EC  6E1B               	movwf	(___fldiv@b+1)^0,c
  4942   0013EE  0E00               	movlw	0
  4943   0013F0  6E1C               	movwf	(___fldiv@b+2)^0,c
  4944   0013F2  0E00               	movlw	0
  4945   0013F4  6E1D               	movwf	(___fldiv@b+3)^0,c
  4946   0013F6                     l9844:
  4947   0013F6  8E1C               	bsf	(___fldiv@b+2)^0,7,c
  4948   0013F8  0E00               	movlw	0
  4949   0013FA  6E1D               	movwf	(___fldiv@b+3)^0,c
  4950   0013FC  EF08  F00A         	goto	l9850
  4951   001400                     l9848:
  4952   001400  0E00               	movlw	0
  4953   001402  6E1A               	movwf	___fldiv@b^0,c
  4954   001404  0E00               	movlw	0
  4955   001406  6E1B               	movwf	(___fldiv@b+1)^0,c
  4956   001408  0E00               	movlw	0
  4957   00140A  6E1C               	movwf	(___fldiv@b+2)^0,c
  4958   00140C  0E00               	movlw	0
  4959   00140E  6E1D               	movwf	(___fldiv@b+3)^0,c
  4960   001410                     l9850:
  4961   001410  5021               	movf	(___fldiv@a+3)^0,w,c
  4962   001412  0B80               	andlw	128
  4963   001414  1A2A               	xorwf	___fldiv@sign^0,f,c
  4964   001416  5021               	movf	(___fldiv@a+3)^0,w,c
  4965   001418  2421               	addwf	(___fldiv@a+3)^0,w,c
  4966   00141A  6E32               	movwf	___fldiv@aexp^0,c
  4967   00141C  AE20               	btfss	(___fldiv@a+2)^0,7,c
  4968   00141E  EF13  F00A         	goto	u8741
  4969   001422  EF15  F00A         	goto	u8740
  4970   001426                     u8741:
  4971   001426  EF16  F00A         	goto	l9858
  4972   00142A                     u8740:
  4973   00142A  8032               	bsf	___fldiv@aexp^0,0,c
  4974   00142C                     l9858:
  4975   00142C  5032               	movf	___fldiv@aexp^0,w,c
  4976   00142E  B4D8               	btfsc	status,2,c
  4977   001430  EF1C  F00A         	goto	u8751
  4978   001434  EF1E  F00A         	goto	u8750
  4979   001438                     u8751:
  4980   001438  EF33  F00A         	goto	l9868
  4981   00143C                     u8750:
  4982   00143C  2832               	incf	___fldiv@aexp^0,w,c
  4983   00143E  A4D8               	btfss	status,2,c
  4984   001440  EF24  F00A         	goto	u8761
  4985   001444  EF26  F00A         	goto	u8760
  4986   001448                     u8761:
  4987   001448  EF2E  F00A         	goto	l9864
  4988   00144C                     u8760:
  4989   00144C  0E00               	movlw	0
  4990   00144E  6E1E               	movwf	___fldiv@a^0,c
  4991   001450  0E00               	movlw	0
  4992   001452  6E1F               	movwf	(___fldiv@a+1)^0,c
  4993   001454  0E00               	movlw	0
  4994   001456  6E20               	movwf	(___fldiv@a+2)^0,c
  4995   001458  0E00               	movlw	0
  4996   00145A  6E21               	movwf	(___fldiv@a+3)^0,c
  4997   00145C                     l9864:
  4998   00145C  8E20               	bsf	(___fldiv@a+2)^0,7,c
  4999   00145E  0E00               	movlw	0
  5000   001460  6E21               	movwf	(___fldiv@a+3)^0,c
  5001   001462  EF3B  F00A         	goto	l9870
  5002   001466                     l9868:
  5003   001466  0E00               	movlw	0
  5004   001468  6E1E               	movwf	___fldiv@a^0,c
  5005   00146A  0E00               	movlw	0
  5006   00146C  6E1F               	movwf	(___fldiv@a+1)^0,c
  5007   00146E  0E00               	movlw	0
  5008   001470  6E20               	movwf	(___fldiv@a+2)^0,c
  5009   001472  0E00               	movlw	0
  5010   001474  6E21               	movwf	(___fldiv@a+3)^0,c
  5011   001476                     l9870:
  5012   001476  501E               	movf	___fldiv@a^0,w,c
  5013   001478  101F               	iorwf	(___fldiv@a+1)^0,w,c
  5014   00147A  1020               	iorwf	(___fldiv@a+2)^0,w,c
  5015   00147C  1021               	iorwf	(___fldiv@a+3)^0,w,c
  5016   00147E  A4D8               	btfss	status,2,c
  5017   001480  EF44  F00A         	goto	u8771
  5018   001484  EF46  F00A         	goto	u8770
  5019   001488                     u8771:
  5020   001488  EF5E  F00A         	goto	l9882
  5021   00148C                     u8770:
  5022   00148C  0E00               	movlw	0
  5023   00148E  6E1A               	movwf	___fldiv@b^0,c
  5024   001490  0E00               	movlw	0
  5025   001492  6E1B               	movwf	(___fldiv@b+1)^0,c
  5026   001494  0E00               	movlw	0
  5027   001496  6E1C               	movwf	(___fldiv@b+2)^0,c
  5028   001498  0E00               	movlw	0
  5029   00149A  6E1D               	movwf	(___fldiv@b+3)^0,c
  5030   00149C  0E80               	movlw	128
  5031   00149E  121C               	iorwf	(___fldiv@b+2)^0,f,c
  5032   0014A0  0E7F               	movlw	127
  5033   0014A2  121D               	iorwf	(___fldiv@b+3)^0,f,c
  5034   0014A4                     l9876:
  5035   0014A4  502A               	movf	___fldiv@sign^0,w,c
  5036   0014A6  121D               	iorwf	(___fldiv@b+3)^0,f,c
  5037   0014A8  C01A  F01A         	movff	___fldiv@b,?___fldiv
  5038   0014AC  C01B  F01B         	movff	___fldiv@b+1,?___fldiv+1
  5039   0014B0  C01C  F01C         	movff	___fldiv@b+2,?___fldiv+2
  5040   0014B4  C01D  F01D         	movff	___fldiv@b+3,?___fldiv+3
  5041   0014B8  EFA1  F00B         	goto	l2452
  5042   0014BC                     l9882:
  5043   0014BC  5031               	movf	___fldiv@bexp^0,w,c
  5044   0014BE  A4D8               	btfss	status,2,c
  5045   0014C0  EF64  F00A         	goto	u8781
  5046   0014C4  EF66  F00A         	goto	u8780
  5047   0014C8                     u8781:
  5048   0014C8  EF70  F00A         	goto	l9890
  5049   0014CC                     u8780:
  5050   0014CC  0E00               	movlw	0
  5051   0014CE  6E1A               	movwf	?___fldiv^0,c
  5052   0014D0  0E00               	movlw	0
  5053   0014D2  6E1B               	movwf	(?___fldiv+1)^0,c
  5054   0014D4  0E00               	movlw	0
  5055   0014D6  6E1C               	movwf	(?___fldiv+2)^0,c
  5056   0014D8  0E00               	movlw	0
  5057   0014DA  6E1D               	movwf	(?___fldiv+3)^0,c
  5058   0014DC  EFA1  F00B         	goto	l2452
  5059   0014E0                     l9890:
  5060   0014E0  5032               	movf	___fldiv@aexp^0,w,c
  5061   0014E2  C031  F022         	movff	___fldiv@bexp,??___fldiv
  5062   0014E6  6A23               	clrf	(??___fldiv+1)^0,c
  5063   0014E8  5E22               	subwf	??___fldiv^0,f,c
  5064   0014EA  0E00               	movlw	0
  5065   0014EC  5A23               	subwfb	(??___fldiv+1)^0,f,c
  5066   0014EE  0E7F               	movlw	127
  5067   0014F0  2422               	addwf	??___fldiv^0,w,c
  5068   0014F2  6E2B               	movwf	___fldiv@new_exp^0,c
  5069   0014F4  0E00               	movlw	0
  5070   0014F6  2023               	addwfc	(??___fldiv+1)^0,w,c
  5071   0014F8  6E2C               	movwf	(___fldiv@new_exp+1)^0,c
  5072   0014FA  C01A  F026         	movff	___fldiv@b,___fldiv@rem
  5073   0014FE  C01B  F027         	movff	___fldiv@b+1,___fldiv@rem+1
  5074   001502  C01C  F028         	movff	___fldiv@b+2,___fldiv@rem+2
  5075   001506  C01D  F029         	movff	___fldiv@b+3,___fldiv@rem+3
  5076   00150A  0E00               	movlw	0
  5077   00150C  6E1A               	movwf	___fldiv@b^0,c
  5078   00150E  0E00               	movlw	0
  5079   001510  6E1B               	movwf	(___fldiv@b+1)^0,c
  5080   001512  0E00               	movlw	0
  5081   001514  6E1C               	movwf	(___fldiv@b+2)^0,c
  5082   001516  0E00               	movlw	0
  5083   001518  6E1D               	movwf	(___fldiv@b+3)^0,c
  5084   00151A  0E00               	movlw	0
  5085   00151C  6E2D               	movwf	___fldiv@grs^0,c
  5086   00151E  0E00               	movlw	0
  5087   001520  6E2E               	movwf	(___fldiv@grs+1)^0,c
  5088   001522  0E00               	movlw	0
  5089   001524  6E2F               	movwf	(___fldiv@grs+2)^0,c
  5090   001526  0E00               	movlw	0
  5091   001528  6E30               	movwf	(___fldiv@grs+3)^0,c
  5092   00152A  0E00               	movlw	0
  5093   00152C  6E32               	movwf	___fldiv@aexp^0,c
  5094   00152E  EFD1  F00A         	goto	l2454
  5095   001532                     l9900:
  5096   001532  5032               	movf	___fldiv@aexp^0,w,c
  5097   001534  B4D8               	btfsc	status,2,c
  5098   001536  EF9F  F00A         	goto	u8791
  5099   00153A  EFA1  F00A         	goto	u8790
  5100   00153E                     u8791:
  5101   00153E  EFB8  F00A         	goto	l9908
  5102   001542                     u8790:
  5103   001542  90D8               	bcf	status,0,c
  5104   001544  3626               	rlcf	___fldiv@rem^0,f,c
  5105   001546  3627               	rlcf	(___fldiv@rem+1)^0,f,c
  5106   001548  3628               	rlcf	(___fldiv@rem+2)^0,f,c
  5107   00154A  3629               	rlcf	(___fldiv@rem+3)^0,f,c
  5108   00154C  90D8               	bcf	status,0,c
  5109   00154E  361A               	rlcf	___fldiv@b^0,f,c
  5110   001550  361B               	rlcf	(___fldiv@b+1)^0,f,c
  5111   001552  361C               	rlcf	(___fldiv@b+2)^0,f,c
  5112   001554  361D               	rlcf	(___fldiv@b+3)^0,f,c
  5113   001556  AE30               	btfss	(___fldiv@grs+3)^0,7,c
  5114   001558  EFB0  F00A         	goto	u8801
  5115   00155C  EFB2  F00A         	goto	u8800
  5116   001560                     u8801:
  5117   001560  EFB3  F00A         	goto	l2457
  5118   001564                     u8800:
  5119   001564  801A               	bsf	___fldiv@b^0,0,c
  5120   001566                     l2457:
  5121   001566  90D8               	bcf	status,0,c
  5122   001568  362D               	rlcf	___fldiv@grs^0,f,c
  5123   00156A  362E               	rlcf	(___fldiv@grs+1)^0,f,c
  5124   00156C  362F               	rlcf	(___fldiv@grs+2)^0,f,c
  5125   00156E  3630               	rlcf	(___fldiv@grs+3)^0,f,c
  5126   001570                     l9908:
  5127   001570  501E               	movf	___fldiv@a^0,w,c
  5128   001572  5C26               	subwf	___fldiv@rem^0,w,c
  5129   001574  501F               	movf	(___fldiv@a+1)^0,w,c
  5130   001576  5827               	subwfb	(___fldiv@rem+1)^0,w,c
  5131   001578  5020               	movf	(___fldiv@a+2)^0,w,c
  5132   00157A  5828               	subwfb	(___fldiv@rem+2)^0,w,c
  5133   00157C  5021               	movf	(___fldiv@a+3)^0,w,c
  5134   00157E  5829               	subwfb	(___fldiv@rem+3)^0,w,c
  5135   001580  A0D8               	btfss	status,0,c
  5136   001582  EFC5  F00A         	goto	u8811
  5137   001586  EFC7  F00A         	goto	u8810
  5138   00158A                     u8811:
  5139   00158A  EFD0  F00A         	goto	l9914
  5140   00158E                     u8810:
  5141   00158E  8C30               	bsf	(___fldiv@grs+3)^0,6,c
  5142   001590  501E               	movf	___fldiv@a^0,w,c
  5143   001592  5E26               	subwf	___fldiv@rem^0,f,c
  5144   001594  501F               	movf	(___fldiv@a+1)^0,w,c
  5145   001596  5A27               	subwfb	(___fldiv@rem+1)^0,f,c
  5146   001598  5020               	movf	(___fldiv@a+2)^0,w,c
  5147   00159A  5A28               	subwfb	(___fldiv@rem+2)^0,f,c
  5148   00159C  5021               	movf	(___fldiv@a+3)^0,w,c
  5149   00159E  5A29               	subwfb	(___fldiv@rem+3)^0,f,c
  5150   0015A0                     l9914:
  5151   0015A0  2A32               	incf	___fldiv@aexp^0,f,c
  5152   0015A2                     l2454:
  5153   0015A2  0E19               	movlw	25
  5154   0015A4  6432               	cpfsgt	___fldiv@aexp^0,c
  5155   0015A6  EFD7  F00A         	goto	u8821
  5156   0015AA  EFD9  F00A         	goto	u8820
  5157   0015AE                     u8821:
  5158   0015AE  EF99  F00A         	goto	l9900
  5159   0015B2                     u8820:
  5160   0015B2  5026               	movf	___fldiv@rem^0,w,c
  5161   0015B4  1027               	iorwf	(___fldiv@rem+1)^0,w,c
  5162   0015B6  1028               	iorwf	(___fldiv@rem+2)^0,w,c
  5163   0015B8  1029               	iorwf	(___fldiv@rem+3)^0,w,c
  5164   0015BA  B4D8               	btfsc	status,2,c
  5165   0015BC  EFE2  F00A         	goto	u8831
  5166   0015C0  EFE4  F00A         	goto	u8830
  5167   0015C4                     u8831:
  5168   0015C4  EFFC  F00A         	goto	l9926
  5169   0015C8                     u8830:
  5170   0015C8  802D               	bsf	___fldiv@grs^0,0,c
  5171   0015CA  EFFC  F00A         	goto	l9926
  5172   0015CE                     l9920:
  5173   0015CE  90D8               	bcf	status,0,c
  5174   0015D0  361A               	rlcf	___fldiv@b^0,f,c
  5175   0015D2  361B               	rlcf	(___fldiv@b+1)^0,f,c
  5176   0015D4  361C               	rlcf	(___fldiv@b+2)^0,f,c
  5177   0015D6  361D               	rlcf	(___fldiv@b+3)^0,f,c
  5178   0015D8  AE30               	btfss	(___fldiv@grs+3)^0,7,c
  5179   0015DA  EFF1  F00A         	goto	u8841
  5180   0015DE  EFF3  F00A         	goto	u8840
  5181   0015E2                     u8841:
  5182   0015E2  EFF4  F00A         	goto	l2463
  5183   0015E6                     u8840:
  5184   0015E6  801A               	bsf	___fldiv@b^0,0,c
  5185   0015E8                     l2463:
  5186   0015E8  90D8               	bcf	status,0,c
  5187   0015EA  362D               	rlcf	___fldiv@grs^0,f,c
  5188   0015EC  362E               	rlcf	(___fldiv@grs+1)^0,f,c
  5189   0015EE  362F               	rlcf	(___fldiv@grs+2)^0,f,c
  5190   0015F0  3630               	rlcf	(___fldiv@grs+3)^0,f,c
  5191   0015F2  062B               	decf	___fldiv@new_exp^0,f,c
  5192   0015F4  A0D8               	btfss	status,0,c
  5193   0015F6  062C               	decf	(___fldiv@new_exp+1)^0,f,c
  5194   0015F8                     l9926:
  5195   0015F8  AE1C               	btfss	(___fldiv@b+2)^0,7,c
  5196   0015FA  EF01  F00B         	goto	u8851
  5197   0015FE  EF03  F00B         	goto	u8850
  5198   001602                     u8851:
  5199   001602  EFE7  F00A         	goto	l9920
  5200   001606                     u8850:
  5201   001606  0E00               	movlw	0
  5202   001608  6E32               	movwf	___fldiv@aexp^0,c
  5203   00160A  AE30               	btfss	(___fldiv@grs+3)^0,7,c
  5204   00160C  EF0A  F00B         	goto	u8861
  5205   001610  EF0C  F00B         	goto	u8860
  5206   001614                     u8861:
  5207   001614  EF30  F00B         	goto	l2465
  5208   001618                     u8860:
  5209   001618  0EFF               	movlw	255
  5210   00161A  142D               	andwf	___fldiv@grs^0,w,c
  5211   00161C  6E22               	movwf	??___fldiv^0,c
  5212   00161E  0EFF               	movlw	255
  5213   001620  142E               	andwf	(___fldiv@grs+1)^0,w,c
  5214   001622  6E23               	movwf	(??___fldiv+1)^0,c
  5215   001624  0EFF               	movlw	255
  5216   001626  142F               	andwf	(___fldiv@grs+2)^0,w,c
  5217   001628  6E24               	movwf	(??___fldiv+2)^0,c
  5218   00162A  0E7F               	movlw	127
  5219   00162C  1430               	andwf	(___fldiv@grs+3)^0,w,c
  5220   00162E  6E25               	movwf	(??___fldiv+3)^0,c
  5221   001630  5022               	movf	??___fldiv^0,w,c
  5222   001632  1023               	iorwf	(??___fldiv+1)^0,w,c
  5223   001634  1024               	iorwf	(??___fldiv+2)^0,w,c
  5224   001636  1025               	iorwf	(??___fldiv+3)^0,w,c
  5225   001638  B4D8               	btfsc	status,2,c
  5226   00163A  EF21  F00B         	goto	u8871
  5227   00163E  EF23  F00B         	goto	u8870
  5228   001642                     u8871:
  5229   001642  EF27  F00B         	goto	l2466
  5230   001646                     u8870:
  5231   001646                     l9934:
  5232   001646  0E01               	movlw	1
  5233   001648  6E32               	movwf	___fldiv@aexp^0,c
  5234   00164A  EF30  F00B         	goto	l2465
  5235   00164E                     l2466:
  5236   00164E  A01A               	btfss	___fldiv@b^0,0,c
  5237   001650  EF2C  F00B         	goto	u8881
  5238   001654  EF2E  F00B         	goto	u8880
  5239   001658                     u8881:
  5240   001658  EF30  F00B         	goto	l2465
  5241   00165C                     u8880:
  5242   00165C  EF23  F00B         	goto	l9934
  5243   001660                     l2465:
  5244   001660  5032               	movf	___fldiv@aexp^0,w,c
  5245   001662  B4D8               	btfsc	status,2,c
  5246   001664  EF36  F00B         	goto	u8891
  5247   001668  EF38  F00B         	goto	u8890
  5248   00166C                     u8891:
  5249   00166C  EF5C  F00B         	goto	l9946
  5250   001670                     u8890:
  5251   001670  0E01               	movlw	1
  5252   001672  261A               	addwf	___fldiv@b^0,f,c
  5253   001674  0E00               	movlw	0
  5254   001676  221B               	addwfc	(___fldiv@b+1)^0,f,c
  5255   001678  221C               	addwfc	(___fldiv@b+2)^0,f,c
  5256   00167A  221D               	addwfc	(___fldiv@b+3)^0,f,c
  5257   00167C  A01D               	btfss	(___fldiv@b+3)^0,0,c
  5258   00167E  EF43  F00B         	goto	u8901
  5259   001682  EF45  F00B         	goto	u8900
  5260   001686                     u8901:
  5261   001686  EF5C  F00B         	goto	l9946
  5262   00168A                     u8900:
  5263   00168A  C01A  F022         	movff	___fldiv@b,??___fldiv
  5264   00168E  C01B  F023         	movff	___fldiv@b+1,??___fldiv+1
  5265   001692  C01C  F024         	movff	___fldiv@b+2,??___fldiv+2
  5266   001696  C01D  F025         	movff	___fldiv@b+3,??___fldiv+3
  5267   00169A  3425               	rlcf	(??___fldiv+3)^0,w,c
  5268   00169C  3225               	rrcf	(??___fldiv+3)^0,f,c
  5269   00169E  3224               	rrcf	(??___fldiv+2)^0,f,c
  5270   0016A0  3223               	rrcf	(??___fldiv+1)^0,f,c
  5271   0016A2  3222               	rrcf	??___fldiv^0,f,c
  5272   0016A4  C022  F01A         	movff	??___fldiv,___fldiv@b
  5273   0016A8  C023  F01B         	movff	??___fldiv+1,___fldiv@b+1
  5274   0016AC  C024  F01C         	movff	??___fldiv+2,___fldiv@b+2
  5275   0016B0  C025  F01D         	movff	??___fldiv+3,___fldiv@b+3
  5276   0016B4  4A2B               	infsnz	___fldiv@new_exp^0,f,c
  5277   0016B6  2A2C               	incf	(___fldiv@new_exp+1)^0,f,c
  5278   0016B8                     l9946:
  5279   0016B8  BE2C               	btfsc	(___fldiv@new_exp+1)^0,7,c
  5280   0016BA  EF67  F00B         	goto	u8911
  5281   0016BE  502C               	movf	(___fldiv@new_exp+1)^0,w,c
  5282   0016C0  E108               	bnz	u8910
  5283   0016C2  282B               	incf	___fldiv@new_exp^0,w,c
  5284   0016C4  A0D8               	btfss	status,0,c
  5285   0016C6  EF67  F00B         	goto	u8911
  5286   0016CA  EF69  F00B         	goto	u8910
  5287   0016CE                     u8911:
  5288   0016CE  EF74  F00B         	goto	l9950
  5289   0016D2                     u8910:
  5290   0016D2  0E00               	movlw	0
  5291   0016D4  6E2C               	movwf	(___fldiv@new_exp+1)^0,c
  5292   0016D6  682B               	setf	___fldiv@new_exp^0,c
  5293   0016D8  0E00               	movlw	0
  5294   0016DA  6E1A               	movwf	___fldiv@b^0,c
  5295   0016DC  0E00               	movlw	0
  5296   0016DE  6E1B               	movwf	(___fldiv@b+1)^0,c
  5297   0016E0  0E00               	movlw	0
  5298   0016E2  6E1C               	movwf	(___fldiv@b+2)^0,c
  5299   0016E4  0E00               	movlw	0
  5300   0016E6  6E1D               	movwf	(___fldiv@b+3)^0,c
  5301   0016E8                     l9950:
  5302   0016E8  BE2C               	btfsc	(___fldiv@new_exp+1)^0,7,c
  5303   0016EA  EF81  F00B         	goto	u8920
  5304   0016EE  502C               	movf	(___fldiv@new_exp+1)^0,w,c
  5305   0016F0  E106               	bnz	u8921
  5306   0016F2  042B               	decf	___fldiv@new_exp^0,w,c
  5307   0016F4  B0D8               	btfsc	status,0,c
  5308   0016F6  EF7F  F00B         	goto	u8921
  5309   0016FA  EF81  F00B         	goto	u8920
  5310   0016FE                     u8921:
  5311   0016FE  EF8F  F00B         	goto	l9954
  5312   001702                     u8920:
  5313   001702  0E00               	movlw	0
  5314   001704  6E2C               	movwf	(___fldiv@new_exp+1)^0,c
  5315   001706  0E00               	movlw	0
  5316   001708  6E2B               	movwf	___fldiv@new_exp^0,c
  5317   00170A  0E00               	movlw	0
  5318   00170C  6E1A               	movwf	___fldiv@b^0,c
  5319   00170E  0E00               	movlw	0
  5320   001710  6E1B               	movwf	(___fldiv@b+1)^0,c
  5321   001712  0E00               	movlw	0
  5322   001714  6E1C               	movwf	(___fldiv@b+2)^0,c
  5323   001716  0E00               	movlw	0
  5324   001718  6E1D               	movwf	(___fldiv@b+3)^0,c
  5325   00171A  0E00               	movlw	0
  5326   00171C  6E2A               	movwf	___fldiv@sign^0,c
  5327   00171E                     l9954:
  5328   00171E  C02B  F031         	movff	___fldiv@new_exp,___fldiv@bexp
  5329   001722  A031               	btfss	___fldiv@bexp^0,0,c
  5330   001724  EF96  F00B         	goto	u8931
  5331   001728  EF98  F00B         	goto	u8930
  5332   00172C                     u8931:
  5333   00172C  EF9B  F00B         	goto	l9960
  5334   001730                     u8930:
  5335   001730  8E1C               	bsf	(___fldiv@b+2)^0,7,c
  5336   001732  EF9C  F00B         	goto	l9962
  5337   001736                     l9960:
  5338   001736  9E1C               	bcf	(___fldiv@b+2)^0,7,c
  5339   001738                     l9962:
  5340   001738  90D8               	bcf	status,0,c
  5341   00173A  3031               	rrcf	___fldiv@bexp^0,w,c
  5342   00173C  6E1D               	movwf	(___fldiv@b+3)^0,c
  5343   00173E  EF52  F00A         	goto	l9876
  5344   001742                     l2452:
  5345   001742  0012               	return		;funcret
  5346   001744                     __end_of___fldiv:
  5347                           	callstack 0
  5348                           
  5349 ;; *************** function ___fladd *****************
  5350 ;; Defined at:
  5351 ;;		line 10 in file "C:\Program Files\Microchip\xc8\v2.41\pic\sources\c99\common\sprcadd.c"
  5352 ;; Parameters:    Size  Location     Type
  5353 ;;  b               4   50[COMRAM] unsigned char 
  5354 ;;  a               4   54[COMRAM] unsigned char 
  5355 ;; Auto vars:     Size  Location     Type
  5356 ;;  grs             1   65[COMRAM] unsigned char 
  5357 ;;  bexp            1   64[COMRAM] unsigned char 
  5358 ;;  aexp            1   63[COMRAM] unsigned char 
  5359 ;;  signs           1   62[COMRAM] unsigned char 
  5360 ;; Return value:  Size  Location     Type
  5361 ;;                  4   50[COMRAM] unsigned char 
  5362 ;; Registers used:
  5363 ;;		wreg, status,2, status,0
  5364 ;; Tracked objects:
  5365 ;;		On entry : 0/0
  5366 ;;		On exit  : 0/0
  5367 ;;		Unchanged: 0/0
  5368 ;; Data sizes:     COMRAM   BANK0   BANK1   BANK2   BANK3   BANK4   BANK5   BANK6   BANK7   BANK8   BANK9  BANK10  BANK1
      +1  BANK12  BANK13  BANK14  BANK15
  5369 ;;      Params:         8       0       0       0       0       0       0       0       0       0       0       0       
      +0       0       0       0       0
  5370 ;;      Locals:         4       0       0       0       0       0       0       0       0       0       0       0       
      +0       0       0       0       0
  5371 ;;      Temps:          4       0       0       0       0       0       0       0       0       0       0       0       
      +0       0       0       0       0
  5372 ;;      Totals:        16       0       0       0       0       0       0       0       0       0       0       0       
      +0       0       0       0       0
  5373 ;;Total ram usage:       16 bytes
  5374 ;; Hardware stack levels used: 1
  5375 ;; Hardware stack levels required when called: 4
  5376 ;; This function calls:
  5377 ;;		Nothing
  5378 ;; This function is called by:
  5379 ;;		_MSSP_I2C_Master_Mode_Clock_CFG
  5380 ;;		_EUSART_Baud_Rate_Calculation
  5381 ;; This function uses a non-reentrant model
  5382 ;;
  5383                           
  5384                           	psect	text19
  5385   000AE4                     __ptext19:
  5386                           	callstack 0
  5387   000AE4                     ___fladd:
  5388                           	callstack 22
  5389   000AE4  5036               	movf	(___fladd@b+3)^0,w,c
  5390   000AE6  0B80               	andlw	128
  5391   000AE8  6E3F               	movwf	___fladd@signs^0,c
  5392   000AEA  5036               	movf	(___fladd@b+3)^0,w,c
  5393   000AEC  2436               	addwf	(___fladd@b+3)^0,w,c
  5394   000AEE  6E41               	movwf	___fladd@bexp^0,c
  5395   000AF0  AE35               	btfss	(___fladd@b+2)^0,7,c
  5396   000AF2  EF7D  F005         	goto	u8321
  5397   000AF6  EF7F  F005         	goto	u8320
  5398   000AFA                     u8321:
  5399   000AFA  EF80  F005         	goto	l9636
  5400   000AFE                     u8320:
  5401   000AFE  8041               	bsf	___fladd@bexp^0,0,c
  5402   000B00                     l9636:
  5403   000B00  5041               	movf	___fladd@bexp^0,w,c
  5404   000B02  B4D8               	btfsc	status,2,c
  5405   000B04  EF86  F005         	goto	u8331
  5406   000B08  EF88  F005         	goto	u8330
  5407   000B0C                     u8331:
  5408   000B0C  EF9D  F005         	goto	l9646
  5409   000B10                     u8330:
  5410   000B10  2841               	incf	___fladd@bexp^0,w,c
  5411   000B12  A4D8               	btfss	status,2,c
  5412   000B14  EF8E  F005         	goto	u8341
  5413   000B18  EF90  F005         	goto	u8340
  5414   000B1C                     u8341:
  5415   000B1C  EF98  F005         	goto	l9642
  5416   000B20                     u8340:
  5417   000B20  0E00               	movlw	0
  5418   000B22  6E33               	movwf	___fladd@b^0,c
  5419   000B24  0E00               	movlw	0
  5420   000B26  6E34               	movwf	(___fladd@b+1)^0,c
  5421   000B28  0E00               	movlw	0
  5422   000B2A  6E35               	movwf	(___fladd@b+2)^0,c
  5423   000B2C  0E00               	movlw	0
  5424   000B2E  6E36               	movwf	(___fladd@b+3)^0,c
  5425   000B30                     l9642:
  5426   000B30  8E35               	bsf	(___fladd@b+2)^0,7,c
  5427   000B32  0E00               	movlw	0
  5428   000B34  6E36               	movwf	(___fladd@b+3)^0,c
  5429   000B36  EFA5  F005         	goto	l9648
  5430   000B3A                     l9646:
  5431   000B3A  0E00               	movlw	0
  5432   000B3C  6E33               	movwf	___fladd@b^0,c
  5433   000B3E  0E00               	movlw	0
  5434   000B40  6E34               	movwf	(___fladd@b+1)^0,c
  5435   000B42  0E00               	movlw	0
  5436   000B44  6E35               	movwf	(___fladd@b+2)^0,c
  5437   000B46  0E00               	movlw	0
  5438   000B48  6E36               	movwf	(___fladd@b+3)^0,c
  5439   000B4A                     l9648:
  5440   000B4A  503A               	movf	(___fladd@a+3)^0,w,c
  5441   000B4C  0B80               	andlw	128
  5442   000B4E  6E40               	movwf	___fladd@aexp^0,c
  5443   000B50  503F               	movf	___fladd@signs^0,w,c
  5444   000B52  1840               	xorwf	___fladd@aexp^0,w,c
  5445   000B54  B4D8               	btfsc	status,2,c
  5446   000B56  EFAF  F005         	goto	u8351
  5447   000B5A  EFB1  F005         	goto	u8350
  5448   000B5E                     u8351:
  5449   000B5E  EFB2  F005         	goto	l9654
  5450   000B62                     u8350:
  5451   000B62  8C3F               	bsf	___fladd@signs^0,6,c
  5452   000B64                     l9654:
  5453   000B64  503A               	movf	(___fladd@a+3)^0,w,c
  5454   000B66  243A               	addwf	(___fladd@a+3)^0,w,c
  5455   000B68  6E40               	movwf	___fladd@aexp^0,c
  5456   000B6A  AE39               	btfss	(___fladd@a+2)^0,7,c
  5457   000B6C  EFBA  F005         	goto	u8361
  5458   000B70  EFBC  F005         	goto	u8360
  5459   000B74                     u8361:
  5460   000B74  EFBD  F005         	goto	l9660
  5461   000B78                     u8360:
  5462   000B78  8040               	bsf	___fladd@aexp^0,0,c
  5463   000B7A                     l9660:
  5464   000B7A  5040               	movf	___fladd@aexp^0,w,c
  5465   000B7C  B4D8               	btfsc	status,2,c
  5466   000B7E  EFC3  F005         	goto	u8371
  5467   000B82  EFC5  F005         	goto	u8370
  5468   000B86                     u8371:
  5469   000B86  EFDA  F005         	goto	l9670
  5470   000B8A                     u8370:
  5471   000B8A  2840               	incf	___fladd@aexp^0,w,c
  5472   000B8C  A4D8               	btfss	status,2,c
  5473   000B8E  EFCB  F005         	goto	u8381
  5474   000B92  EFCD  F005         	goto	u8380
  5475   000B96                     u8381:
  5476   000B96  EFD5  F005         	goto	l9666
  5477   000B9A                     u8380:
  5478   000B9A  0E00               	movlw	0
  5479   000B9C  6E37               	movwf	___fladd@a^0,c
  5480   000B9E  0E00               	movlw	0
  5481   000BA0  6E38               	movwf	(___fladd@a+1)^0,c
  5482   000BA2  0E00               	movlw	0
  5483   000BA4  6E39               	movwf	(___fladd@a+2)^0,c
  5484   000BA6  0E00               	movlw	0
  5485   000BA8  6E3A               	movwf	(___fladd@a+3)^0,c
  5486   000BAA                     l9666:
  5487   000BAA  8E39               	bsf	(___fladd@a+2)^0,7,c
  5488   000BAC  0E00               	movlw	0
  5489   000BAE  6E3A               	movwf	(___fladd@a+3)^0,c
  5490   000BB0  EFE2  F005         	goto	l9672
  5491   000BB4                     l9670:
  5492   000BB4  0E00               	movlw	0
  5493   000BB6  6E37               	movwf	___fladd@a^0,c
  5494   000BB8  0E00               	movlw	0
  5495   000BBA  6E38               	movwf	(___fladd@a+1)^0,c
  5496   000BBC  0E00               	movlw	0
  5497   000BBE  6E39               	movwf	(___fladd@a+2)^0,c
  5498   000BC0  0E00               	movlw	0
  5499   000BC2  6E3A               	movwf	(___fladd@a+3)^0,c
  5500   000BC4                     l9672:
  5501   000BC4  5041               	movf	___fladd@bexp^0,w,c
  5502   000BC6  5C40               	subwf	___fladd@aexp^0,w,c
  5503   000BC8  B0D8               	btfsc	status,0,c
  5504   000BCA  EFE9  F005         	goto	u8391
  5505   000BCE  EFEB  F005         	goto	u8390
  5506   000BD2                     u8391:
  5507   000BD2  EF12  F006         	goto	l9708
  5508   000BD6                     u8390:
  5509   000BD6  AC3F               	btfss	___fladd@signs^0,6,c
  5510   000BD8  EFF0  F005         	goto	u8401
  5511   000BDC  EFF2  F005         	goto	u8400
  5512   000BE0                     u8401:
  5513   000BE0  EFF4  F005         	goto	l9678
  5514   000BE4                     u8400:
  5515   000BE4  0E80               	movlw	128
  5516   000BE6  1A3F               	xorwf	___fladd@signs^0,f,c
  5517   000BE8                     l9678:
  5518   000BE8  C041  F042         	movff	___fladd@bexp,___fladd@grs
  5519   000BEC  C040  F041         	movff	___fladd@aexp,___fladd@bexp
  5520   000BF0  C042  F040         	movff	___fladd@grs,___fladd@aexp
  5521   000BF4  C033  F042         	movff	___fladd@b,___fladd@grs
  5522   000BF8  C037  F033         	movff	___fladd@a,___fladd@b
  5523   000BFC  C042  F037         	movff	___fladd@grs,___fladd@a
  5524   000C00  C034  F042         	movff	___fladd@b+1,___fladd@grs
  5525   000C04  C038  F034         	movff	___fladd@a+1,___fladd@b+1
  5526   000C08  C042  F038         	movff	___fladd@grs,___fladd@a+1
  5527   000C0C  C035  F042         	movff	___fladd@b+2,___fladd@grs
  5528   000C10  C039  F035         	movff	___fladd@a+2,___fladd@b+2
  5529   000C14  C042  F039         	movff	___fladd@grs,___fladd@a+2
  5530   000C18  C036  F042         	movff	___fladd@b+3,___fladd@grs
  5531   000C1C  C03A  F036         	movff	___fladd@a+3,___fladd@b+3
  5532   000C20  C042  F03A         	movff	___fladd@grs,___fladd@a+3
  5533   000C24                     l9708:
  5534   000C24  0E00               	movlw	0
  5535   000C26  6E42               	movwf	___fladd@grs^0,c
  5536   000C28  5041               	movf	___fladd@bexp^0,w,c
  5537   000C2A  C040  F03B         	movff	___fladd@aexp,??___fladd
  5538   000C2E  6A3C               	clrf	(??___fladd+1)^0,c
  5539   000C30  5E3B               	subwf	??___fladd^0,f,c
  5540   000C32  0E00               	movlw	0
  5541   000C34  5A3C               	subwfb	(??___fladd+1)^0,f,c
  5542   000C36  BE3C               	btfsc	(??___fladd+1)^0,7,c
  5543   000C38  EF27  F006         	goto	u8411
  5544   000C3C  503C               	movf	(??___fladd+1)^0,w,c
  5545   000C3E  E109               	bnz	u8410
  5546   000C40  0E1A               	movlw	26
  5547   000C42  5C3B               	subwf	??___fladd^0,w,c
  5548   000C44  A0D8               	btfss	status,0,c
  5549   000C46  EF27  F006         	goto	u8411
  5550   000C4A  EF29  F006         	goto	u8410
  5551   000C4E                     u8411:
  5552   000C4E  EF60  F006         	goto	l2399
  5553   000C52                     u8410:
  5554   000C52  5033               	movf	___fladd@b^0,w,c
  5555   000C54  1034               	iorwf	(___fladd@b+1)^0,w,c
  5556   000C56  1035               	iorwf	(___fladd@b+2)^0,w,c
  5557   000C58  1036               	iorwf	(___fladd@b+3)^0,w,c
  5558   000C5A  A4D8               	btfss	status,2,c
  5559   000C5C  EF32  F006         	goto	u8421
  5560   000C60  EF35  F006         	goto	u8420
  5561   000C64                     u8421:
  5562   000C64  0E01               	movlw	1
  5563   000C66  EF36  F006         	goto	u8430
  5564   000C6A                     u8420:
  5565   000C6A  0E00               	movlw	0
  5566   000C6C                     u8430:
  5567   000C6C  6E42               	movwf	___fladd@grs^0,c
  5568   000C6E  0E00               	movlw	0
  5569   000C70  6E33               	movwf	___fladd@b^0,c
  5570   000C72  0E00               	movlw	0
  5571   000C74  6E34               	movwf	(___fladd@b+1)^0,c
  5572   000C76  0E00               	movlw	0
  5573   000C78  6E35               	movwf	(___fladd@b+2)^0,c
  5574   000C7A  0E00               	movlw	0
  5575   000C7C  6E36               	movwf	(___fladd@b+3)^0,c
  5576   000C7E  C040  F041         	movff	___fladd@aexp,___fladd@bexp
  5577   000C82  EF69  F006         	goto	l2398
  5578   000C86                     l2400:
  5579   000C86  A042               	btfss	___fladd@grs^0,0,c
  5580   000C88  EF48  F006         	goto	u8441
  5581   000C8C  EF4A  F006         	goto	u8440
  5582   000C90                     u8441:
  5583   000C90  EF50  F006         	goto	l9720
  5584   000C94                     u8440:
  5585   000C94  90D8               	bcf	status,0,c
  5586   000C96  3042               	rrcf	___fladd@grs^0,w,c
  5587   000C98  0901               	iorlw	1
  5588   000C9A  6E42               	movwf	___fladd@grs^0,c
  5589   000C9C  EF52  F006         	goto	l9722
  5590   000CA0                     l9720:
  5591   000CA0  90D8               	bcf	status,0,c
  5592   000CA2  3242               	rrcf	___fladd@grs^0,f,c
  5593   000CA4                     l9722:
  5594   000CA4  A033               	btfss	___fladd@b^0,0,c
  5595   000CA6  EF57  F006         	goto	u8451
  5596   000CAA  EF59  F006         	goto	u8450
  5597   000CAE                     u8451:
  5598   000CAE  EF5A  F006         	goto	l9726
  5599   000CB2                     u8450:
  5600   000CB2  8E42               	bsf	___fladd@grs^0,7,c
  5601   000CB4                     l9726:
  5602   000CB4  3436               	rlcf	(___fladd@b+3)^0,w,c
  5603   000CB6  3236               	rrcf	(___fladd@b+3)^0,f,c
  5604   000CB8  3235               	rrcf	(___fladd@b+2)^0,f,c
  5605   000CBA  3234               	rrcf	(___fladd@b+1)^0,f,c
  5606   000CBC  3233               	rrcf	___fladd@b^0,f,c
  5607   000CBE  2A41               	incf	___fladd@bexp^0,f,c
  5608   000CC0                     l2399:
  5609   000CC0  5040               	movf	___fladd@aexp^0,w,c
  5610   000CC2  5C41               	subwf	___fladd@bexp^0,w,c
  5611   000CC4  A0D8               	btfss	status,0,c
  5612   000CC6  EF67  F006         	goto	u8461
  5613   000CCA  EF69  F006         	goto	u8460
  5614   000CCE                     u8461:
  5615   000CCE  EF43  F006         	goto	l2400
  5616   000CD2                     u8460:
  5617   000CD2                     l2398:
  5618   000CD2  BC3F               	btfsc	___fladd@signs^0,6,c
  5619   000CD4  EF6E  F006         	goto	u8471
  5620   000CD8  EF70  F006         	goto	u8470
  5621   000CDC                     u8471:
  5622   000CDC  EFB0  F006         	goto	l9754
  5623   000CE0                     u8470:
  5624   000CE0  5041               	movf	___fladd@bexp^0,w,c
  5625   000CE2  A4D8               	btfss	status,2,c
  5626   000CE4  EF76  F006         	goto	u8481
  5627   000CE8  EF78  F006         	goto	u8480
  5628   000CEC                     u8481:
  5629   000CEC  EF82  F006         	goto	l9736
  5630   000CF0                     u8480:
  5631   000CF0  0E00               	movlw	0
  5632   000CF2  6E33               	movwf	?___fladd^0,c
  5633   000CF4  0E00               	movlw	0
  5634   000CF6  6E34               	movwf	(?___fladd+1)^0,c
  5635   000CF8  0E00               	movlw	0
  5636   000CFA  6E35               	movwf	(?___fladd+2)^0,c
  5637   000CFC  0E00               	movlw	0
  5638   000CFE  6E36               	movwf	(?___fladd+3)^0,c
  5639   000D00  EFD1  F007         	goto	l2407
  5640   000D04                     l9736:
  5641   000D04  5037               	movf	___fladd@a^0,w,c
  5642   000D06  2633               	addwf	___fladd@b^0,f,c
  5643   000D08  5038               	movf	(___fladd@a+1)^0,w,c
  5644   000D0A  2234               	addwfc	(___fladd@b+1)^0,f,c
  5645   000D0C  5039               	movf	(___fladd@a+2)^0,w,c
  5646   000D0E  2235               	addwfc	(___fladd@b+2)^0,f,c
  5647   000D10  503A               	movf	(___fladd@a+3)^0,w,c
  5648   000D12  2236               	addwfc	(___fladd@b+3)^0,f,c
  5649   000D14  A036               	btfss	(___fladd@b+3)^0,0,c
  5650   000D16  EF8F  F006         	goto	u8491
  5651   000D1A  EF91  F006         	goto	u8490
  5652   000D1E                     u8491:
  5653   000D1E  EF3D  F007         	goto	l9790
  5654   000D22                     u8490:
  5655   000D22  A042               	btfss	___fladd@grs^0,0,c
  5656   000D24  EF96  F006         	goto	u8501
  5657   000D28  EF98  F006         	goto	u8500
  5658   000D2C                     u8501:
  5659   000D2C  EF9E  F006         	goto	l9744
  5660   000D30                     u8500:
  5661   000D30  90D8               	bcf	status,0,c
  5662   000D32  3042               	rrcf	___fladd@grs^0,w,c
  5663   000D34  0901               	iorlw	1
  5664   000D36  6E42               	movwf	___fladd@grs^0,c
  5665   000D38  EFA0  F006         	goto	l9746
  5666   000D3C                     l9744:
  5667   000D3C  90D8               	bcf	status,0,c
  5668   000D3E  3242               	rrcf	___fladd@grs^0,f,c
  5669   000D40                     l9746:
  5670   000D40  A033               	btfss	___fladd@b^0,0,c
  5671   000D42  EFA5  F006         	goto	u8511
  5672   000D46  EFA7  F006         	goto	u8510
  5673   000D4A                     u8511:
  5674   000D4A  EFA8  F006         	goto	l9750
  5675   000D4E                     u8510:
  5676   000D4E  8E42               	bsf	___fladd@grs^0,7,c
  5677   000D50                     l9750:
  5678   000D50  3436               	rlcf	(___fladd@b+3)^0,w,c
  5679   000D52  3236               	rrcf	(___fladd@b+3)^0,f,c
  5680   000D54  3235               	rrcf	(___fladd@b+2)^0,f,c
  5681   000D56  3234               	rrcf	(___fladd@b+1)^0,f,c
  5682   000D58  3233               	rrcf	___fladd@b^0,f,c
  5683   000D5A  2A41               	incf	___fladd@bexp^0,f,c
  5684   000D5C  EF3D  F007         	goto	l9790
  5685   000D60                     l9754:
  5686   000D60  5037               	movf	___fladd@a^0,w,c
  5687   000D62  5C33               	subwf	___fladd@b^0,w,c
  5688   000D64  5038               	movf	(___fladd@a+1)^0,w,c
  5689   000D66  5834               	subwfb	(___fladd@b+1)^0,w,c
  5690   000D68  5039               	movf	(___fladd@a+2)^0,w,c
  5691   000D6A  5835               	subwfb	(___fladd@b+2)^0,w,c
  5692   000D6C  5036               	movf	(___fladd@b+3)^0,w,c
  5693   000D6E  0A80               	xorlw	128
  5694   000D70  6E3B               	movwf	??___fladd^0,c
  5695   000D72  503A               	movf	(___fladd@a+3)^0,w,c
  5696   000D74  0A80               	xorlw	128
  5697   000D76  583B               	subwfb	??___fladd^0,w,c
  5698   000D78  B0D8               	btfsc	status,0,c
  5699   000D7A  EFC1  F006         	goto	u8521
  5700   000D7E  EFC3  F006         	goto	u8520
  5701   000D82                     u8521:
  5702   000D82  EFEE  F006         	goto	l9764
  5703   000D86                     u8520:
  5704   000D86  5033               	movf	___fladd@b^0,w,c
  5705   000D88  5C37               	subwf	___fladd@a^0,w,c
  5706   000D8A  6E3B               	movwf	??___fladd^0,c
  5707   000D8C  5034               	movf	(___fladd@b+1)^0,w,c
  5708   000D8E  5838               	subwfb	(___fladd@a+1)^0,w,c
  5709   000D90  6E3C               	movwf	(??___fladd+1)^0,c
  5710   000D92  5035               	movf	(___fladd@b+2)^0,w,c
  5711   000D94  5839               	subwfb	(___fladd@a+2)^0,w,c
  5712   000D96  6E3D               	movwf	(??___fladd+2)^0,c
  5713   000D98  5036               	movf	(___fladd@b+3)^0,w,c
  5714   000D9A  583A               	subwfb	(___fladd@a+3)^0,w,c
  5715   000D9C  6E3E               	movwf	(??___fladd+3)^0,c
  5716   000D9E  0EFF               	movlw	255
  5717   000DA0  243B               	addwf	??___fladd^0,w,c
  5718   000DA2  6E33               	movwf	___fladd@b^0,c
  5719   000DA4  0EFF               	movlw	255
  5720   000DA6  203C               	addwfc	(??___fladd+1)^0,w,c
  5721   000DA8  6E34               	movwf	(___fladd@b+1)^0,c
  5722   000DAA  0EFF               	movlw	255
  5723   000DAC  203D               	addwfc	(??___fladd+2)^0,w,c
  5724   000DAE  6E35               	movwf	(___fladd@b+2)^0,c
  5725   000DB0  0EFF               	movlw	255
  5726   000DB2  203E               	addwfc	(??___fladd+3)^0,w,c
  5727   000DB4  6E36               	movwf	(___fladd@b+3)^0,c
  5728   000DB6  0E80               	movlw	128
  5729   000DB8  1A3F               	xorwf	___fladd@signs^0,f,c
  5730   000DBA  6C42               	negf	___fladd@grs^0,c
  5731   000DBC  5042               	movf	___fladd@grs^0,w,c
  5732   000DBE  A4D8               	btfss	status,2,c
  5733   000DC0  EFE4  F006         	goto	u8531
  5734   000DC4  EFE6  F006         	goto	u8530
  5735   000DC8                     u8531:
  5736   000DC8  EFF6  F006         	goto	l2415
  5737   000DCC                     u8530:
  5738   000DCC  0E01               	movlw	1
  5739   000DCE  2633               	addwf	___fladd@b^0,f,c
  5740   000DD0  0E00               	movlw	0
  5741   000DD2  2234               	addwfc	(___fladd@b+1)^0,f,c
  5742   000DD4  2235               	addwfc	(___fladd@b+2)^0,f,c
  5743   000DD6  2236               	addwfc	(___fladd@b+3)^0,f,c
  5744   000DD8  EFF6  F006         	goto	l2415
  5745   000DDC                     l9764:
  5746   000DDC  5037               	movf	___fladd@a^0,w,c
  5747   000DDE  5E33               	subwf	___fladd@b^0,f,c
  5748   000DE0  5038               	movf	(___fladd@a+1)^0,w,c
  5749   000DE2  5A34               	subwfb	(___fladd@b+1)^0,f,c
  5750   000DE4  5039               	movf	(___fladd@a+2)^0,w,c
  5751   000DE6  5A35               	subwfb	(___fladd@b+2)^0,f,c
  5752   000DE8  503A               	movf	(___fladd@a+3)^0,w,c
  5753   000DEA  5A36               	subwfb	(___fladd@b+3)^0,f,c
  5754   000DEC                     l2415:
  5755   000DEC  5033               	movf	___fladd@b^0,w,c
  5756   000DEE  1034               	iorwf	(___fladd@b+1)^0,w,c
  5757   000DF0  1035               	iorwf	(___fladd@b+2)^0,w,c
  5758   000DF2  1036               	iorwf	(___fladd@b+3)^0,w,c
  5759   000DF4  A4D8               	btfss	status,2,c
  5760   000DF6  EFFF  F006         	goto	u8541
  5761   000DFA  EF01  F007         	goto	u8540
  5762   000DFE                     u8541:
  5763   000DFE  EF36  F007         	goto	l9788
  5764   000E02                     u8540:
  5765   000E02  5042               	movf	___fladd@grs^0,w,c
  5766   000E04  A4D8               	btfss	status,2,c
  5767   000E06  EF07  F007         	goto	u8551
  5768   000E0A  EF09  F007         	goto	u8550
  5769   000E0E                     u8551:
  5770   000E0E  EF36  F007         	goto	l9788
  5771   000E12                     u8550:
  5772   000E12  0E00               	movlw	0
  5773   000E14  6E33               	movwf	?___fladd^0,c
  5774   000E16  0E00               	movlw	0
  5775   000E18  6E34               	movwf	(?___fladd+1)^0,c
  5776   000E1A  0E00               	movlw	0
  5777   000E1C  6E35               	movwf	(?___fladd+2)^0,c
  5778   000E1E  0E00               	movlw	0
  5779   000E20  6E36               	movwf	(?___fladd+3)^0,c
  5780   000E22  EFD1  F007         	goto	l2407
  5781   000E26                     l9772:
  5782   000E26  90D8               	bcf	status,0,c
  5783   000E28  3633               	rlcf	___fladd@b^0,f,c
  5784   000E2A  3634               	rlcf	(___fladd@b+1)^0,f,c
  5785   000E2C  3635               	rlcf	(___fladd@b+2)^0,f,c
  5786   000E2E  3636               	rlcf	(___fladd@b+3)^0,f,c
  5787   000E30  AE42               	btfss	___fladd@grs^0,7,c
  5788   000E32  EF1D  F007         	goto	u8561
  5789   000E36  EF1F  F007         	goto	u8560
  5790   000E3A                     u8561:
  5791   000E3A  EF20  F007         	goto	l9778
  5792   000E3E                     u8560:
  5793   000E3E  8033               	bsf	___fladd@b^0,0,c
  5794   000E40                     l9778:
  5795   000E40  A042               	btfss	___fladd@grs^0,0,c
  5796   000E42  EF25  F007         	goto	u8571
  5797   000E46  EF27  F007         	goto	u8570
  5798   000E4A                     u8571:
  5799   000E4A  EF2B  F007         	goto	l9782
  5800   000E4E                     u8570:
  5801   000E4E  80D8               	bsf	status,0,c
  5802   000E50  3642               	rlcf	___fladd@grs^0,f,c
  5803   000E52  EF2D  F007         	goto	l9784
  5804   000E56                     l9782:
  5805   000E56  90D8               	bcf	status,0,c
  5806   000E58  3642               	rlcf	___fladd@grs^0,f,c
  5807   000E5A                     l9784:
  5808   000E5A  5041               	movf	___fladd@bexp^0,w,c
  5809   000E5C  B4D8               	btfsc	status,2,c
  5810   000E5E  EF33  F007         	goto	u8581
  5811   000E62  EF35  F007         	goto	u8580
  5812   000E66                     u8581:
  5813   000E66  EF36  F007         	goto	l9788
  5814   000E6A                     u8580:
  5815   000E6A  0641               	decf	___fladd@bexp^0,f,c
  5816   000E6C                     l9788:
  5817   000E6C  AE35               	btfss	(___fladd@b+2)^0,7,c
  5818   000E6E  EF3B  F007         	goto	u8591
  5819   000E72  EF3D  F007         	goto	u8590
  5820   000E76                     u8591:
  5821   000E76  EF13  F007         	goto	l9772
  5822   000E7A                     u8590:
  5823   000E7A                     l9790:
  5824   000E7A  0E00               	movlw	0
  5825   000E7C  6E40               	movwf	___fladd@aexp^0,c
  5826   000E7E  AE42               	btfss	___fladd@grs^0,7,c
  5827   000E80  EF44  F007         	goto	u8601
  5828   000E84  EF46  F007         	goto	u8600
  5829   000E88                     u8601:
  5830   000E88  EF5E  F007         	goto	l2424
  5831   000E8C                     u8600:
  5832   000E8C  C042  F03B         	movff	___fladd@grs,??___fladd
  5833   000E90  0E7F               	movlw	127
  5834   000E92  163B               	andwf	??___fladd^0,f,c
  5835   000E94  B4D8               	btfsc	status,2,c
  5836   000E96  EF4F  F007         	goto	u8611
  5837   000E9A  EF51  F007         	goto	u8610
  5838   000E9E                     u8611:
  5839   000E9E  EF55  F007         	goto	l2425
  5840   000EA2                     u8610:
  5841   000EA2                     l9796:
  5842   000EA2  0E01               	movlw	1
  5843   000EA4  6E40               	movwf	___fladd@aexp^0,c
  5844   000EA6  EF5E  F007         	goto	l2424
  5845   000EAA                     l2425:
  5846   000EAA  A033               	btfss	___fladd@b^0,0,c
  5847   000EAC  EF5A  F007         	goto	u8621
  5848   000EB0  EF5C  F007         	goto	u8620
  5849   000EB4                     u8621:
  5850   000EB4  EF5E  F007         	goto	l2424
  5851   000EB8                     u8620:
  5852   000EB8  EF51  F007         	goto	l9796
  5853   000EBC                     l2424:
  5854   000EBC  5040               	movf	___fladd@aexp^0,w,c
  5855   000EBE  B4D8               	btfsc	status,2,c
  5856   000EC0  EF64  F007         	goto	u8631
  5857   000EC4  EF66  F007         	goto	u8630
  5858   000EC8                     u8631:
  5859   000EC8  EF91  F007         	goto	l9808
  5860   000ECC                     u8630:
  5861   000ECC  0E01               	movlw	1
  5862   000ECE  2633               	addwf	___fladd@b^0,f,c
  5863   000ED0  0E00               	movlw	0
  5864   000ED2  2234               	addwfc	(___fladd@b+1)^0,f,c
  5865   000ED4  2235               	addwfc	(___fladd@b+2)^0,f,c
  5866   000ED6  2236               	addwfc	(___fladd@b+3)^0,f,c
  5867   000ED8  A036               	btfss	(___fladd@b+3)^0,0,c
  5868   000EDA  EF71  F007         	goto	u8641
  5869   000EDE  EF73  F007         	goto	u8640
  5870   000EE2                     u8641:
  5871   000EE2  EF91  F007         	goto	l9808
  5872   000EE6                     u8640:
  5873   000EE6  C033  F03B         	movff	___fladd@b,??___fladd
  5874   000EEA  C034  F03C         	movff	___fladd@b+1,??___fladd+1
  5875   000EEE  C035  F03D         	movff	___fladd@b+2,??___fladd+2
  5876   000EF2  C036  F03E         	movff	___fladd@b+3,??___fladd+3
  5877   000EF6  343E               	rlcf	(??___fladd+3)^0,w,c
  5878   000EF8  323E               	rrcf	(??___fladd+3)^0,f,c
  5879   000EFA  323D               	rrcf	(??___fladd+2)^0,f,c
  5880   000EFC  323C               	rrcf	(??___fladd+1)^0,f,c
  5881   000EFE  323B               	rrcf	??___fladd^0,f,c
  5882   000F00  C03B  F033         	movff	??___fladd,___fladd@b
  5883   000F04  C03C  F034         	movff	??___fladd+1,___fladd@b+1
  5884   000F08  C03D  F035         	movff	??___fladd+2,___fladd@b+2
  5885   000F0C  C03E  F036         	movff	??___fladd+3,___fladd@b+3
  5886   000F10  2841               	incf	___fladd@bexp^0,w,c
  5887   000F12  B4D8               	btfsc	status,2,c
  5888   000F14  EF8E  F007         	goto	u8651
  5889   000F18  EF90  F007         	goto	u8650
  5890   000F1C                     u8651:
  5891   000F1C  EF91  F007         	goto	l9808
  5892   000F20                     u8650:
  5893   000F20  2A41               	incf	___fladd@bexp^0,f,c
  5894   000F22                     l9808:
  5895   000F22  2841               	incf	___fladd@bexp^0,w,c
  5896   000F24  B4D8               	btfsc	status,2,c
  5897   000F26  EF97  F007         	goto	u8661
  5898   000F2A  EF99  F007         	goto	u8660
  5899   000F2E                     u8661:
  5900   000F2E  EFA1  F007         	goto	l9812
  5901   000F32                     u8660:
  5902   000F32  5041               	movf	___fladd@bexp^0,w,c
  5903   000F34  A4D8               	btfss	status,2,c
  5904   000F36  EF9F  F007         	goto	u8671
  5905   000F3A  EFA1  F007         	goto	u8670
  5906   000F3E                     u8671:
  5907   000F3E  EFB3  F007         	goto	l9816
  5908   000F42                     u8670:
  5909   000F42                     l9812:
  5910   000F42  0E00               	movlw	0
  5911   000F44  6E33               	movwf	___fladd@b^0,c
  5912   000F46  0E00               	movlw	0
  5913   000F48  6E34               	movwf	(___fladd@b+1)^0,c
  5914   000F4A  0E00               	movlw	0
  5915   000F4C  6E35               	movwf	(___fladd@b+2)^0,c
  5916   000F4E  0E00               	movlw	0
  5917   000F50  6E36               	movwf	(___fladd@b+3)^0,c
  5918   000F52  5041               	movf	___fladd@bexp^0,w,c
  5919   000F54  A4D8               	btfss	status,2,c
  5920   000F56  EFAF  F007         	goto	u8681
  5921   000F5A  EFB1  F007         	goto	u8680
  5922   000F5E                     u8681:
  5923   000F5E  EFB3  F007         	goto	l9816
  5924   000F62                     u8680:
  5925   000F62  0E00               	movlw	0
  5926   000F64  6E3F               	movwf	___fladd@signs^0,c
  5927   000F66                     l9816:
  5928   000F66  A041               	btfss	___fladd@bexp^0,0,c
  5929   000F68  EFB8  F007         	goto	u8691
  5930   000F6C  EFBA  F007         	goto	u8690
  5931   000F70                     u8691:
  5932   000F70  EFBD  F007         	goto	l9820
  5933   000F74                     u8690:
  5934   000F74  8E35               	bsf	(___fladd@b+2)^0,7,c
  5935   000F76  EFBE  F007         	goto	l9822
  5936   000F7A                     l9820:
  5937   000F7A  9E35               	bcf	(___fladd@b+2)^0,7,c
  5938   000F7C                     l9822:
  5939   000F7C  90D8               	bcf	status,0,c
  5940   000F7E  3041               	rrcf	___fladd@bexp^0,w,c
  5941   000F80  6E36               	movwf	(___fladd@b+3)^0,c
  5942   000F82  AE3F               	btfss	___fladd@signs^0,7,c
  5943   000F84  EFC6  F007         	goto	u8701
  5944   000F88  EFC8  F007         	goto	u8700
  5945   000F8C                     u8701:
  5946   000F8C  EFC9  F007         	goto	l9828
  5947   000F90                     u8700:
  5948   000F90  8E36               	bsf	(___fladd@b+3)^0,7,c
  5949   000F92                     l9828:
  5950   000F92  C033  F033         	movff	___fladd@b,?___fladd
  5951   000F96  C034  F034         	movff	___fladd@b+1,?___fladd+1
  5952   000F9A  C035  F035         	movff	___fladd@b+2,?___fladd+2
  5953   000F9E  C036  F036         	movff	___fladd@b+3,?___fladd+3
  5954   000FA2                     l2407:
  5955   000FA2  0012               	return		;funcret
  5956   000FA4                     __end_of___fladd:
  5957                           	callstack 0
  5958                           
  5959 ;; *************** function _EUSART_ASYNC_TX_Init *****************
  5960 ;; Defined at:
  5961 ;;		line 164 in file "MCAL_Layer/USART/hal_usart.c"
  5962 ;; Parameters:    Size  Location     Type
  5963 ;;  _eusart         2   11[COMRAM] PTR const struct .
  5964 ;;		 -> usart_obj(16), 
  5965 ;; Auto vars:     Size  Location     Type
  5966 ;;		None
  5967 ;; Return value:  Size  Location     Type
  5968 ;;                  1    wreg      void 
  5969 ;; Registers used:
  5970 ;;		wreg, fsr2l, fsr2h, status,2, status,0
  5971 ;; Tracked objects:
  5972 ;;		On entry : 0/0
  5973 ;;		On exit  : 0/0
  5974 ;;		Unchanged: 0/0
  5975 ;; Data sizes:     COMRAM   BANK0   BANK1   BANK2   BANK3   BANK4   BANK5   BANK6   BANK7   BANK8   BANK9  BANK10  BANK1
      +1  BANK12  BANK13  BANK14  BANK15
  5976 ;;      Params:         2       0       0       0       0       0       0       0       0       0       0       0       
      +0       0       0       0       0
  5977 ;;      Locals:         0       0       0       0       0       0       0       0       0       0       0       0       
      +0       0       0       0       0
  5978 ;;      Temps:          0       0       0       0       0       0       0       0       0       0       0       0       
      +0       0       0       0       0
  5979 ;;      Totals:         2       0       0       0       0       0       0       0       0       0       0       0       
      +0       0       0       0       0
  5980 ;;Total ram usage:        2 bytes
  5981 ;; Hardware stack levels used: 1
  5982 ;; Hardware stack levels required when called: 4
  5983 ;; This function calls:
  5984 ;;		Nothing
  5985 ;; This function is called by:
  5986 ;;		_EUSART_ASYNC_Init
  5987 ;; This function uses a non-reentrant model
  5988 ;;
  5989                           
  5990                           	psect	text20
  5991   00276E                     __ptext20:
  5992                           	callstack 0
  5993   00276E                     _EUSART_ASYNC_TX_Init:
  5994                           	callstack 23
  5995   00276E                     
  5996                           ;MCAL_Layer/USART/hal_usart.c: 166:    if(1 == _eusart->usart_tx_cfg.usart_tx_enable) {
  5997   00276E  EE20 F003          	lfsr	2,3
  5998   002772  500C               	movf	EUSART_ASYNC_TX_Init@_eusart^0,w,c
  5999   002774  26D9               	addwf	fsr2l,f,c
  6000   002776  500D               	movf	(EUSART_ASYNC_TX_Init@_eusart+1)^0,w,c
  6001   002778  22DA               	addwfc	fsr2h,f,c
  6002   00277A  AADF               	btfss	indf2,5,c
  6003   00277C  EFC2  F013         	goto	u9311
  6004   002780  EFC4  F013         	goto	u9310
  6005   002784                     u9311:
  6006   002784  EF12  F014         	goto	l10240
  6007   002788                     u9310:
  6008   002788                     
  6009                           ;MCAL_Layer/USART/hal_usart.c: 167:        TXSTAbits.TXEN=1;
  6010   002788  8AAC               	bsf	172,5,c	;volatile
  6011   00278A                     
  6012                           ;MCAL_Layer/USART/hal_usart.c: 168:         EUSART_TxInterruptHandler=_eusart->EUSART_Tx
      +                          DefaultInterruptHandler;
  6013   00278A  EE20 F008          	lfsr	2,8
  6014   00278E  500C               	movf	EUSART_ASYNC_TX_Init@_eusart^0,w,c
  6015   002790  26D9               	addwf	fsr2l,f,c
  6016   002792  500D               	movf	(EUSART_ASYNC_TX_Init@_eusart+1)^0,w,c
  6017   002794  22DA               	addwfc	fsr2h,f,c
  6018   002796  CFDE F08C          	movff	postinc2,_EUSART_TxInterruptHandler
  6019   00279A  CFDD F08D          	movff	postdec2,_EUSART_TxInterruptHandler+1
  6020                           
  6021                           ;MCAL_Layer/USART/hal_usart.c: 170:        if(1 == _eusart->usart_tx_cfg.usart_tx_interr
      +                          upt_enable){
  6022   00279E  EE20 F003          	lfsr	2,3
  6023   0027A2  500C               	movf	EUSART_ASYNC_TX_Init@_eusart^0,w,c
  6024   0027A4  26D9               	addwf	fsr2l,f,c
  6025   0027A6  500D               	movf	(EUSART_ASYNC_TX_Init@_eusart+1)^0,w,c
  6026   0027A8  22DA               	addwfc	fsr2h,f,c
  6027   0027AA  ACDF               	btfss	indf2,6,c
  6028   0027AC  EFDA  F013         	goto	u9321
  6029   0027B0  EFDC  F013         	goto	u9320
  6030   0027B4                     u9321:
  6031   0027B4  EFE2  F013         	goto	l10228
  6032   0027B8                     u9320:
  6033   0027B8                     
  6034                           ;MCAL_Layer/USART/hal_usart.c: 171:             PIE1bits.TXIE=1;
  6035   0027B8  889D               	bsf	157,4,c	;volatile
  6036                           
  6037                           ;MCAL_Layer/USART/hal_usart.c: 174:     (PIE1bits.TXIE=1);
  6038   0027BA  889D               	bsf	157,4,c	;volatile
  6039                           
  6040                           ;MCAL_Layer/USART/hal_usart.c: 187:         (INTCONbits.GIE=1);
  6041   0027BC  8EF2               	bsf	242,7,c	;volatile
  6042                           
  6043                           ;MCAL_Layer/USART/hal_usart.c: 188:         (INTCONbits.PEIE=1);
  6044   0027BE  8CF2               	bsf	242,6,c	;volatile
  6045                           
  6046                           ;MCAL_Layer/USART/hal_usart.c: 191:        }
  6047   0027C0  EFF0  F013         	goto	l10232
  6048   0027C4                     l10228:
  6049   0027C4  EE20 F003          	lfsr	2,3
  6050   0027C8  500C               	movf	EUSART_ASYNC_TX_Init@_eusart^0,w,c
  6051   0027CA  26D9               	addwf	fsr2l,f,c
  6052   0027CC  500D               	movf	(EUSART_ASYNC_TX_Init@_eusart+1)^0,w,c
  6053   0027CE  22DA               	addwfc	fsr2h,f,c
  6054   0027D0  BCDF               	btfsc	indf2,6,c
  6055   0027D2  EFED  F013         	goto	u9331
  6056   0027D6  EFEF  F013         	goto	u9330
  6057   0027DA                     u9331:
  6058   0027DA  EFF0  F013         	goto	l10232
  6059   0027DE                     u9330:
  6060   0027DE                     
  6061                           ;MCAL_Layer/USART/hal_usart.c: 193:           PIE1bits.TXIE=0;
  6062   0027DE  989D               	bcf	157,4,c	;volatile
  6063   0027E0                     l10232:
  6064                           
  6065                           ;MCAL_Layer/USART/hal_usart.c: 197:        if( 1 ==_eusart->usart_tx_cfg.usart_tx_9bit_e
      +                          nable){
  6066   0027E0  EE20 F003          	lfsr	2,3
  6067   0027E4  500C               	movf	EUSART_ASYNC_TX_Init@_eusart^0,w,c
  6068   0027E6  26D9               	addwf	fsr2l,f,c
  6069   0027E8  500D               	movf	(EUSART_ASYNC_TX_Init@_eusart+1)^0,w,c
  6070   0027EA  22DA               	addwfc	fsr2h,f,c
  6071   0027EC  AEDF               	btfss	indf2,7,c
  6072   0027EE  EFFB  F013         	goto	u9341
  6073   0027F2  EFFD  F013         	goto	u9340
  6074   0027F6                     u9341:
  6075   0027F6  EF00  F014         	goto	l10236
  6076   0027FA                     u9340:
  6077   0027FA                     
  6078                           ;MCAL_Layer/USART/hal_usart.c: 198:            TXSTAbits.TX9=1;
  6079   0027FA  8CAC               	bsf	172,6,c	;volatile
  6080                           
  6081                           ;MCAL_Layer/USART/hal_usart.c: 199:        }
  6082   0027FC  EF20  F014         	goto	l1685
  6083   002800                     l10236:
  6084   002800  EE20 F003          	lfsr	2,3
  6085   002804  500C               	movf	EUSART_ASYNC_TX_Init@_eusart^0,w,c
  6086   002806  26D9               	addwf	fsr2l,f,c
  6087   002808  500D               	movf	(EUSART_ASYNC_TX_Init@_eusart+1)^0,w,c
  6088   00280A  22DA               	addwfc	fsr2h,f,c
  6089   00280C  BEDF               	btfsc	indf2,7,c
  6090   00280E  EF0B  F014         	goto	u9351
  6091   002812  EF0D  F014         	goto	u9350
  6092   002816                     u9351:
  6093   002816  EF10  F014         	goto	l1679
  6094   00281A                     u9350:
  6095   00281A                     
  6096                           ;MCAL_Layer/USART/hal_usart.c: 201:            TXSTAbits.TX9=0;
  6097   00281A  9CAC               	bcf	172,6,c	;volatile
  6098                           
  6099                           ;MCAL_Layer/USART/hal_usart.c: 202:        }
  6100   00281C  EF20  F014         	goto	l1685
  6101   002820                     l1679:
  6102                           
  6103                           ;MCAL_Layer/USART/hal_usart.c: 204:    }
  6104   002820  EF20  F014         	goto	l1685
  6105   002824                     l10240:
  6106   002824  EE20 F003          	lfsr	2,3
  6107   002828  500C               	movf	EUSART_ASYNC_TX_Init@_eusart^0,w,c
  6108   00282A  26D9               	addwf	fsr2l,f,c
  6109   00282C  500D               	movf	(EUSART_ASYNC_TX_Init@_eusart+1)^0,w,c
  6110   00282E  22DA               	addwfc	fsr2h,f,c
  6111   002830  BADF               	btfsc	indf2,5,c
  6112   002832  EF1D  F014         	goto	u9361
  6113   002836  EF1F  F014         	goto	u9360
  6114   00283A                     u9361:
  6115   00283A  EF20  F014         	goto	l1685
  6116   00283E                     u9360:
  6117   00283E                     
  6118                           ;MCAL_Layer/USART/hal_usart.c: 206:        TXSTAbits.TXEN=0;
  6119   00283E  9AAC               	bcf	172,5,c	;volatile
  6120   002840                     l1685:
  6121   002840  0012               	return		;funcret
  6122   002842                     __end_of_EUSART_ASYNC_TX_Init:
  6123                           	callstack 0
  6124                           
  6125 ;; *************** function _EUSART_ASYNC_RX_Init *****************
  6126 ;; Defined at:
  6127 ;;		line 211 in file "MCAL_Layer/USART/hal_usart.c"
  6128 ;; Parameters:    Size  Location     Type
  6129 ;;  _eusart         2   11[COMRAM] PTR const struct .
  6130 ;;		 -> usart_obj(16), 
  6131 ;; Auto vars:     Size  Location     Type
  6132 ;;		None
  6133 ;; Return value:  Size  Location     Type
  6134 ;;                  1    wreg      void 
  6135 ;; Registers used:
  6136 ;;		wreg, fsr2l, fsr2h, status,2, status,0
  6137 ;; Tracked objects:
  6138 ;;		On entry : 0/0
  6139 ;;		On exit  : 0/0
  6140 ;;		Unchanged: 0/0
  6141 ;; Data sizes:     COMRAM   BANK0   BANK1   BANK2   BANK3   BANK4   BANK5   BANK6   BANK7   BANK8   BANK9  BANK10  BANK1
      +1  BANK12  BANK13  BANK14  BANK15
  6142 ;;      Params:         2       0       0       0       0       0       0       0       0       0       0       0       
      +0       0       0       0       0
  6143 ;;      Locals:         0       0       0       0       0       0       0       0       0       0       0       0       
      +0       0       0       0       0
  6144 ;;      Temps:          0       0       0       0       0       0       0       0       0       0       0       0       
      +0       0       0       0       0
  6145 ;;      Totals:         2       0       0       0       0       0       0       0       0       0       0       0       
      +0       0       0       0       0
  6146 ;;Total ram usage:        2 bytes
  6147 ;; Hardware stack levels used: 1
  6148 ;; Hardware stack levels required when called: 4
  6149 ;; This function calls:
  6150 ;;		Nothing
  6151 ;; This function is called by:
  6152 ;;		_EUSART_ASYNC_Init
  6153 ;; This function uses a non-reentrant model
  6154 ;;
  6155                           
  6156                           	psect	text21
  6157   0023B2                     __ptext21:
  6158                           	callstack 0
  6159   0023B2                     _EUSART_ASYNC_RX_Init:
  6160                           	callstack 23
  6161   0023B2                     
  6162                           ;MCAL_Layer/USART/hal_usart.c: 213:     if(1 == _eusart->usart_rx_cfg.usart_rx_enable) {
  6163   0023B2  EE20 F005          	lfsr	2,5
  6164   0023B6  500C               	movf	EUSART_ASYNC_RX_Init@_eusart^0,w,c
  6165   0023B8  26D9               	addwf	fsr2l,f,c
  6166   0023BA  500D               	movf	(EUSART_ASYNC_RX_Init@_eusart+1)^0,w,c
  6167   0023BC  22DA               	addwfc	fsr2h,f,c
  6168   0023BE  AADF               	btfss	indf2,5,c
  6169   0023C0  EFE4  F011         	goto	u9371
  6170   0023C4  EFE6  F011         	goto	u9370
  6171   0023C8                     u9371:
  6172   0023C8  EF48  F012         	goto	l10264
  6173   0023CC                     u9370:
  6174   0023CC                     
  6175                           ;MCAL_Layer/USART/hal_usart.c: 214:        RCSTAbits.CREN=1;
  6176   0023CC  88AB               	bsf	171,4,c	;volatile
  6177   0023CE                     
  6178                           ;MCAL_Layer/USART/hal_usart.c: 215:        EUSART_RxInterruptHandler=_eusart->EUSART_RxD
      +                          efaultInterruptHandler;
  6179   0023CE  EE20 F00A          	lfsr	2,10
  6180   0023D2  500C               	movf	EUSART_ASYNC_RX_Init@_eusart^0,w,c
  6181   0023D4  26D9               	addwf	fsr2l,f,c
  6182   0023D6  500D               	movf	(EUSART_ASYNC_RX_Init@_eusart+1)^0,w,c
  6183   0023D8  22DA               	addwfc	fsr2h,f,c
  6184   0023DA  CFDE F08A          	movff	postinc2,_EUSART_RxInterruptHandler
  6185   0023DE  CFDD F08B          	movff	postdec2,_EUSART_RxInterruptHandler+1
  6186                           
  6187                           ;MCAL_Layer/USART/hal_usart.c: 216:        EUSART_FramingErrorHandler=_eusart->EUSART_Fr
      +                          amingErrorHandler;
  6188   0023E2  EE20 F00C          	lfsr	2,12
  6189   0023E6  500C               	movf	EUSART_ASYNC_RX_Init@_eusart^0,w,c
  6190   0023E8  26D9               	addwf	fsr2l,f,c
  6191   0023EA  500D               	movf	(EUSART_ASYNC_RX_Init@_eusart+1)^0,w,c
  6192   0023EC  22DA               	addwfc	fsr2h,f,c
  6193   0023EE  CFDE F088          	movff	postinc2,_EUSART_FramingErrorHandler
  6194   0023F2  CFDD F089          	movff	postdec2,_EUSART_FramingErrorHandler+1
  6195                           
  6196                           ;MCAL_Layer/USART/hal_usart.c: 217:        EUSART_OverrunErrorHandler=_eusart->EUSART_Ov
      +                          errunErrorHandler;
  6197   0023F6  EE20 F00E          	lfsr	2,14
  6198   0023FA  500C               	movf	EUSART_ASYNC_RX_Init@_eusart^0,w,c
  6199   0023FC  26D9               	addwf	fsr2l,f,c
  6200   0023FE  500D               	movf	(EUSART_ASYNC_RX_Init@_eusart+1)^0,w,c
  6201   002400  22DA               	addwfc	fsr2h,f,c
  6202   002402  CFDE F086          	movff	postinc2,_EUSART_OverrunErrorHandler
  6203   002406  CFDD F087          	movff	postdec2,_EUSART_OverrunErrorHandler+1
  6204                           
  6205                           ;MCAL_Layer/USART/hal_usart.c: 219:        if(1 == _eusart->usart_rx_cfg.usart_rx_interr
      +                          upt_enable){
  6206   00240A  EE20 F005          	lfsr	2,5
  6207   00240E  500C               	movf	EUSART_ASYNC_RX_Init@_eusart^0,w,c
  6208   002410  26D9               	addwf	fsr2l,f,c
  6209   002412  500D               	movf	(EUSART_ASYNC_RX_Init@_eusart+1)^0,w,c
  6210   002414  22DA               	addwfc	fsr2h,f,c
  6211   002416  ACDF               	btfss	indf2,6,c
  6212   002418  EF10  F012         	goto	u9381
  6213   00241C  EF12  F012         	goto	u9380
  6214   002420                     u9381:
  6215   002420  EF18  F012         	goto	l10252
  6216   002424                     u9380:
  6217   002424                     
  6218                           ;MCAL_Layer/USART/hal_usart.c: 220:           PIE1bits.RCIE=1;
  6219   002424  8A9D               	bsf	157,5,c	;volatile
  6220                           
  6221                           ;MCAL_Layer/USART/hal_usart.c: 223:     (PIE1bits.RCIE=1);
  6222   002426  8A9D               	bsf	157,5,c	;volatile
  6223                           
  6224                           ;MCAL_Layer/USART/hal_usart.c: 236:         (INTCONbits.GIE=1);
  6225   002428  8EF2               	bsf	242,7,c	;volatile
  6226                           
  6227                           ;MCAL_Layer/USART/hal_usart.c: 237:         (INTCONbits.PEIE=1);
  6228   00242A  8CF2               	bsf	242,6,c	;volatile
  6229                           
  6230                           ;MCAL_Layer/USART/hal_usart.c: 240:        }
  6231   00242C  EF26  F012         	goto	l10256
  6232   002430                     l10252:
  6233   002430  EE20 F005          	lfsr	2,5
  6234   002434  500C               	movf	EUSART_ASYNC_RX_Init@_eusart^0,w,c
  6235   002436  26D9               	addwf	fsr2l,f,c
  6236   002438  500D               	movf	(EUSART_ASYNC_RX_Init@_eusart+1)^0,w,c
  6237   00243A  22DA               	addwfc	fsr2h,f,c
  6238   00243C  BCDF               	btfsc	indf2,6,c
  6239   00243E  EF23  F012         	goto	u9391
  6240   002442  EF25  F012         	goto	u9390
  6241   002446                     u9391:
  6242   002446  EF26  F012         	goto	l10256
  6243   00244A                     u9390:
  6244   00244A                     
  6245                           ;MCAL_Layer/USART/hal_usart.c: 242:           PIE1bits.RCIE=0;
  6246   00244A  9A9D               	bcf	157,5,c	;volatile
  6247   00244C                     l10256:
  6248                           
  6249                           ;MCAL_Layer/USART/hal_usart.c: 246:        if( 1 ==_eusart->usart_rx_cfg.usart_rx_9bit_e
      +                          nable){
  6250   00244C  EE20 F005          	lfsr	2,5
  6251   002450  500C               	movf	EUSART_ASYNC_RX_Init@_eusart^0,w,c
  6252   002452  26D9               	addwf	fsr2l,f,c
  6253   002454  500D               	movf	(EUSART_ASYNC_RX_Init@_eusart+1)^0,w,c
  6254   002456  22DA               	addwfc	fsr2h,f,c
  6255   002458  AEDF               	btfss	indf2,7,c
  6256   00245A  EF31  F012         	goto	u9401
  6257   00245E  EF33  F012         	goto	u9400
  6258   002462                     u9401:
  6259   002462  EF36  F012         	goto	l10260
  6260   002466                     u9400:
  6261   002466                     
  6262                           ;MCAL_Layer/USART/hal_usart.c: 247:          RCSTAbits.RC9=1;
  6263   002466  8CAB               	bsf	171,6,c	;volatile
  6264                           
  6265                           ;MCAL_Layer/USART/hal_usart.c: 248:        }
  6266   002468  EF56  F012         	goto	l1700
  6267   00246C                     l10260:
  6268   00246C  EE20 F005          	lfsr	2,5
  6269   002470  500C               	movf	EUSART_ASYNC_RX_Init@_eusart^0,w,c
  6270   002472  26D9               	addwf	fsr2l,f,c
  6271   002474  500D               	movf	(EUSART_ASYNC_RX_Init@_eusart+1)^0,w,c
  6272   002476  22DA               	addwfc	fsr2h,f,c
  6273   002478  BEDF               	btfsc	indf2,7,c
  6274   00247A  EF41  F012         	goto	u9411
  6275   00247E  EF43  F012         	goto	u9410
  6276   002482                     u9411:
  6277   002482  EF46  F012         	goto	l1694
  6278   002486                     u9410:
  6279   002486                     
  6280                           ;MCAL_Layer/USART/hal_usart.c: 250:          RCSTAbits.RC9=0;
  6281   002486  9CAB               	bcf	171,6,c	;volatile
  6282                           
  6283                           ;MCAL_Layer/USART/hal_usart.c: 251:        }
  6284   002488  EF56  F012         	goto	l1700
  6285   00248C                     l1694:
  6286                           
  6287                           ;MCAL_Layer/USART/hal_usart.c: 253:    }
  6288   00248C  EF56  F012         	goto	l1700
  6289   002490                     l10264:
  6290   002490  EE20 F005          	lfsr	2,5
  6291   002494  500C               	movf	EUSART_ASYNC_RX_Init@_eusart^0,w,c
  6292   002496  26D9               	addwf	fsr2l,f,c
  6293   002498  500D               	movf	(EUSART_ASYNC_RX_Init@_eusart+1)^0,w,c
  6294   00249A  22DA               	addwfc	fsr2h,f,c
  6295   00249C  BADF               	btfsc	indf2,5,c
  6296   00249E  EF53  F012         	goto	u9421
  6297   0024A2  EF55  F012         	goto	u9420
  6298   0024A6                     u9421:
  6299   0024A6  EF56  F012         	goto	l1700
  6300   0024AA                     u9420:
  6301   0024AA                     
  6302                           ;MCAL_Layer/USART/hal_usart.c: 255:        RCSTAbits.CREN=0;
  6303   0024AA  98AB               	bcf	171,4,c	;volatile
  6304   0024AC                     l1700:
  6305   0024AC  0012               	return		;funcret
  6306   0024AE                     __end_of_EUSART_ASYNC_RX_Init:
  6307                           	callstack 0
  6308                           
  6309 ;; *************** function _RealTimeClockDS1307_Get_Date_Time *****************
  6310 ;; Defined at:
  6311 ;;		line 42 in file "ECU_Layer/RealTimeClockDS1307/RealTimeClockDS1307.c"
  6312 ;; Parameters:    Size  Location     Type
  6313 ;;		None
  6314 ;; Auto vars:     Size  Location     Type
  6315 ;;  _data           1    0        unsigned char 
  6316 ;;  slave_ack       1    0        unsigned char 
  6317 ;; Return value:  Size  Location     Type
  6318 ;;                  6   20[COMRAM] struct .
  6319 ;; Registers used:
  6320 ;;		wreg, fsr0l, fsr0h, fsr2l, fsr2h, status,2, status,0, cstack
  6321 ;; Tracked objects:
  6322 ;;		On entry : 0/0
  6323 ;;		On exit  : 0/0
  6324 ;;		Unchanged: 0/0
  6325 ;; Data sizes:     COMRAM   BANK0   BANK1   BANK2   BANK3   BANK4   BANK5   BANK6   BANK7   BANK8   BANK9  BANK10  BANK1
      +1  BANK12  BANK13  BANK14  BANK15
  6326 ;;      Params:         6       0       0       0       0       0       0       0       0       0       0       0       
      +0       0       0       0       0
  6327 ;;      Locals:         0       0       0       0       0       0       0       0       0       0       0       0       
      +0       0       0       0       0
  6328 ;;      Temps:          0       0       0       0       0       0       0       0       0       0       0       0       
      +0       0       0       0       0
  6329 ;;      Totals:         6       0       0       0       0       0       0       0       0       0       0       0       
      +0       0       0       0       0
  6330 ;;Total ram usage:        6 bytes
  6331 ;; Hardware stack levels used: 1
  6332 ;; Hardware stack levels required when called: 6
  6333 ;; This function calls:
  6334 ;;		_Read_RealTimeClockDS1307
  6335 ;; This function is called by:
  6336 ;;		_main
  6337 ;; This function uses a non-reentrant model
  6338 ;;
  6339                           
  6340                           	psect	text22
  6341   0036B6                     __ptext22:
  6342                           	callstack 0
  6343   0036B6                     _RealTimeClockDS1307_Get_Date_Time:
  6344                           	callstack 24
  6345   0036B6                     
  6346                           ;ECU_Layer/RealTimeClockDS1307/RealTimeClockDS1307.c: 43:     uint8 slave_ack;;ECU_Layer
      +                          /RealTimeClockDS1307/RealTimeClockDS1307.c: 44:     uint8 _data;;ECU_Layer/RealTimeClock
      +                          DS1307/RealTimeClockDS1307.c: 47:     RealTimeClockDS1307._Seconds= Read_RealTimeClockDS
      +                          1307(0x00);
  6347   0036B6  0E00               	movlw	0
  6348   0036B8  EC46  F013         	call	_Read_RealTimeClockDS1307
  6349   0036BC  0100               	movlb	0	; () banked
  6350   0036BE  6F82               	movwf	(_RealTimeClockDS1307@RealTimeClockDS1307$F644+2)& (0+255),b
  6351                           
  6352                           ;ECU_Layer/RealTimeClockDS1307/RealTimeClockDS1307.c: 48:     RealTimeClockDS1307._Minut
      +                          es= Read_RealTimeClockDS1307(0x01);
  6353   0036C0  0E01               	movlw	1
  6354   0036C2  EC46  F013         	call	_Read_RealTimeClockDS1307
  6355   0036C6  0100               	movlb	0	; () banked
  6356   0036C8  6F81               	movwf	(_RealTimeClockDS1307@RealTimeClockDS1307$F644+1)& (0+255),b
  6357                           
  6358                           ;ECU_Layer/RealTimeClockDS1307/RealTimeClockDS1307.c: 49:     RealTimeClockDS1307._Hours
      +                          = Read_RealTimeClockDS1307(0x02);
  6359   0036CA  0E02               	movlw	2
  6360   0036CC  EC46  F013         	call	_Read_RealTimeClockDS1307
  6361   0036D0  0100               	movlb	0	; () banked
  6362   0036D2  6F80               	movwf	_RealTimeClockDS1307@RealTimeClockDS1307$F644& (0+255),b
  6363                           
  6364                           ;ECU_Layer/RealTimeClockDS1307/RealTimeClockDS1307.c: 50:     RealTimeClockDS1307._Day= 
      +                          Read_RealTimeClockDS1307(0x04);
  6365   0036D4  0E04               	movlw	4
  6366   0036D6  EC46  F013         	call	_Read_RealTimeClockDS1307
  6367   0036DA  0100               	movlb	0	; () banked
  6368   0036DC  6F85               	movwf	(_RealTimeClockDS1307@RealTimeClockDS1307$F644+5)& (0+255),b
  6369                           
  6370                           ;ECU_Layer/RealTimeClockDS1307/RealTimeClockDS1307.c: 51:     RealTimeClockDS1307._Month
      +                          = Read_RealTimeClockDS1307(0x05);
  6371   0036DE  0E05               	movlw	5
  6372   0036E0  EC46  F013         	call	_Read_RealTimeClockDS1307
  6373   0036E4  0100               	movlb	0	; () banked
  6374   0036E6  6F84               	movwf	(_RealTimeClockDS1307@RealTimeClockDS1307$F644+4)& (0+255),b
  6375                           
  6376                           ;ECU_Layer/RealTimeClockDS1307/RealTimeClockDS1307.c: 52:     RealTimeClockDS1307._Year=
      +                           Read_RealTimeClockDS1307(0x06);
  6377   0036E8  0E06               	movlw	6
  6378   0036EA  EC46  F013         	call	_Read_RealTimeClockDS1307
  6379   0036EE  0100               	movlb	0	; () banked
  6380   0036F0  6F83               	movwf	(_RealTimeClockDS1307@RealTimeClockDS1307$F644+3)& (0+255),b
  6381   0036F2                     
  6382                           ; BSR set to: 0
  6383                           ;ECU_Layer/RealTimeClockDS1307/RealTimeClockDS1307.c: 55:     return RealTimeClockDS1307
      +                          ;
  6384   0036F2  EE20  F080         	lfsr	2,_RealTimeClockDS1307@RealTimeClockDS1307$F644
  6385   0036F6  EE00  F015         	lfsr	0,?_RealTimeClockDS1307_Get_Date_Time
  6386   0036FA  0E05               	movlw	5
  6387   0036FC                     u10111:
  6388   0036FC  CFDB FFEB          	movff	plusw2,plusw0
  6389   003700  06E8               	decf	wreg,f,c
  6390   003702  E2FC               	bc	u10111
  6391   003704                     
  6392                           ; BSR set to: 0
  6393   003704  0012               	return		;funcret
  6394   003706                     __end_of_RealTimeClockDS1307_Get_Date_Time:
  6395                           	callstack 0
  6396                           
  6397 ;; *************** function _Read_RealTimeClockDS1307 *****************
  6398 ;; Defined at:
  6399 ;;		line 17 in file "ECU_Layer/RealTimeClockDS1307/RealTimeClockDS1307.c"
  6400 ;; Parameters:    Size  Location     Type
  6401 ;;  add             1    wreg     unsigned char 
  6402 ;; Auto vars:     Size  Location     Type
  6403 ;;  add             1   17[COMRAM] unsigned char 
  6404 ;;  slave_ack       1   19[COMRAM] unsigned char 
  6405 ;;  data_read       1   18[COMRAM] unsigned char 
  6406 ;; Return value:  Size  Location     Type
  6407 ;;                  1    wreg      unsigned char 
  6408 ;; Registers used:
  6409 ;;		wreg, fsr2l, fsr2h, status,2, status,0, cstack
  6410 ;; Tracked objects:
  6411 ;;		On entry : 0/0
  6412 ;;		On exit  : 0/0
  6413 ;;		Unchanged: 0/0
  6414 ;; Data sizes:     COMRAM   BANK0   BANK1   BANK2   BANK3   BANK4   BANK5   BANK6   BANK7   BANK8   BANK9  BANK10  BANK1
      +1  BANK12  BANK13  BANK14  BANK15
  6415 ;;      Params:         0       0       0       0       0       0       0       0       0       0       0       0       
      +0       0       0       0       0
  6416 ;;      Locals:         3       0       0       0       0       0       0       0       0       0       0       0       
      +0       0       0       0       0
  6417 ;;      Temps:          1       0       0       0       0       0       0       0       0       0       0       0       
      +0       0       0       0       0
  6418 ;;      Totals:         4       0       0       0       0       0       0       0       0       0       0       0       
      +0       0       0       0       0
  6419 ;;Total ram usage:        4 bytes
  6420 ;; Hardware stack levels used: 1
  6421 ;; Hardware stack levels required when called: 5
  6422 ;; This function calls:
  6423 ;;		_MSSP_I2C_Master_Read_Blocking
  6424 ;;		_MSSP_I2C_Master_Send_Repeated_Start
  6425 ;;		_MSSP_I2C_Master_Send_Start
  6426 ;;		_MSSP_I2C_Master_Send_Stop
  6427 ;;		_MSSP_I2C_Master_Write_Blocking
  6428 ;; This function is called by:
  6429 ;;		_RealTimeClockDS1307_Get_Date_Time
  6430 ;; This function uses a non-reentrant model
  6431 ;;
  6432                           
  6433                           	psect	text23
  6434   00268C                     __ptext23:
  6435                           	callstack 0
  6436   00268C                     _Read_RealTimeClockDS1307:
  6437                           	callstack 24
  6438                           
  6439                           ; BSR set to: 0
  6440                           ;incstack = 0
  6441                           ;Read_RealTimeClockDS1307@add stored from wreg
  6442   00268C  6E12               	movwf	Read_RealTimeClockDS1307@add^0,c
  6443   00268E                     
  6444                           ;ECU_Layer/RealTimeClockDS1307/RealTimeClockDS1307.c: 18:     uint8 data_read;;ECU_Layer
      +                          /RealTimeClockDS1307/RealTimeClockDS1307.c: 19:     uint8 slave_ack;;ECU_Layer/RealTimeC
      +                          lockDS1307/RealTimeClockDS1307.c: 21:    ret= MSSP_I2C_Master_Send_Start(&i2c_obj);
  6445   00268E  0E65               	movlw	low _i2c_obj
  6446   002690  6E0C               	movwf	MSSP_I2C_Master_Send_Start@i2c_obj^0,c
  6447   002692  0E00               	movlw	high _i2c_obj
  6448   002694  6E0D               	movwf	(MSSP_I2C_Master_Send_Start@i2c_obj+1)^0,c
  6449   002696  EC16  F01C         	call	_MSSP_I2C_Master_Send_Start	;wreg free
  6450   00269A  6E6F               	movwf	_ret^0,c
  6451   00269C                     
  6452                           ;ECU_Layer/RealTimeClockDS1307/RealTimeClockDS1307.c: 22:     _delay((unsigned long)((10
      +                          )*(4000000UL/4000.0))) ;
  6453   00269C  0E0D               	movlw	13
  6454   00269E  6E11               	movwf	??_Read_RealTimeClockDS1307^0,c
  6455   0026A0  0EFC               	movlw	252
  6456   0026A2                     u10797:
  6457   0026A2  2EE8               	decfsz	wreg,f,c
  6458   0026A4  D7FE               	bra	u10797
  6459   0026A6  2E11               	decfsz	??_Read_RealTimeClockDS1307^0,f,c
  6460   0026A8  D7FC               	bra	u10797
  6461   0026AA                     
  6462                           ;ECU_Layer/RealTimeClockDS1307/RealTimeClockDS1307.c: 23:      ret= MSSP_I2C_Master_Writ
      +                          e_Blocking(&i2c_obj,0xD0,&slave_ack);
  6463   0026AA  0E65               	movlw	low _i2c_obj
  6464   0026AC  6E0C               	movwf	MSSP_I2C_Master_Write_Blocking@i2c_obj^0,c
  6465   0026AE  0E00               	movlw	high _i2c_obj
  6466   0026B0  6E0D               	movwf	(MSSP_I2C_Master_Write_Blocking@i2c_obj+1)^0,c
  6467   0026B2  0ED0               	movlw	208
  6468   0026B4  6E0E               	movwf	MSSP_I2C_Master_Write_Blocking@i2c_data^0,c
  6469   0026B6  0E14               	movlw	low Read_RealTimeClockDS1307@slave_ack
  6470   0026B8  6E0F               	movwf	MSSP_I2C_Master_Write_Blocking@ack^0,c
  6471   0026BA  0E00               	movlw	high Read_RealTimeClockDS1307@slave_ack
  6472   0026BC  6E10               	movwf	(MSSP_I2C_Master_Write_Blocking@ack+1)^0,c
  6473   0026BE  ECBA  F01A         	call	_MSSP_I2C_Master_Write_Blocking	;wreg free
  6474   0026C2  6E6F               	movwf	_ret^0,c
  6475   0026C4                     
  6476                           ;ECU_Layer/RealTimeClockDS1307/RealTimeClockDS1307.c: 24:     _delay((unsigned long)((1)
      +                          *(4000000UL/4000.0))) ;
  6477   0026C4  0EC8               	movlw	200
  6478   0026C6                     u10807:
  6479   0026C6  D000               	nop2	
  6480   0026C8  2EE8               	decfsz	wreg,f,c
  6481   0026CA  D7FD               	bra	u10807
  6482   0026CC                     
  6483                           ;ECU_Layer/RealTimeClockDS1307/RealTimeClockDS1307.c: 25:       ret= MSSP_I2C_Master_Wri
      +                          te_Blocking(&i2c_obj,add,&slave_ack);
  6484   0026CC  0E65               	movlw	low _i2c_obj
  6485   0026CE  6E0C               	movwf	MSSP_I2C_Master_Write_Blocking@i2c_obj^0,c
  6486   0026D0  0E00               	movlw	high _i2c_obj
  6487   0026D2  6E0D               	movwf	(MSSP_I2C_Master_Write_Blocking@i2c_obj+1)^0,c
  6488   0026D4  C012  F00E         	movff	Read_RealTimeClockDS1307@add,MSSP_I2C_Master_Write_Blocking@i2c_data
  6489   0026D8  0E14               	movlw	low Read_RealTimeClockDS1307@slave_ack
  6490   0026DA  6E0F               	movwf	MSSP_I2C_Master_Write_Blocking@ack^0,c
  6491   0026DC  0E00               	movlw	high Read_RealTimeClockDS1307@slave_ack
  6492   0026DE  6E10               	movwf	(MSSP_I2C_Master_Write_Blocking@ack+1)^0,c
  6493   0026E0  ECBA  F01A         	call	_MSSP_I2C_Master_Write_Blocking	;wreg free
  6494   0026E4  6E6F               	movwf	_ret^0,c
  6495   0026E6                     
  6496                           ;ECU_Layer/RealTimeClockDS1307/RealTimeClockDS1307.c: 26:     _delay((unsigned long)((1)
      +                          *(4000000UL/4000.0))) ;
  6497   0026E6  0EC8               	movlw	200
  6498   0026E8                     u10817:
  6499   0026E8  D000               	nop2	
  6500   0026EA  2EE8               	decfsz	wreg,f,c
  6501   0026EC  D7FD               	bra	u10817
  6502   0026EE                     
  6503                           ;ECU_Layer/RealTimeClockDS1307/RealTimeClockDS1307.c: 27:       ret=MSSP_I2C_Master_Send
      +                          _Repeated_Start(&i2c_obj);
  6504   0026EE  0E65               	movlw	low _i2c_obj
  6505   0026F0  6E0C               	movwf	MSSP_I2C_Master_Send_Repeated_Start@i2c_obj^0,c
  6506   0026F2  0E00               	movlw	high _i2c_obj
  6507   0026F4  6E0D               	movwf	(MSSP_I2C_Master_Send_Repeated_Start@i2c_obj+1)^0,c
  6508   0026F6  EC2F  F01C         	call	_MSSP_I2C_Master_Send_Repeated_Start	;wreg free
  6509   0026FA  6E6F               	movwf	_ret^0,c
  6510                           
  6511                           ;ECU_Layer/RealTimeClockDS1307/RealTimeClockDS1307.c: 28:     _delay((unsigned long)((1)
      +                          *(4000000UL/4000.0))) ;
  6512   0026FC  0EC8               	movlw	200
  6513   0026FE                     u10827:
  6514   0026FE  D000               	nop2	
  6515   002700  2EE8               	decfsz	wreg,f,c
  6516   002702  D7FD               	bra	u10827
  6517   002704                     
  6518                           ;ECU_Layer/RealTimeClockDS1307/RealTimeClockDS1307.c: 29:        ret= MSSP_I2C_Master_Wr
      +                          ite_Blocking(&i2c_obj,0xD1,&slave_ack);
  6519   002704  0E65               	movlw	low _i2c_obj
  6520   002706  6E0C               	movwf	MSSP_I2C_Master_Write_Blocking@i2c_obj^0,c
  6521   002708  0E00               	movlw	high _i2c_obj
  6522   00270A  6E0D               	movwf	(MSSP_I2C_Master_Write_Blocking@i2c_obj+1)^0,c
  6523   00270C  0ED1               	movlw	209
  6524   00270E  6E0E               	movwf	MSSP_I2C_Master_Write_Blocking@i2c_data^0,c
  6525   002710  0E14               	movlw	low Read_RealTimeClockDS1307@slave_ack
  6526   002712  6E0F               	movwf	MSSP_I2C_Master_Write_Blocking@ack^0,c
  6527   002714  0E00               	movlw	high Read_RealTimeClockDS1307@slave_ack
  6528   002716  6E10               	movwf	(MSSP_I2C_Master_Write_Blocking@ack+1)^0,c
  6529   002718  ECBA  F01A         	call	_MSSP_I2C_Master_Write_Blocking	;wreg free
  6530   00271C  6E6F               	movwf	_ret^0,c
  6531   00271E                     
  6532                           ;ECU_Layer/RealTimeClockDS1307/RealTimeClockDS1307.c: 30:     _delay((unsigned long)((10
      +                          )*(4000000UL/4000.0))) ;
  6533   00271E  0E0D               	movlw	13
  6534   002720  6E11               	movwf	??_Read_RealTimeClockDS1307^0,c
  6535   002722  0EFC               	movlw	252
  6536   002724                     u10837:
  6537   002724  2EE8               	decfsz	wreg,f,c
  6538   002726  D7FE               	bra	u10837
  6539   002728  2E11               	decfsz	??_Read_RealTimeClockDS1307^0,f,c
  6540   00272A  D7FC               	bra	u10837
  6541                           
  6542                           ;ECU_Layer/RealTimeClockDS1307/RealTimeClockDS1307.c: 31:     ret=MSSP_I2C_Master_Read_B
      +                          locking(&i2c_obj,1,&data_read);
  6543   00272C  0E65               	movlw	low _i2c_obj
  6544   00272E  6E0C               	movwf	MSSP_I2C_Master_Read_Blocking@i2c_obj^0,c
  6545   002730  0E00               	movlw	high _i2c_obj
  6546   002732  6E0D               	movwf	(MSSP_I2C_Master_Read_Blocking@i2c_obj+1)^0,c
  6547   002734  0E01               	movlw	1
  6548   002736  6E0E               	movwf	MSSP_I2C_Master_Read_Blocking@ack^0,c
  6549   002738  0E13               	movlw	low Read_RealTimeClockDS1307@data_read
  6550   00273A  6E0F               	movwf	MSSP_I2C_Master_Read_Blocking@i2c_data^0,c
  6551   00273C  0E00               	movlw	high Read_RealTimeClockDS1307@data_read
  6552   00273E  6E10               	movwf	(MSSP_I2C_Master_Read_Blocking@i2c_data+1)^0,c
  6553   002740  EC60  F019         	call	_MSSP_I2C_Master_Read_Blocking	;wreg free
  6554   002744  6E6F               	movwf	_ret^0,c
  6555   002746                     
  6556                           ;ECU_Layer/RealTimeClockDS1307/RealTimeClockDS1307.c: 32:     _delay((unsigned long)((1)
      +                          *(4000000UL/4000.0))) ;
  6557   002746  0EC8               	movlw	200
  6558   002748                     u10847:
  6559   002748  D000               	nop2	
  6560   00274A  2EE8               	decfsz	wreg,f,c
  6561   00274C  D7FD               	bra	u10847
  6562   00274E                     
  6563                           ;ECU_Layer/RealTimeClockDS1307/RealTimeClockDS1307.c: 33:      ret= MSSP_I2C_Master_Send
      +                          _Stop(&i2c_obj);
  6564   00274E  0E65               	movlw	low _i2c_obj
  6565   002750  6E0C               	movwf	MSSP_I2C_Master_Send_Stop@i2c_obj^0,c
  6566   002752  0E00               	movlw	high _i2c_obj
  6567   002754  6E0D               	movwf	(MSSP_I2C_Master_Send_Stop@i2c_obj+1)^0,c
  6568   002756  ECFD  F01B         	call	_MSSP_I2C_Master_Send_Stop	;wreg free
  6569   00275A  6E6F               	movwf	_ret^0,c
  6570   00275C                     
  6571                           ;ECU_Layer/RealTimeClockDS1307/RealTimeClockDS1307.c: 34:     _delay((unsigned long)((10
      +                          )*(4000000UL/4000.0))) ;
  6572   00275C  0E0D               	movlw	13
  6573   00275E  6E11               	movwf	??_Read_RealTimeClockDS1307^0,c
  6574   002760  0EFC               	movlw	252
  6575   002762                     u10857:
  6576   002762  2EE8               	decfsz	wreg,f,c
  6577   002764  D7FE               	bra	u10857
  6578   002766  2E11               	decfsz	??_Read_RealTimeClockDS1307^0,f,c
  6579   002768  D7FC               	bra	u10857
  6580   00276A                     
  6581                           ;ECU_Layer/RealTimeClockDS1307/RealTimeClockDS1307.c: 35:     return data_read;
  6582   00276A  5013               	movf	Read_RealTimeClockDS1307@data_read^0,w,c
  6583   00276C  0012               	return		;funcret
  6584   00276E                     __end_of_Read_RealTimeClockDS1307:
  6585                           	callstack 0
  6586                           
  6587 ;; *************** function _MSSP_I2C_Master_Send_Repeated_Start *****************
  6588 ;; Defined at:
  6589 ;;		line 123 in file "MCAL_Layer/I2C/hal_i2c.c"
  6590 ;; Parameters:    Size  Location     Type
  6591 ;;  i2c_obj         2   11[COMRAM] PTR const struct .
  6592 ;;		 -> I2C_Read_Register@i2c_obj(2), i2c_obj(5), 
  6593 ;; Auto vars:     Size  Location     Type
  6594 ;;  ret             1    0        unsigned char 
  6595 ;; Return value:  Size  Location     Type
  6596 ;;                  1    wreg      unsigned char 
  6597 ;; Registers used:
  6598 ;;		wreg, status,2, status,0
  6599 ;; Tracked objects:
  6600 ;;		On entry : 0/0
  6601 ;;		On exit  : 0/0
  6602 ;;		Unchanged: 0/0
  6603 ;; Data sizes:     COMRAM   BANK0   BANK1   BANK2   BANK3   BANK4   BANK5   BANK6   BANK7   BANK8   BANK9  BANK10  BANK1
      +1  BANK12  BANK13  BANK14  BANK15
  6604 ;;      Params:         2       0       0       0       0       0       0       0       0       0       0       0       
      +0       0       0       0       0
  6605 ;;      Locals:         0       0       0       0       0       0       0       0       0       0       0       0       
      +0       0       0       0       0
  6606 ;;      Temps:          0       0       0       0       0       0       0       0       0       0       0       0       
      +0       0       0       0       0
  6607 ;;      Totals:         2       0       0       0       0       0       0       0       0       0       0       0       
      +0       0       0       0       0
  6608 ;;Total ram usage:        2 bytes
  6609 ;; Hardware stack levels used: 1
  6610 ;; Hardware stack levels required when called: 4
  6611 ;; This function calls:
  6612 ;;		Nothing
  6613 ;; This function is called by:
  6614 ;;		_Read_RealTimeClockDS1307
  6615 ;;		_I2C_Read_Register
  6616 ;;		_EEPROM_24C02C_Read_Byte
  6617 ;; This function uses a non-reentrant model
  6618 ;;
  6619                           
  6620                           	psect	text24
  6621   00385E                     __ptext24:
  6622                           	callstack 0
  6623   00385E                     _MSSP_I2C_Master_Send_Repeated_Start:
  6624                           	callstack 24
  6625   00385E                     
  6626                           ;MCAL_Layer/I2C/hal_i2c.c: 126:     if(((void*)0) == i2c_obj){
  6627   00385E  500C               	movf	MSSP_I2C_Master_Send_Repeated_Start@i2c_obj^0,w,c
  6628   003860  100D               	iorwf	(MSSP_I2C_Master_Send_Repeated_Start@i2c_obj+1)^0,w,c
  6629   003862  A4D8               	btfss	status,2,c
  6630   003864  EF36  F01C         	goto	u9671
  6631   003868  EF38  F01C         	goto	u9670
  6632   00386C                     u9671:
  6633   00386C  EF3A  F01C         	goto	l946
  6634   003870                     u9670:
  6635   003870                     l10472:
  6636                           
  6637                           ;MCAL_Layer/I2C/hal_i2c.c: 128:     }
  6638   003870  EF45  F01C         	goto	l947
  6639   003874                     l946:
  6640                           
  6641                           ;MCAL_Layer/I2C/hal_i2c.c: 132:          SSPCON2bits.RSEN=1;
  6642   003874  82C5               	bsf	197,1,c	;volatile
  6643   003876                     l948:
  6644   003876  B2C5               	btfsc	197,1,c	;volatile
  6645   003878  EF40  F01C         	goto	u9681
  6646   00387C  EF42  F01C         	goto	u9680
  6647   003880                     u9681:
  6648   003880  EF3B  F01C         	goto	l948
  6649   003884                     u9680:
  6650   003884                     
  6651                           ;MCAL_Layer/I2C/hal_i2c.c: 136:          PIR1bits.SSPIF=0;
  6652   003884  969E               	bcf	158,3,c	;volatile
  6653   003886  EF38  F01C         	goto	l10472
  6654   00388A                     l947:
  6655                           
  6656                           ;MCAL_Layer/I2C/hal_i2c.c: 142:     return ret;
  6657   00388A  0E01               	movlw	1
  6658   00388C  0012               	return		;funcret
  6659   00388E                     __end_of_MSSP_I2C_Master_Send_Repeated_Start:
  6660                           	callstack 0
  6661                           
  6662 ;; *************** function _MSSP_I2C_Master_Read_Blocking *****************
  6663 ;; Defined at:
  6664 ;;		line 192 in file "MCAL_Layer/I2C/hal_i2c.c"
  6665 ;; Parameters:    Size  Location     Type
  6666 ;;  i2c_obj         2   11[COMRAM] PTR const struct .
  6667 ;;		 -> I2C_Read_Register@i2c_obj(2), i2c_obj(5), 
  6668 ;;  ack             1   13[COMRAM] unsigned char 
  6669 ;;  i2c_data        2   14[COMRAM] PTR unsigned char 
  6670 ;;		 -> EEPROM_24C02C_Read_Byte@data_read(1), I2C_Read_Register@read_Value(1), Read_RealTimeClockDS1307@data_read(1), 
  6671 ;; Auto vars:     Size  Location     Type
  6672 ;;  ret             1    0        unsigned char 
  6673 ;; Return value:  Size  Location     Type
  6674 ;;                  1    wreg      unsigned char 
  6675 ;; Registers used:
  6676 ;;		wreg, fsr2l, fsr2h, status,2, status,0
  6677 ;; Tracked objects:
  6678 ;;		On entry : 0/0
  6679 ;;		On exit  : 0/0
  6680 ;;		Unchanged: 0/0
  6681 ;; Data sizes:     COMRAM   BANK0   BANK1   BANK2   BANK3   BANK4   BANK5   BANK6   BANK7   BANK8   BANK9  BANK10  BANK1
      +1  BANK12  BANK13  BANK14  BANK15
  6682 ;;      Params:         5       0       0       0       0       0       0       0       0       0       0       0       
      +0       0       0       0       0
  6683 ;;      Locals:         0       0       0       0       0       0       0       0       0       0       0       0       
      +0       0       0       0       0
  6684 ;;      Temps:          0       0       0       0       0       0       0       0       0       0       0       0       
      +0       0       0       0       0
  6685 ;;      Totals:         5       0       0       0       0       0       0       0       0       0       0       0       
      +0       0       0       0       0
  6686 ;;Total ram usage:        5 bytes
  6687 ;; Hardware stack levels used: 1
  6688 ;; Hardware stack levels required when called: 4
  6689 ;; This function calls:
  6690 ;;		Nothing
  6691 ;; This function is called by:
  6692 ;;		_Read_RealTimeClockDS1307
  6693 ;;		_I2C_Read_Register
  6694 ;;		_EEPROM_24C02C_Read_Byte
  6695 ;; This function uses a non-reentrant model
  6696 ;;
  6697                           
  6698                           	psect	text25
  6699   0032C0                     __ptext25:
  6700                           	callstack 0
  6701   0032C0                     _MSSP_I2C_Master_Read_Blocking:
  6702                           	callstack 24
  6703   0032C0                     
  6704                           ;MCAL_Layer/I2C/hal_i2c.c: 195:     if((((void*)0) == i2c_obj) || (((void*)0) == i2c_dat
      +                          a)){
  6705   0032C0  500C               	movf	MSSP_I2C_Master_Read_Blocking@i2c_obj^0,w,c
  6706   0032C2  100D               	iorwf	(MSSP_I2C_Master_Read_Blocking@i2c_obj+1)^0,w,c
  6707   0032C4  B4D8               	btfsc	status,2,c
  6708   0032C6  EF67  F019         	goto	u9691
  6709   0032CA  EF69  F019         	goto	u9690
  6710   0032CE                     u9691:
  6711   0032CE  EF72  F019         	goto	l10484
  6712   0032D2                     u9690:
  6713   0032D2  500F               	movf	MSSP_I2C_Master_Read_Blocking@i2c_data^0,w,c
  6714   0032D4  1010               	iorwf	(MSSP_I2C_Master_Read_Blocking@i2c_data+1)^0,w,c
  6715   0032D6  A4D8               	btfss	status,2,c
  6716   0032D8  EF70  F019         	goto	u9701
  6717   0032DC  EF72  F019         	goto	u9700
  6718   0032E0                     u9701:
  6719   0032E0  EF74  F019         	goto	l976
  6720   0032E4                     u9700:
  6721   0032E4                     l10484:
  6722                           
  6723                           ;MCAL_Layer/I2C/hal_i2c.c: 197:     }
  6724   0032E4  EF9A  F019         	goto	l979
  6725   0032E8                     l976:
  6726                           
  6727                           ;MCAL_Layer/I2C/hal_i2c.c: 200:         (SSPCON2bits.RCEN=1);
  6728   0032E8  86C5               	bsf	197,3,c	;volatile
  6729   0032EA                     l980:
  6730   0032EA  A0C7               	btfss	199,0,c	;volatile
  6731   0032EC  EF7A  F019         	goto	u9711
  6732   0032F0  EF7C  F019         	goto	u9710
  6733   0032F4                     u9711:
  6734   0032F4  EF75  F019         	goto	l980
  6735   0032F8                     u9710:
  6736   0032F8                     
  6737                           ;MCAL_Layer/I2C/hal_i2c.c: 203:         *i2c_data=SSPBUF;
  6738   0032F8  C00F  FFD9         	movff	MSSP_I2C_Master_Read_Blocking@i2c_data,fsr2l
  6739   0032FC  C010  FFDA         	movff	MSSP_I2C_Master_Read_Blocking@i2c_data+1,fsr2h
  6740   003300  CFC9 FFDF          	movff	4041,indf2	;volatile
  6741   003304                     
  6742                           ;MCAL_Layer/I2C/hal_i2c.c: 205:         if(0 == ack){
  6743   003304  500E               	movf	MSSP_I2C_Master_Read_Blocking@ack^0,w,c
  6744   003306  A4D8               	btfss	status,2,c
  6745   003308  EF88  F019         	goto	u9721
  6746   00330C  EF8A  F019         	goto	u9720
  6747   003310                     u9721:
  6748   003310  EF8E  F019         	goto	l10492
  6749   003314                     u9720:
  6750   003314                     
  6751                           ;MCAL_Layer/I2C/hal_i2c.c: 206:              SSPCON2bits.ACKDT = 0;
  6752   003314  9AC5               	bcf	197,5,c	;volatile
  6753                           
  6754                           ;MCAL_Layer/I2C/hal_i2c.c: 208:              SSPCON2bits.ACKEN=1;
  6755   003316  88C5               	bsf	197,4,c	;volatile
  6756                           
  6757                           ;MCAL_Layer/I2C/hal_i2c.c: 209:         }
  6758   003318  EF72  F019         	goto	l10484
  6759   00331C                     l10492:
  6760   00331C  040E               	decf	MSSP_I2C_Master_Read_Blocking@ack^0,w,c
  6761   00331E  A4D8               	btfss	status,2,c
  6762   003320  EF94  F019         	goto	u9731
  6763   003324  EF96  F019         	goto	u9730
  6764   003328                     u9731:
  6765   003328  EF72  F019         	goto	l10484
  6766   00332C                     u9730:
  6767   00332C                     
  6768                           ;MCAL_Layer/I2C/hal_i2c.c: 211:              SSPCON2bits.ACKDT = 1;
  6769   00332C  8AC5               	bsf	197,5,c	;volatile
  6770                           
  6771                           ;MCAL_Layer/I2C/hal_i2c.c: 213:              SSPCON2bits.ACKEN=1;
  6772   00332E  88C5               	bsf	197,4,c	;volatile
  6773                           
  6774                           ;MCAL_Layer/I2C/hal_i2c.c: 214:         }
  6775   003330  EF72  F019         	goto	l10484
  6776   003334                     l979:
  6777                           
  6778                           ;MCAL_Layer/I2C/hal_i2c.c: 220:     return ret;
  6779   003334  0E01               	movlw	1
  6780   003336  0012               	return		;funcret
  6781   003338                     __end_of_MSSP_I2C_Master_Read_Blocking:
  6782                           	callstack 0
  6783                           
  6784 ;; *************** function _Print_RealTimeClockDS1307 *****************
  6785 ;; Defined at:
  6786 ;;		line 59 in file "ECU_Layer/RealTimeClockDS1307/RealTimeClockDS1307.c"
  6787 ;; Parameters:    Size  Location     Type
  6788 ;;		None
  6789 ;; Auto vars:     Size  Location     Type
  6790 ;;		None
  6791 ;; Return value:  Size  Location     Type
  6792 ;;                  1    wreg      void 
  6793 ;; Registers used:
  6794 ;;		wreg, fsr0l, fsr0h, fsr2l, fsr2h, status,2, status,0, tblptrl, tblptrh, tblptru, prodl, prodh, cstack
  6795 ;; Tracked objects:
  6796 ;;		On entry : 0/0
  6797 ;;		On exit  : 0/0
  6798 ;;		Unchanged: 0/0
  6799 ;; Data sizes:     COMRAM   BANK0   BANK1   BANK2   BANK3   BANK4   BANK5   BANK6   BANK7   BANK8   BANK9  BANK10  BANK1
      +1  BANK12  BANK13  BANK14  BANK15
  6800 ;;      Params:         0       0       0       0       0       0       0       0       0       0       0       0       
      +0       0       0       0       0
  6801 ;;      Locals:         0       0       0       0       0       0       0       0       0       0       0       0       
      +0       0       0       0       0
  6802 ;;      Temps:          0       0       0       0       0       0       0       0       0       0       0       0       
      +0       0       0       0       0
  6803 ;;      Totals:         0       0       0       0       0       0       0       0       0       0       0       0       
      +0       0       0       0       0
  6804 ;;Total ram usage:        0 bytes
  6805 ;; Hardware stack levels used: 1
  6806 ;; Hardware stack levels required when called: 9
  6807 ;; This function calls:
  6808 ;;		_lcd_8bit_send_string_pos
  6809 ;; This function is called by:
  6810 ;;		_main
  6811 ;; This function uses a non-reentrant model
  6812 ;;
  6813                           
  6814                           	psect	text26
  6815   0024AE                     __ptext26:
  6816                           	callstack 0
  6817   0024AE                     _Print_RealTimeClockDS1307:
  6818                           	callstack 21
  6819   0024AE                     
  6820                           ;ECU_Layer/RealTimeClockDS1307/RealTimeClockDS1307.c: 61:     RealTimeClockDS1307_Data[0
      +                          ]= ((RealTimeClockDS1307._Day >> 4) + 0x30);
  6821   0024AE  0100               	movlb	0	; () banked
  6822   0024B0  3985               	swapf	(_RealTimeClockDS1307@RealTimeClockDS1307$F644+5)& (0+255),w,b
  6823   0024B2  0B0F               	andlw	15
  6824   0024B4  0F30               	addlw	48
  6825   0024B6  6FD4               	movwf	_RealTimeClockDS1307_Data& (0+255),b
  6826                           
  6827                           ;ECU_Layer/RealTimeClockDS1307/RealTimeClockDS1307.c: 63:     RealTimeClockDS1307_Data[1
      +                          ]= ((RealTimeClockDS1307. _Day& 0x0F) +0x30);
  6828   0024B8  5185               	movf	(_RealTimeClockDS1307@RealTimeClockDS1307$F644+5)& (0+255),w,b
  6829   0024BA  0B0F               	andlw	15
  6830   0024BC  0F30               	addlw	48
  6831   0024BE  6FD5               	movwf	(_RealTimeClockDS1307_Data+1)& (0+255),b
  6832   0024C0                     
  6833                           ; BSR set to: 0
  6834                           ;ECU_Layer/RealTimeClockDS1307/RealTimeClockDS1307.c: 64:     RealTimeClockDS1307_Data[2
      +                          ]='-';
  6835   0024C0  0E2D               	movlw	45
  6836   0024C2  6FD6               	movwf	(_RealTimeClockDS1307_Data+2)& (0+255),b
  6837   0024C4                     
  6838                           ; BSR set to: 0
  6839                           ;ECU_Layer/RealTimeClockDS1307/RealTimeClockDS1307.c: 65:     RealTimeClockDS1307_Data[3
      +                          ]= ((RealTimeClockDS1307._Month>> 4) + 0x30);
  6840   0024C4  3984               	swapf	(_RealTimeClockDS1307@RealTimeClockDS1307$F644+4)& (0+255),w,b
  6841   0024C6  0B0F               	andlw	15
  6842   0024C8  0F30               	addlw	48
  6843   0024CA  6FD7               	movwf	(_RealTimeClockDS1307_Data+3)& (0+255),b
  6844   0024CC                     
  6845                           ; BSR set to: 0
  6846                           ;ECU_Layer/RealTimeClockDS1307/RealTimeClockDS1307.c: 66:     RealTimeClockDS1307_Data[4
      +                          ]= ((RealTimeClockDS1307._Month& 0x0F) +0x30);
  6847   0024CC  5184               	movf	(_RealTimeClockDS1307@RealTimeClockDS1307$F644+4)& (0+255),w,b
  6848   0024CE  0B0F               	andlw	15
  6849   0024D0  0F30               	addlw	48
  6850   0024D2  6FD8               	movwf	(_RealTimeClockDS1307_Data+4)& (0+255),b
  6851   0024D4                     
  6852                           ; BSR set to: 0
  6853                           ;ECU_Layer/RealTimeClockDS1307/RealTimeClockDS1307.c: 67:     RealTimeClockDS1307_Data[5
      +                          ]='-';
  6854   0024D4  0E2D               	movlw	45
  6855   0024D6  6FD9               	movwf	(_RealTimeClockDS1307_Data+5)& (0+255),b
  6856                           
  6857                           ;ECU_Layer/RealTimeClockDS1307/RealTimeClockDS1307.c: 68:     RealTimeClockDS1307_Data[6
      +                          ]= ((RealTimeClockDS1307._Year >> 4) + 0x30);
  6858   0024D8  3983               	swapf	(_RealTimeClockDS1307@RealTimeClockDS1307$F644+3)& (0+255),w,b
  6859   0024DA  0B0F               	andlw	15
  6860   0024DC  0F30               	addlw	48
  6861   0024DE  6FDA               	movwf	(_RealTimeClockDS1307_Data+6)& (0+255),b
  6862                           
  6863                           ;ECU_Layer/RealTimeClockDS1307/RealTimeClockDS1307.c: 69:     RealTimeClockDS1307_Data[7
      +                          ]= ((RealTimeClockDS1307._Year& 0x0F) +0x30);
  6864   0024E0  5183               	movf	(_RealTimeClockDS1307@RealTimeClockDS1307$F644+3)& (0+255),w,b
  6865   0024E2  0B0F               	andlw	15
  6866   0024E4  0F30               	addlw	48
  6867   0024E6  6FDB               	movwf	(_RealTimeClockDS1307_Data+7)& (0+255),b
  6868   0024E8                     
  6869                           ; BSR set to: 0
  6870                           ;ECU_Layer/RealTimeClockDS1307/RealTimeClockDS1307.c: 70:     RealTimeClockDS1307_Data[8
      +                          ]='\0';
  6871   0024E8  0E00               	movlw	0
  6872   0024EA  6FDC               	movwf	(_RealTimeClockDS1307_Data+8)& (0+255),b
  6873   0024EC                     
  6874                           ; BSR set to: 0
  6875                           ;ECU_Layer/RealTimeClockDS1307/RealTimeClockDS1307.c: 71:     RealTimeClockDS1307_Time[0
      +                          ]= ((RealTimeClockDS1307._Hours >> 4) + 0x30);
  6876   0024EC  3980               	swapf	_RealTimeClockDS1307@RealTimeClockDS1307$F644& (0+255),w,b
  6877   0024EE  0B0F               	andlw	15
  6878   0024F0  0F30               	addlw	48
  6879   0024F2  6FCB               	movwf	_RealTimeClockDS1307_Time& (0+255),b
  6880   0024F4                     
  6881                           ; BSR set to: 0
  6882                           ;ECU_Layer/RealTimeClockDS1307/RealTimeClockDS1307.c: 73:     RealTimeClockDS1307_Time[1
      +                          ]= ((RealTimeClockDS1307._Hours& 0x0F) +0x30);
  6883   0024F4  5180               	movf	_RealTimeClockDS1307@RealTimeClockDS1307$F644& (0+255),w,b
  6884   0024F6  0B0F               	andlw	15
  6885   0024F8  0F30               	addlw	48
  6886   0024FA  6FCC               	movwf	(_RealTimeClockDS1307_Time+1)& (0+255),b
  6887   0024FC                     
  6888                           ; BSR set to: 0
  6889                           ;ECU_Layer/RealTimeClockDS1307/RealTimeClockDS1307.c: 74:     RealTimeClockDS1307_Time[2
      +                          ]=':';
  6890   0024FC  0E3A               	movlw	58
  6891   0024FE  6FCD               	movwf	(_RealTimeClockDS1307_Time+2)& (0+255),b
  6892                           
  6893                           ;ECU_Layer/RealTimeClockDS1307/RealTimeClockDS1307.c: 75:     RealTimeClockDS1307_Time[3
      +                          ]= ((RealTimeClockDS1307._Minutes >> 4) + 0x30);
  6894   002500  3981               	swapf	(_RealTimeClockDS1307@RealTimeClockDS1307$F644+1)& (0+255),w,b
  6895   002502  0B0F               	andlw	15
  6896   002504  0F30               	addlw	48
  6897   002506  6FCE               	movwf	(_RealTimeClockDS1307_Time+3)& (0+255),b
  6898                           
  6899                           ;ECU_Layer/RealTimeClockDS1307/RealTimeClockDS1307.c: 76:     RealTimeClockDS1307_Time[4
      +                          ]= ((RealTimeClockDS1307._Minutes& 0x0F) +0x30);
  6900   002508  5181               	movf	(_RealTimeClockDS1307@RealTimeClockDS1307$F644+1)& (0+255),w,b
  6901   00250A  0B0F               	andlw	15
  6902   00250C  0F30               	addlw	48
  6903   00250E  6FCF               	movwf	(_RealTimeClockDS1307_Time+4)& (0+255),b
  6904   002510                     
  6905                           ; BSR set to: 0
  6906                           ;ECU_Layer/RealTimeClockDS1307/RealTimeClockDS1307.c: 77:     RealTimeClockDS1307_Time[5
      +                          ]=':';
  6907   002510  0E3A               	movlw	58
  6908   002512  6FD0               	movwf	(_RealTimeClockDS1307_Time+5)& (0+255),b
  6909   002514                     
  6910                           ; BSR set to: 0
  6911                           ;ECU_Layer/RealTimeClockDS1307/RealTimeClockDS1307.c: 78:     RealTimeClockDS1307_Time[6
      +                          ]= ((RealTimeClockDS1307._Seconds>> 4) + 0x30);
  6912   002514  3982               	swapf	(_RealTimeClockDS1307@RealTimeClockDS1307$F644+2)& (0+255),w,b
  6913   002516  0B0F               	andlw	15
  6914   002518  0F30               	addlw	48
  6915   00251A  6FD1               	movwf	(_RealTimeClockDS1307_Time+6)& (0+255),b
  6916   00251C                     
  6917                           ; BSR set to: 0
  6918                           ;ECU_Layer/RealTimeClockDS1307/RealTimeClockDS1307.c: 79:     RealTimeClockDS1307_Time[7
      +                          ]= ((RealTimeClockDS1307._Seconds& 0x0F) +0x30);
  6919   00251C  5182               	movf	(_RealTimeClockDS1307@RealTimeClockDS1307$F644+2)& (0+255),w,b
  6920   00251E  0B0F               	andlw	15
  6921   002520  0F30               	addlw	48
  6922   002522  6FD2               	movwf	(_RealTimeClockDS1307_Time+7)& (0+255),b
  6923   002524                     
  6924                           ; BSR set to: 0
  6925                           ;ECU_Layer/RealTimeClockDS1307/RealTimeClockDS1307.c: 80:     RealTimeClockDS1307_Time[8
      +                          ]='\0';
  6926   002524  0E00               	movlw	0
  6927   002526  6FD3               	movwf	(_RealTimeClockDS1307_Time+8)& (0+255),b
  6928   002528                     
  6929                           ; BSR set to: 0
  6930                           ;ECU_Layer/RealTimeClockDS1307/RealTimeClockDS1307.c: 84:     ret=lcd_8bit_send_string_p
      +                          os(&lcd_2,1,1,"Date : ");
  6931   002528  0EF5               	movlw	low _lcd_2
  6932   00252A  6E27               	movwf	lcd_8bit_send_string_pos@lcd^0,c
  6933   00252C  0E00               	movlw	high _lcd_2
  6934   00252E  6E28               	movwf	(lcd_8bit_send_string_pos@lcd+1)^0,c
  6935   002530  0E01               	movlw	1
  6936   002532  6E29               	movwf	lcd_8bit_send_string_pos@row^0,c
  6937   002534  0E01               	movlw	1
  6938   002536  6E2A               	movwf	lcd_8bit_send_string_pos@column^0,c
  6939   002538  0EF3               	movlw	low STR_4
  6940   00253A  6E2B               	movwf	lcd_8bit_send_string_pos@str^0,c
  6941   00253C  0EFF               	movlw	high STR_4
  6942   00253E  6E2C               	movwf	(lcd_8bit_send_string_pos@str+1)^0,c
  6943   002540  ECE2  F014         	call	_lcd_8bit_send_string_pos	;wreg free
  6944   002544  6E6F               	movwf	_ret^0,c
  6945   002546                     
  6946                           ;ECU_Layer/RealTimeClockDS1307/RealTimeClockDS1307.c: 85:     ret=lcd_8bit_send_string_p
      +                          os(&lcd_2,1,8,&RealTimeClockDS1307_Data);
  6947   002546  0EF5               	movlw	low _lcd_2
  6948   002548  6E27               	movwf	lcd_8bit_send_string_pos@lcd^0,c
  6949   00254A  0E00               	movlw	high _lcd_2
  6950   00254C  6E28               	movwf	(lcd_8bit_send_string_pos@lcd+1)^0,c
  6951   00254E  0E01               	movlw	1
  6952   002550  6E29               	movwf	lcd_8bit_send_string_pos@row^0,c
  6953   002552  0E08               	movlw	8
  6954   002554  6E2A               	movwf	lcd_8bit_send_string_pos@column^0,c
  6955   002556  0ED4               	movlw	low _RealTimeClockDS1307_Data
  6956   002558  6E2B               	movwf	lcd_8bit_send_string_pos@str^0,c
  6957   00255A  0E00               	movlw	high _RealTimeClockDS1307_Data
  6958   00255C  6E2C               	movwf	(lcd_8bit_send_string_pos@str+1)^0,c
  6959   00255E  ECE2  F014         	call	_lcd_8bit_send_string_pos	;wreg free
  6960   002562  6E6F               	movwf	_ret^0,c
  6961   002564                     
  6962                           ;ECU_Layer/RealTimeClockDS1307/RealTimeClockDS1307.c: 88:     ret=lcd_8bit_send_string_p
      +                          os(&lcd_2,2,1,"Time : ");
  6963   002564  0EF5               	movlw	low _lcd_2
  6964   002566  6E27               	movwf	lcd_8bit_send_string_pos@lcd^0,c
  6965   002568  0E00               	movlw	high _lcd_2
  6966   00256A  6E28               	movwf	(lcd_8bit_send_string_pos@lcd+1)^0,c
  6967   00256C  0E02               	movlw	2
  6968   00256E  6E29               	movwf	lcd_8bit_send_string_pos@row^0,c
  6969   002570  0E01               	movlw	1
  6970   002572  6E2A               	movwf	lcd_8bit_send_string_pos@column^0,c
  6971   002574  0EEB               	movlw	low STR_5
  6972   002576  6E2B               	movwf	lcd_8bit_send_string_pos@str^0,c
  6973   002578  0EFF               	movlw	high STR_5
  6974   00257A  6E2C               	movwf	(lcd_8bit_send_string_pos@str+1)^0,c
  6975   00257C  ECE2  F014         	call	_lcd_8bit_send_string_pos	;wreg free
  6976   002580  6E6F               	movwf	_ret^0,c
  6977   002582                     
  6978                           ;ECU_Layer/RealTimeClockDS1307/RealTimeClockDS1307.c: 89:     ret=lcd_8bit_send_string_p
      +                          os(&lcd_2,2,8,&RealTimeClockDS1307_Time);
  6979   002582  0EF5               	movlw	low _lcd_2
  6980   002584  6E27               	movwf	lcd_8bit_send_string_pos@lcd^0,c
  6981   002586  0E00               	movlw	high _lcd_2
  6982   002588  6E28               	movwf	(lcd_8bit_send_string_pos@lcd+1)^0,c
  6983   00258A  0E02               	movlw	2
  6984   00258C  6E29               	movwf	lcd_8bit_send_string_pos@row^0,c
  6985   00258E  0E08               	movlw	8
  6986   002590  6E2A               	movwf	lcd_8bit_send_string_pos@column^0,c
  6987   002592  0ECB               	movlw	low _RealTimeClockDS1307_Time
  6988   002594  6E2B               	movwf	lcd_8bit_send_string_pos@str^0,c
  6989   002596  0E00               	movlw	high _RealTimeClockDS1307_Time
  6990   002598  6E2C               	movwf	(lcd_8bit_send_string_pos@str+1)^0,c
  6991   00259A  ECE2  F014         	call	_lcd_8bit_send_string_pos	;wreg free
  6992   00259E  6E6F               	movwf	_ret^0,c
  6993   0025A0  0012               	return		;funcret
  6994   0025A2                     __end_of_Print_RealTimeClockDS1307:
  6995                           	callstack 0
  6996                           
  6997 ;; *************** function _EEPROM_24C02C_Write_Byte *****************
  6998 ;; Defined at:
  6999 ;;		line 9 in file "ECU_Layer/EEPROM_24C02C/EEPROM_24C02C.c"
  7000 ;; Parameters:    Size  Location     Type
  7001 ;;  EEPROM_Addre    1    wreg     unsigned char 
  7002 ;;  Byte_Address    1   16[COMRAM] unsigned char 
  7003 ;;  Data            1   17[COMRAM] unsigned char 
  7004 ;; Auto vars:     Size  Location     Type
  7005 ;;  EEPROM_Addre    1   19[COMRAM] unsigned char 
  7006 ;;  slave_ack       1   20[COMRAM] unsigned char 
  7007 ;;  data_read       1    0        unsigned char 
  7008 ;; Return value:  Size  Location     Type
  7009 ;;                  1    wreg      void 
  7010 ;; Registers used:
  7011 ;;		wreg, fsr2l, fsr2h, status,2, status,0, cstack
  7012 ;; Tracked objects:
  7013 ;;		On entry : 0/0
  7014 ;;		On exit  : 0/0
  7015 ;;		Unchanged: 0/0
  7016 ;; Data sizes:     COMRAM   BANK0   BANK1   BANK2   BANK3   BANK4   BANK5   BANK6   BANK7   BANK8   BANK9  BANK10  BANK1
      +1  BANK12  BANK13  BANK14  BANK15
  7017 ;;      Params:         2       0       0       0       0       0       0       0       0       0       0       0       
      +0       0       0       0       0
  7018 ;;      Locals:         2       0       0       0       0       0       0       0       0       0       0       0       
      +0       0       0       0       0
  7019 ;;      Temps:          1       0       0       0       0       0       0       0       0       0       0       0       
      +0       0       0       0       0
  7020 ;;      Totals:         5       0       0       0       0       0       0       0       0       0       0       0       
      +0       0       0       0       0
  7021 ;;Total ram usage:        5 bytes
  7022 ;; Hardware stack levels used: 1
  7023 ;; Hardware stack levels required when called: 5
  7024 ;; This function calls:
  7025 ;;		_MSSP_I2C_Master_Send_Start
  7026 ;;		_MSSP_I2C_Master_Send_Stop
  7027 ;;		_MSSP_I2C_Master_Write_Blocking
  7028 ;; This function is called by:
  7029 ;;		_main
  7030 ;; This function uses a non-reentrant model
  7031 ;;
  7032                           
  7033                           	psect	text27
  7034   002910                     __ptext27:
  7035                           	callstack 0
  7036   002910                     _EEPROM_24C02C_Write_Byte:
  7037                           	callstack 25
  7038                           
  7039                           ;incstack = 0
  7040                           ;EEPROM_24C02C_Write_Byte@EEPROM_Address stored from wreg
  7041   002910  6E14               	movwf	EEPROM_24C02C_Write_Byte@EEPROM_Address^0,c
  7042   002912                     
  7043                           ;ECU_Layer/EEPROM_24C02C/EEPROM_24C02C.c: 10:     uint8 data_read;;ECU_Layer/EEPROM_24C0
      +                          2C/EEPROM_24C02C.c: 11:     uint8 slave_ack;;ECU_Layer/EEPROM_24C02C/EEPROM_24C02C.c: 12
      +                          :     ret= MSSP_I2C_Master_Send_Start(&i2c_obj);
  7044   002912  0E65               	movlw	low _i2c_obj
  7045   002914  6E0C               	movwf	MSSP_I2C_Master_Send_Start@i2c_obj^0,c
  7046   002916  0E00               	movlw	high _i2c_obj
  7047   002918  6E0D               	movwf	(MSSP_I2C_Master_Send_Start@i2c_obj+1)^0,c
  7048   00291A  EC16  F01C         	call	_MSSP_I2C_Master_Send_Start	;wreg free
  7049   00291E  6E6F               	movwf	_ret^0,c
  7050   002920                     
  7051                           ;ECU_Layer/EEPROM_24C02C/EEPROM_24C02C.c: 13:     _delay((unsigned long)((10)*(4000000UL
      +                          /4000.0))) ;
  7052   002920  0E0D               	movlw	13
  7053   002922  6E13               	movwf	??_EEPROM_24C02C_Write_Byte^0,c
  7054   002924  0EFC               	movlw	252
  7055   002926                     u10867:
  7056   002926  2EE8               	decfsz	wreg,f,c
  7057   002928  D7FE               	bra	u10867
  7058   00292A  2E13               	decfsz	??_EEPROM_24C02C_Write_Byte^0,f,c
  7059   00292C  D7FC               	bra	u10867
  7060   00292E                     
  7061                           ;ECU_Layer/EEPROM_24C02C/EEPROM_24C02C.c: 14:      ret= MSSP_I2C_Master_Write_Blocking(&
      +                          i2c_obj,EEPROM_Address,&slave_ack);
  7062   00292E  0E65               	movlw	low _i2c_obj
  7063   002930  6E0C               	movwf	MSSP_I2C_Master_Write_Blocking@i2c_obj^0,c
  7064   002932  0E00               	movlw	high _i2c_obj
  7065   002934  6E0D               	movwf	(MSSP_I2C_Master_Write_Blocking@i2c_obj+1)^0,c
  7066   002936  C014  F00E         	movff	EEPROM_24C02C_Write_Byte@EEPROM_Address,MSSP_I2C_Master_Write_Blocking@i2c_data
  7067   00293A  0E15               	movlw	low EEPROM_24C02C_Write_Byte@slave_ack
  7068   00293C  6E0F               	movwf	MSSP_I2C_Master_Write_Blocking@ack^0,c
  7069   00293E  0E00               	movlw	high EEPROM_24C02C_Write_Byte@slave_ack
  7070   002940  6E10               	movwf	(MSSP_I2C_Master_Write_Blocking@ack+1)^0,c
  7071   002942  ECBA  F01A         	call	_MSSP_I2C_Master_Write_Blocking	;wreg free
  7072   002946  6E6F               	movwf	_ret^0,c
  7073   002948                     
  7074                           ;ECU_Layer/EEPROM_24C02C/EEPROM_24C02C.c: 15:     _delay((unsigned long)((10)*(4000000UL
      +                          /4000.0))) ;
  7075   002948  0E0D               	movlw	13
  7076   00294A  6E13               	movwf	??_EEPROM_24C02C_Write_Byte^0,c
  7077   00294C  0EFC               	movlw	252
  7078   00294E                     u10877:
  7079   00294E  2EE8               	decfsz	wreg,f,c
  7080   002950  D7FE               	bra	u10877
  7081   002952  2E13               	decfsz	??_EEPROM_24C02C_Write_Byte^0,f,c
  7082   002954  D7FC               	bra	u10877
  7083   002956                     
  7084                           ;ECU_Layer/EEPROM_24C02C/EEPROM_24C02C.c: 16:       ret= MSSP_I2C_Master_Write_Blocking(
      +                          &i2c_obj,Byte_Address,&slave_ack);
  7085   002956  0E65               	movlw	low _i2c_obj
  7086   002958  6E0C               	movwf	MSSP_I2C_Master_Write_Blocking@i2c_obj^0,c
  7087   00295A  0E00               	movlw	high _i2c_obj
  7088   00295C  6E0D               	movwf	(MSSP_I2C_Master_Write_Blocking@i2c_obj+1)^0,c
  7089   00295E  C011  F00E         	movff	EEPROM_24C02C_Write_Byte@Byte_Address,MSSP_I2C_Master_Write_Blocking@i2c_data
  7090   002962  0E15               	movlw	low EEPROM_24C02C_Write_Byte@slave_ack
  7091   002964  6E0F               	movwf	MSSP_I2C_Master_Write_Blocking@ack^0,c
  7092   002966  0E00               	movlw	high EEPROM_24C02C_Write_Byte@slave_ack
  7093   002968  6E10               	movwf	(MSSP_I2C_Master_Write_Blocking@ack+1)^0,c
  7094   00296A  ECBA  F01A         	call	_MSSP_I2C_Master_Write_Blocking	;wreg free
  7095   00296E  6E6F               	movwf	_ret^0,c
  7096   002970                     
  7097                           ;ECU_Layer/EEPROM_24C02C/EEPROM_24C02C.c: 17:     _delay((unsigned long)((10)*(4000000UL
      +                          /4000.0))) ;
  7098   002970  0E0D               	movlw	13
  7099   002972  6E13               	movwf	??_EEPROM_24C02C_Write_Byte^0,c
  7100   002974  0EFC               	movlw	252
  7101   002976                     u10887:
  7102   002976  2EE8               	decfsz	wreg,f,c
  7103   002978  D7FE               	bra	u10887
  7104   00297A  2E13               	decfsz	??_EEPROM_24C02C_Write_Byte^0,f,c
  7105   00297C  D7FC               	bra	u10887
  7106   00297E                     
  7107                           ;ECU_Layer/EEPROM_24C02C/EEPROM_24C02C.c: 18:     ret= MSSP_I2C_Master_Write_Blocking(&i
      +                          2c_obj,Data,&slave_ack);
  7108   00297E  0E65               	movlw	low _i2c_obj
  7109   002980  6E0C               	movwf	MSSP_I2C_Master_Write_Blocking@i2c_obj^0,c
  7110   002982  0E00               	movlw	high _i2c_obj
  7111   002984  6E0D               	movwf	(MSSP_I2C_Master_Write_Blocking@i2c_obj+1)^0,c
  7112   002986  C012  F00E         	movff	EEPROM_24C02C_Write_Byte@Data,MSSP_I2C_Master_Write_Blocking@i2c_data
  7113   00298A  0E15               	movlw	low EEPROM_24C02C_Write_Byte@slave_ack
  7114   00298C  6E0F               	movwf	MSSP_I2C_Master_Write_Blocking@ack^0,c
  7115   00298E  0E00               	movlw	high EEPROM_24C02C_Write_Byte@slave_ack
  7116   002990  6E10               	movwf	(MSSP_I2C_Master_Write_Blocking@ack+1)^0,c
  7117   002992  ECBA  F01A         	call	_MSSP_I2C_Master_Write_Blocking	;wreg free
  7118   002996  6E6F               	movwf	_ret^0,c
  7119   002998                     
  7120                           ;ECU_Layer/EEPROM_24C02C/EEPROM_24C02C.c: 19:     _delay((unsigned long)((10)*(4000000UL
      +                          /4000.0))) ;
  7121   002998  0E0D               	movlw	13
  7122   00299A  6E13               	movwf	??_EEPROM_24C02C_Write_Byte^0,c
  7123   00299C  0EFC               	movlw	252
  7124   00299E                     u10897:
  7125   00299E  2EE8               	decfsz	wreg,f,c
  7126   0029A0  D7FE               	bra	u10897
  7127   0029A2  2E13               	decfsz	??_EEPROM_24C02C_Write_Byte^0,f,c
  7128   0029A4  D7FC               	bra	u10897
  7129   0029A6                     
  7130                           ;ECU_Layer/EEPROM_24C02C/EEPROM_24C02C.c: 20:     ret= MSSP_I2C_Master_Send_Stop(&i2c_ob
      +                          j);
  7131   0029A6  0E65               	movlw	low _i2c_obj
  7132   0029A8  6E0C               	movwf	MSSP_I2C_Master_Send_Stop@i2c_obj^0,c
  7133   0029AA  0E00               	movlw	high _i2c_obj
  7134   0029AC  6E0D               	movwf	(MSSP_I2C_Master_Send_Stop@i2c_obj+1)^0,c
  7135   0029AE  ECFD  F01B         	call	_MSSP_I2C_Master_Send_Stop	;wreg free
  7136   0029B2  6E6F               	movwf	_ret^0,c
  7137   0029B4                     
  7138                           ;ECU_Layer/EEPROM_24C02C/EEPROM_24C02C.c: 21:     _delay((unsigned long)((10)*(4000000UL
      +                          /4000.0))) ;
  7139   0029B4  0E0D               	movlw	13
  7140   0029B6  6E13               	movwf	??_EEPROM_24C02C_Write_Byte^0,c
  7141   0029B8  0EFC               	movlw	252
  7142   0029BA                     u10907:
  7143   0029BA  2EE8               	decfsz	wreg,f,c
  7144   0029BC  D7FE               	bra	u10907
  7145   0029BE  2E13               	decfsz	??_EEPROM_24C02C_Write_Byte^0,f,c
  7146   0029C0  D7FC               	bra	u10907
  7147   0029C2  0012               	return		;funcret
  7148   0029C4                     __end_of_EEPROM_24C02C_Write_Byte:
  7149                           	callstack 0
  7150                           
  7151 ;; *************** function _MSSP_I2C_Master_Write_Blocking *****************
  7152 ;; Defined at:
  7153 ;;		line 168 in file "MCAL_Layer/I2C/hal_i2c.c"
  7154 ;; Parameters:    Size  Location     Type
  7155 ;;  i2c_obj         2   11[COMRAM] PTR const struct .
  7156 ;;		 -> I2C_Write_Register@i2c_obj(2), I2C_Read_Register@i2c_obj(2), i2c_obj(5), 
  7157 ;;  i2c_data        1   13[COMRAM] unsigned char 
  7158 ;;  ack             2   14[COMRAM] PTR unsigned char 
  7159 ;;		 -> EEPROM_24C02C_Read_Byte@slave_ack(1), EEPROM_24C02C_Write_Byte@slave_ack(1), I2C_Write_Register@slave_ack(1), I2
      +C_Read_Register@slave_ack(1), 
  7160 ;;		 -> Read_RealTimeClockDS1307@slave_ack(1), 
  7161 ;; Auto vars:     Size  Location     Type
  7162 ;;  ret             1    0        unsigned char 
  7163 ;; Return value:  Size  Location     Type
  7164 ;;                  1    wreg      unsigned char 
  7165 ;; Registers used:
  7166 ;;		wreg, fsr2l, fsr2h, status,2, status,0
  7167 ;; Tracked objects:
  7168 ;;		On entry : 0/0
  7169 ;;		On exit  : 0/0
  7170 ;;		Unchanged: 0/0
  7171 ;; Data sizes:     COMRAM   BANK0   BANK1   BANK2   BANK3   BANK4   BANK5   BANK6   BANK7   BANK8   BANK9  BANK10  BANK1
      +1  BANK12  BANK13  BANK14  BANK15
  7172 ;;      Params:         5       0       0       0       0       0       0       0       0       0       0       0       
      +0       0       0       0       0
  7173 ;;      Locals:         0       0       0       0       0       0       0       0       0       0       0       0       
      +0       0       0       0       0
  7174 ;;      Temps:          0       0       0       0       0       0       0       0       0       0       0       0       
      +0       0       0       0       0
  7175 ;;      Totals:         5       0       0       0       0       0       0       0       0       0       0       0       
      +0       0       0       0       0
  7176 ;;Total ram usage:        5 bytes
  7177 ;; Hardware stack levels used: 1
  7178 ;; Hardware stack levels required when called: 4
  7179 ;; This function calls:
  7180 ;;		Nothing
  7181 ;; This function is called by:
  7182 ;;		_Read_RealTimeClockDS1307
  7183 ;;		_EEPROM_24C02C_Write_Byte
  7184 ;;		_I2C_Read_Register
  7185 ;;		_I2C_Write_Register
  7186 ;;		_EEPROM_24C02C_Read_Byte
  7187 ;; This function uses a non-reentrant model
  7188 ;;
  7189                           
  7190                           	psect	text28
  7191   003574                     __ptext28:
  7192                           	callstack 0
  7193   003574                     _MSSP_I2C_Master_Write_Blocking:
  7194                           	callstack 24
  7195   003574                     
  7196                           ;MCAL_Layer/I2C/hal_i2c.c: 171:     if((((void*)0) == i2c_obj) || (((void*)0) == ack)){
  7197   003574  500C               	movf	MSSP_I2C_Master_Write_Blocking@i2c_obj^0,w,c
  7198   003576  100D               	iorwf	(MSSP_I2C_Master_Write_Blocking@i2c_obj+1)^0,w,c
  7199   003578  B4D8               	btfsc	status,2,c
  7200   00357A  EFC1  F01A         	goto	u9631
  7201   00357E  EFC3  F01A         	goto	u9630
  7202   003582                     u9631:
  7203   003582  EFCC  F01A         	goto	l10456
  7204   003586                     u9630:
  7205   003586  500F               	movf	MSSP_I2C_Master_Write_Blocking@ack^0,w,c
  7206   003588  1010               	iorwf	(MSSP_I2C_Master_Write_Blocking@ack+1)^0,w,c
  7207   00358A  A4D8               	btfss	status,2,c
  7208   00358C  EFCA  F01A         	goto	u9641
  7209   003590  EFCC  F01A         	goto	u9640
  7210   003594                     u9641:
  7211   003594  EFCE  F01A         	goto	l964
  7212   003598                     u9640:
  7213   003598                     l10456:
  7214                           
  7215                           ;MCAL_Layer/I2C/hal_i2c.c: 173:     }
  7216   003598  EFEE  F01A         	goto	l10464
  7217   00359C                     l964:
  7218                           
  7219                           ;MCAL_Layer/I2C/hal_i2c.c: 176:         SSPBUF=i2c_data;
  7220   00359C  C00E  FFC9         	movff	MSSP_I2C_Master_Write_Blocking@i2c_data,4041	;volatile
  7221   0035A0                     l968:
  7222   0035A0  A69E               	btfss	158,3,c	;volatile
  7223   0035A2  EFD5  F01A         	goto	u9651
  7224   0035A6  EFD7  F01A         	goto	u9650
  7225   0035AA                     u9651:
  7226   0035AA  EFD0  F01A         	goto	l968
  7227   0035AE                     u9650:
  7228   0035AE                     
  7229                           ;MCAL_Layer/I2C/hal_i2c.c: 180:         PIR1bits.SSPIF=0;
  7230   0035AE  969E               	bcf	158,3,c	;volatile
  7231                           
  7232                           ;MCAL_Layer/I2C/hal_i2c.c: 182:         if(0 == SSPCON2bits.ACKSTAT){
  7233   0035B0  BCC5               	btfsc	197,6,c	;volatile
  7234   0035B2  EFDD  F01A         	goto	u9661
  7235   0035B6  EFDF  F01A         	goto	u9660
  7236   0035BA                     u9661:
  7237   0035BA  EFE6  F01A         	goto	l10460
  7238   0035BE                     u9660:
  7239   0035BE                     
  7240                           ;MCAL_Layer/I2C/hal_i2c.c: 183:             *ack = 0;
  7241   0035BE  C00F  FFD9         	movff	MSSP_I2C_Master_Write_Blocking@ack,fsr2l
  7242   0035C2  C010  FFDA         	movff	MSSP_I2C_Master_Write_Blocking@ack+1,fsr2h
  7243   0035C6  6ADF               	clrf	indf2,c
  7244                           
  7245                           ;MCAL_Layer/I2C/hal_i2c.c: 184:         }
  7246   0035C8  EFCC  F01A         	goto	l10456
  7247   0035CC                     l10460:
  7248                           
  7249                           ;MCAL_Layer/I2C/hal_i2c.c: 186:            *ack = 1;
  7250   0035CC  C00F  FFD9         	movff	MSSP_I2C_Master_Write_Blocking@ack,fsr2l
  7251   0035D0  C010  FFDA         	movff	MSSP_I2C_Master_Write_Blocking@ack+1,fsr2h
  7252   0035D4  0E01               	movlw	1
  7253   0035D6  6EDF               	movwf	indf2,c
  7254   0035D8  EFCC  F01A         	goto	l10456
  7255   0035DC                     l10464:
  7256                           
  7257                           ;MCAL_Layer/I2C/hal_i2c.c: 190:     return ret;
  7258   0035DC  0E01               	movlw	1
  7259   0035DE  0012               	return		;funcret
  7260   0035E0                     __end_of_MSSP_I2C_Master_Write_Blocking:
  7261                           	callstack 0
  7262                           
  7263 ;; *************** function _MSSP_I2C_Master_Send_Stop *****************
  7264 ;; Defined at:
  7265 ;;		line 144 in file "MCAL_Layer/I2C/hal_i2c.c"
  7266 ;; Parameters:    Size  Location     Type
  7267 ;;  i2c_obj         2   11[COMRAM] PTR const struct .
  7268 ;;		 -> I2C_Write_Register@i2c_obj(2), I2C_Read_Register@i2c_obj(2), i2c_obj(5), 
  7269 ;; Auto vars:     Size  Location     Type
  7270 ;;  ret             1    0        unsigned char 
  7271 ;; Return value:  Size  Location     Type
  7272 ;;                  1    wreg      unsigned char 
  7273 ;; Registers used:
  7274 ;;		wreg, status,2, status,0
  7275 ;; Tracked objects:
  7276 ;;		On entry : 0/0
  7277 ;;		On exit  : 0/0
  7278 ;;		Unchanged: 0/0
  7279 ;; Data sizes:     COMRAM   BANK0   BANK1   BANK2   BANK3   BANK4   BANK5   BANK6   BANK7   BANK8   BANK9  BANK10  BANK1
      +1  BANK12  BANK13  BANK14  BANK15
  7280 ;;      Params:         2       0       0       0       0       0       0       0       0       0       0       0       
      +0       0       0       0       0
  7281 ;;      Locals:         0       0       0       0       0       0       0       0       0       0       0       0       
      +0       0       0       0       0
  7282 ;;      Temps:          0       0       0       0       0       0       0       0       0       0       0       0       
      +0       0       0       0       0
  7283 ;;      Totals:         2       0       0       0       0       0       0       0       0       0       0       0       
      +0       0       0       0       0
  7284 ;;Total ram usage:        2 bytes
  7285 ;; Hardware stack levels used: 1
  7286 ;; Hardware stack levels required when called: 4
  7287 ;; This function calls:
  7288 ;;		Nothing
  7289 ;; This function is called by:
  7290 ;;		_Read_RealTimeClockDS1307
  7291 ;;		_EEPROM_24C02C_Write_Byte
  7292 ;;		_I2C_Read_Register
  7293 ;;		_I2C_Write_Register
  7294 ;;		_EEPROM_24C02C_Read_Byte
  7295 ;; This function uses a non-reentrant model
  7296 ;;
  7297                           
  7298                           	psect	text29
  7299   0037FA                     __ptext29:
  7300                           	callstack 0
  7301   0037FA                     _MSSP_I2C_Master_Send_Stop:
  7302                           	callstack 24
  7303   0037FA                     
  7304                           ;MCAL_Layer/I2C/hal_i2c.c: 147:     if(((void*)0) == i2c_obj){
  7305   0037FA  500C               	movf	MSSP_I2C_Master_Send_Stop@i2c_obj^0,w,c
  7306   0037FC  100D               	iorwf	(MSSP_I2C_Master_Send_Stop@i2c_obj+1)^0,w,c
  7307   0037FE  A4D8               	btfss	status,2,c
  7308   003800  EF04  F01C         	goto	u9741
  7309   003804  EF06  F01C         	goto	u9740
  7310   003808                     u9741:
  7311   003808  EF08  F01C         	goto	l954
  7312   00380C                     u9740:
  7313   00380C                     l10504:
  7314                           
  7315                           ;MCAL_Layer/I2C/hal_i2c.c: 149:     }
  7316   00380C  EF14  F01C         	goto	l955
  7317   003810                     l954:
  7318                           
  7319                           ;MCAL_Layer/I2C/hal_i2c.c: 152:          SSPCON2bits.PEN=1;
  7320   003810  84C5               	bsf	197,2,c	;volatile
  7321   003812                     l956:
  7322   003812  B4C5               	btfsc	197,2,c	;volatile
  7323   003814  EF0E  F01C         	goto	u9751
  7324   003818  EF10  F01C         	goto	u9750
  7325   00381C                     u9751:
  7326   00381C  EF09  F01C         	goto	l956
  7327   003820                     u9750:
  7328   003820                     
  7329                           ;MCAL_Layer/I2C/hal_i2c.c: 156:          PIR1bits.SSPIF=0;
  7330   003820  969E               	bcf	158,3,c	;volatile
  7331                           
  7332                           ;MCAL_Layer/I2C/hal_i2c.c: 158:         if(1 == SSPSTATbits.P){
  7333   003822  50C7               	movf	199,w,c	;volatile
  7334   003824  EF06  F01C         	goto	l10504
  7335   003828                     l955:
  7336                           
  7337                           ;MCAL_Layer/I2C/hal_i2c.c: 166:     return ret;
  7338   003828  0E01               	movlw	1
  7339   00382A  0012               	return		;funcret
  7340   00382C                     __end_of_MSSP_I2C_Master_Send_Stop:
  7341                           	callstack 0
  7342                           
  7343 ;; *************** function _MSSP_I2C_Master_Send_Start *****************
  7344 ;; Defined at:
  7345 ;;		line 98 in file "MCAL_Layer/I2C/hal_i2c.c"
  7346 ;; Parameters:    Size  Location     Type
  7347 ;;  i2c_obj         2   11[COMRAM] PTR const struct .
  7348 ;;		 -> I2C_Write_Register@i2c_obj(2), I2C_Read_Register@i2c_obj(2), i2c_obj(5), 
  7349 ;; Auto vars:     Size  Location     Type
  7350 ;;  ret             1    0        unsigned char 
  7351 ;; Return value:  Size  Location     Type
  7352 ;;                  1    wreg      unsigned char 
  7353 ;; Registers used:
  7354 ;;		wreg, status,2, status,0
  7355 ;; Tracked objects:
  7356 ;;		On entry : 0/0
  7357 ;;		On exit  : 0/0
  7358 ;;		Unchanged: 0/0
  7359 ;; Data sizes:     COMRAM   BANK0   BANK1   BANK2   BANK3   BANK4   BANK5   BANK6   BANK7   BANK8   BANK9  BANK10  BANK1
      +1  BANK12  BANK13  BANK14  BANK15
  7360 ;;      Params:         2       0       0       0       0       0       0       0       0       0       0       0       
      +0       0       0       0       0
  7361 ;;      Locals:         0       0       0       0       0       0       0       0       0       0       0       0       
      +0       0       0       0       0
  7362 ;;      Temps:          0       0       0       0       0       0       0       0       0       0       0       0       
      +0       0       0       0       0
  7363 ;;      Totals:         2       0       0       0       0       0       0       0       0       0       0       0       
      +0       0       0       0       0
  7364 ;;Total ram usage:        2 bytes
  7365 ;; Hardware stack levels used: 1
  7366 ;; Hardware stack levels required when called: 4
  7367 ;; This function calls:
  7368 ;;		Nothing
  7369 ;; This function is called by:
  7370 ;;		_Read_RealTimeClockDS1307
  7371 ;;		_EEPROM_24C02C_Write_Byte
  7372 ;;		_I2C_Read_Register
  7373 ;;		_I2C_Write_Register
  7374 ;;		_EEPROM_24C02C_Read_Byte
  7375 ;; This function uses a non-reentrant model
  7376 ;;
  7377                           
  7378                           	psect	text30
  7379   00382C                     __ptext30:
  7380                           	callstack 0
  7381   00382C                     _MSSP_I2C_Master_Send_Start:
  7382                           	callstack 24
  7383   00382C                     
  7384                           ;MCAL_Layer/I2C/hal_i2c.c: 101:     if(((void*)0) == i2c_obj){
  7385   00382C  500C               	movf	MSSP_I2C_Master_Send_Start@i2c_obj^0,w,c
  7386   00382E  100D               	iorwf	(MSSP_I2C_Master_Send_Start@i2c_obj+1)^0,w,c
  7387   003830  A4D8               	btfss	status,2,c
  7388   003832  EF1D  F01C         	goto	u9611
  7389   003836  EF1F  F01C         	goto	u9610
  7390   00383A                     u9611:
  7391   00383A  EF21  F01C         	goto	l936
  7392   00383E                     u9610:
  7393   00383E                     l10442:
  7394                           
  7395                           ;MCAL_Layer/I2C/hal_i2c.c: 103:     }
  7396   00383E  EF2D  F01C         	goto	l937
  7397   003842                     l936:
  7398                           
  7399                           ;MCAL_Layer/I2C/hal_i2c.c: 106:          SSPCON2bits.SEN=1;
  7400   003842  80C5               	bsf	197,0,c	;volatile
  7401   003844                     l938:
  7402   003844  B0C5               	btfsc	197,0,c	;volatile
  7403   003846  EF27  F01C         	goto	u9621
  7404   00384A  EF29  F01C         	goto	u9620
  7405   00384E                     u9621:
  7406   00384E  EF22  F01C         	goto	l938
  7407   003852                     u9620:
  7408   003852                     
  7409                           ;MCAL_Layer/I2C/hal_i2c.c: 110:          PIR1bits.SSPIF=0;
  7410   003852  969E               	bcf	158,3,c	;volatile
  7411                           
  7412                           ;MCAL_Layer/I2C/hal_i2c.c: 112:         if(1 == SSPSTATbits.S){
  7413   003854  50C7               	movf	199,w,c	;volatile
  7414   003856  EF1F  F01C         	goto	l10442
  7415   00385A                     l937:
  7416                           
  7417                           ;MCAL_Layer/I2C/hal_i2c.c: 121:     return ret;
  7418   00385A  0E01               	movlw	1
  7419   00385C  0012               	return		;funcret
  7420   00385E                     __end_of_MSSP_I2C_Master_Send_Start:
  7421                           	callstack 0
  7422                           
  7423 ;; *************** function _Door2_Open *****************
  7424 ;; Defined at:
  7425 ;;		line 287 in file "ECU_Layer/ecu_layer_init.c"
  7426 ;; Parameters:    Size  Location     Type
  7427 ;;		None
  7428 ;; Auto vars:     Size  Location     Type
  7429 ;;		None
  7430 ;; Return value:  Size  Location     Type
  7431 ;;                  1    wreg      void 
  7432 ;; Registers used:
  7433 ;;		wreg, fsr2l, fsr2h, status,2, status,0, prodl, prodh, cstack
  7434 ;; Tracked objects:
  7435 ;;		On entry : 0/0
  7436 ;;		On exit  : 0/0
  7437 ;;		Unchanged: 0/0
  7438 ;; Data sizes:     COMRAM   BANK0   BANK1   BANK2   BANK3   BANK4   BANK5   BANK6   BANK7   BANK8   BANK9  BANK10  BANK1
      +1  BANK12  BANK13  BANK14  BANK15
  7439 ;;      Params:         0       0       0       0       0       0       0       0       0       0       0       0       
      +0       0       0       0       0
  7440 ;;      Locals:         0       0       0       0       0       0       0       0       0       0       0       0       
      +0       0       0       0       0
  7441 ;;      Temps:          0       0       0       0       0       0       0       0       0       0       0       0       
      +0       0       0       0       0
  7442 ;;      Totals:         0       0       0       0       0       0       0       0       0       0       0       0       
      +0       0       0       0       0
  7443 ;;Total ram usage:        0 bytes
  7444 ;; Hardware stack levels used: 1
  7445 ;; Hardware stack levels required when called: 7
  7446 ;; This function calls:
  7447 ;;		_CCP2_SET_Duty
  7448 ;;		_CCP_Compare_Mode_Set_Value
  7449 ;;		_CCP_Init
  7450 ;;		_timer3_timer_init
  7451 ;; This function is called by:
  7452 ;;		_main
  7453 ;; This function uses a non-reentrant model
  7454 ;;
  7455                           
  7456                           	psect	text31
  7457   0038EE                     __ptext31:
  7458                           	callstack 0
  7459   0038EE                     _Door2_Open:
  7460                           	callstack 23
  7461   0038EE                     
  7462                           ;ECU_Layer/ecu_layer_init.c: 288:     CCP2_SET_Duty();
  7463   0038EE  ECA5  F01C         	call	_CCP2_SET_Duty	;wreg free
  7464   0038F2                     
  7465                           ;ECU_Layer/ecu_layer_init.c: 289:     ret=CCP_Compare_Mode_Set_Value(&ccp2_obj ,17600);
  7466   0038F2  0E24               	movlw	low _ccp2_obj
  7467   0038F4  6E0C               	movwf	CCP_Compare_Mode_Set_Value@_ccp_obj^0,c
  7468   0038F6  0E01               	movlw	high _ccp2_obj
  7469   0038F8  6E0D               	movwf	(CCP_Compare_Mode_Set_Value@_ccp_obj+1)^0,c
  7470   0038FA  0E44               	movlw	68
  7471   0038FC  6E0F               	movwf	(CCP_Compare_Mode_Set_Value@compare_value+1)^0,c
  7472   0038FE  0EC0               	movlw	192
  7473   003900  6E0E               	movwf	CCP_Compare_Mode_Set_Value@compare_value^0,c
  7474   003902  EC10  F01A         	call	_CCP_Compare_Mode_Set_Value	;wreg free
  7475   003906  6E6F               	movwf	_ret^0,c
  7476   003908                     
  7477                           ;ECU_Layer/ecu_layer_init.c: 290:     ret= CCP_Init(&ccp2_obj);
  7478   003908  0E24               	movlw	low _ccp2_obj
  7479   00390A  6E19               	movwf	CCP_Init@_ccp_obj^0,c
  7480   00390C  0E01               	movlw	high _ccp2_obj
  7481   00390E  6E1A               	movwf	(CCP_Init@_ccp_obj+1)^0,c
  7482   003910  EC21  F014         	call	_CCP_Init	;wreg free
  7483   003914  6E6F               	movwf	_ret^0,c
  7484   003916                     
  7485                           ;ECU_Layer/ecu_layer_init.c: 291:     timer3_timer_init();
  7486   003916  EC8E  F01C         	call	_timer3_timer_init	;wreg free
  7487   00391A  0012               	return		;funcret
  7488   00391C                     __end_of_Door2_Open:
  7489                           	callstack 0
  7490                           
  7491 ;; *************** function _timer3_timer_init *****************
  7492 ;; Defined at:
  7493 ;;		line 195 in file "ECU_Layer/ecu_layer_init.c"
  7494 ;; Parameters:    Size  Location     Type
  7495 ;;		None
  7496 ;; Auto vars:     Size  Location     Type
  7497 ;;		None
  7498 ;; Return value:  Size  Location     Type
  7499 ;;                  1    wreg      void 
  7500 ;; Registers used:
  7501 ;;		wreg, fsr2l, fsr2h, status,2, status,0, cstack
  7502 ;; Tracked objects:
  7503 ;;		On entry : 0/0
  7504 ;;		On exit  : 0/0
  7505 ;;		Unchanged: 0/0
  7506 ;; Data sizes:     COMRAM   BANK0   BANK1   BANK2   BANK3   BANK4   BANK5   BANK6   BANK7   BANK8   BANK9  BANK10  BANK1
      +1  BANK12  BANK13  BANK14  BANK15
  7507 ;;      Params:         0       0       0       0       0       0       0       0       0       0       0       0       
      +0       0       0       0       0
  7508 ;;      Locals:         0       0       0       0       0       0       0       0       0       0       0       0       
      +0       0       0       0       0
  7509 ;;      Temps:          0       0       0       0       0       0       0       0       0       0       0       0       
      +0       0       0       0       0
  7510 ;;      Totals:         0       0       0       0       0       0       0       0       0       0       0       0       
      +0       0       0       0       0
  7511 ;;Total ram usage:        0 bytes
  7512 ;; Hardware stack levels used: 1
  7513 ;; Hardware stack levels required when called: 6
  7514 ;; This function calls:
  7515 ;;		_Timer3_Init
  7516 ;; This function is called by:
  7517 ;;		_Door2_Open
  7518 ;; This function uses a non-reentrant model
  7519 ;;
  7520                           
  7521                           	psect	text32
  7522   00391C                     __ptext32:
  7523                           	callstack 0
  7524   00391C                     _timer3_timer_init:
  7525                           	callstack 23
  7526   00391C                     
  7527                           ;ECU_Layer/ecu_layer_init.c: 197:     timer_obj.TMR3_InterruptHandler=((void*)0);
  7528   00391C  0E00               	movlw	0
  7529   00391E  0100               	movlb	0	; () banked
  7530   003920  6FE4               	movwf	_timer_obj& (0+255),b
  7531   003922  0E00               	movlw	0
  7532   003924  6FE5               	movwf	(_timer_obj+1)& (0+255),b
  7533   003926                     
  7534                           ; BSR set to: 0
  7535                           ;ECU_Layer/ecu_layer_init.c: 198:     timer_obj.prescaler_value= TIMER3_PRESCALER_DIV_BY
      +                          _1;
  7536   003926  0E00               	movlw	0
  7537   003928  6FE9               	movwf	(_timer_obj+5)& (0+255),b
  7538   00392A                     
  7539                           ; BSR set to: 0
  7540                           ;ECU_Layer/ecu_layer_init.c: 199:     timer_obj.timer3_mode=0;
  7541   00392A  91EA               	bcf	(_timer_obj+6)& (0+255),0,b
  7542   00392C                     
  7543                           ; BSR set to: 0
  7544                           ;ECU_Layer/ecu_layer_init.c: 200:     timer_obj.priority=INTERRUPT_LOW_PRIORITY;
  7545   00392C  0E00               	movlw	0
  7546   00392E  6FE6               	movwf	(_timer_obj+2)& (0+255),b
  7547   003930                     
  7548                           ; BSR set to: 0
  7549                           ;ECU_Layer/ecu_layer_init.c: 201:     timer_obj.timer3_preload_value=0;
  7550   003930  0E00               	movlw	0
  7551   003932  6FE8               	movwf	(_timer_obj+4)& (0+255),b
  7552   003934  0E00               	movlw	0
  7553   003936  6FE7               	movwf	(_timer_obj+3)& (0+255),b
  7554   003938                     
  7555                           ; BSR set to: 0
  7556                           ;ECU_Layer/ecu_layer_init.c: 202:     timer_obj.timer3_reg_rw_mode=0;
  7557   003938  95EA               	bcf	(_timer_obj+6)& (0+255),2,b
  7558   00393A                     
  7559                           ; BSR set to: 0
  7560                           ;ECU_Layer/ecu_layer_init.c: 204:     ret=Timer3_Init(&timer_obj);
  7561   00393A  0EE4               	movlw	low _timer_obj
  7562   00393C  6E0E               	movwf	Timer3_Init@_timer^0,c
  7563   00393E  0E00               	movlw	high _timer_obj
  7564   003940  6E0F               	movwf	(Timer3_Init@_timer+1)^0,c
  7565   003942  EC93  F015         	call	_Timer3_Init	;wreg free
  7566   003946  6E6F               	movwf	_ret^0,c
  7567   003948  0012               	return		;funcret
  7568   00394A                     __end_of_timer3_timer_init:
  7569                           	callstack 0
  7570                           
  7571 ;; *************** function _Timer3_Init *****************
  7572 ;; Defined at:
  7573 ;;		line 13 in file "MCAL_Layer/Timer3/hal_timer3.c"
  7574 ;; Parameters:    Size  Location     Type
  7575 ;;  _timer          2   13[COMRAM] PTR const struct .
  7576 ;;		 -> timer_obj(7), 
  7577 ;; Auto vars:     Size  Location     Type
  7578 ;;  ret             1    0        unsigned char 
  7579 ;; Return value:  Size  Location     Type
  7580 ;;                  1    wreg      unsigned char 
  7581 ;; Registers used:
  7582 ;;		wreg, fsr2l, fsr2h, status,2, status,0, cstack
  7583 ;; Tracked objects:
  7584 ;;		On entry : 0/0
  7585 ;;		On exit  : 0/0
  7586 ;;		Unchanged: 0/0
  7587 ;; Data sizes:     COMRAM   BANK0   BANK1   BANK2   BANK3   BANK4   BANK5   BANK6   BANK7   BANK8   BANK9  BANK10  BANK1
      +1  BANK12  BANK13  BANK14  BANK15
  7588 ;;      Params:         2       0       0       0       0       0       0       0       0       0       0       0       
      +0       0       0       0       0
  7589 ;;      Locals:         0       0       0       0       0       0       0       0       0       0       0       0       
      +0       0       0       0       0
  7590 ;;      Temps:          2       0       0       0       0       0       0       0       0       0       0       0       
      +0       0       0       0       0
  7591 ;;      Totals:         4       0       0       0       0       0       0       0       0       0       0       0       
      +0       0       0       0       0
  7592 ;;Total ram usage:        4 bytes
  7593 ;; Hardware stack levels used: 1
  7594 ;; Hardware stack levels required when called: 5
  7595 ;; This function calls:
  7596 ;;		_Timer3_Mode_Select
  7597 ;; This function is called by:
  7598 ;;		_timer3_timer_init
  7599 ;; This function uses a non-reentrant model
  7600 ;;
  7601                           
  7602                           	psect	text33
  7603   002B26                     __ptext33:
  7604                           	callstack 0
  7605   002B26                     _Timer3_Init:
  7606                           	callstack 23
  7607   002B26                     
  7608                           ;MCAL_Layer/Timer3/hal_timer3.c: 16:     if(((void*)0) == _timer){
  7609   002B26  500E               	movf	Timer3_Init@_timer^0,w,c
  7610   002B28  100F               	iorwf	(Timer3_Init@_timer+1)^0,w,c
  7611   002B2A  A4D8               	btfss	status,2,c
  7612   002B2C  EF9A  F015         	goto	u9781
  7613   002B30  EF9C  F015         	goto	u9780
  7614   002B34                     u9781:
  7615   002B34  EF9E  F015         	goto	l1540
  7616   002B38                     u9780:
  7617   002B38                     l10564:
  7618                           
  7619                           ;MCAL_Layer/Timer3/hal_timer3.c: 18:     }
  7620   002B38  EFE3  F015         	goto	l10590
  7621   002B3C                     l1540:
  7622                           
  7623                           ;MCAL_Layer/Timer3/hal_timer3.c: 21:         (T3CONbits.TMR3ON=0);
  7624   002B3C  90B1               	bcf	177,0,c	;volatile
  7625   002B3E                     
  7626                           ;MCAL_Layer/Timer3/hal_timer3.c: 22:         (T3CONbits.T3CKPS=_timer->prescaler_value);
  7627   002B3E  EE20 F005          	lfsr	2,5
  7628   002B42  500E               	movf	Timer3_Init@_timer^0,w,c
  7629   002B44  26D9               	addwf	fsr2l,f,c
  7630   002B46  500F               	movf	(Timer3_Init@_timer+1)^0,w,c
  7631   002B48  22DA               	addwfc	fsr2h,f,c
  7632   002B4A  50DF               	movf	indf2,w,c
  7633   002B4C  6E10               	movwf	??_Timer3_Init^0,c
  7634   002B4E  3A10               	swapf	??_Timer3_Init^0,f,c
  7635   002B50  50B1               	movf	177,w,c	;volatile
  7636   002B52  1810               	xorwf	??_Timer3_Init^0,w,c
  7637   002B54  0BCF               	andlw	-49
  7638   002B56  1810               	xorwf	??_Timer3_Init^0,w,c
  7639   002B58  6EB1               	movwf	177,c	;volatile
  7640   002B5A                     
  7641                           ;MCAL_Layer/Timer3/hal_timer3.c: 23:         Timer3_Mode_Select(_timer);
  7642   002B5A  C00E  F00C         	movff	Timer3_Init@_timer,Timer3_Mode_Select@_timer
  7643   002B5E  C00F  F00D         	movff	Timer3_Init@_timer+1,Timer3_Mode_Select@_timer+1
  7644   002B62  EC6A  F018         	call	_Timer3_Mode_Select	;wreg free
  7645   002B66                     
  7646                           ;MCAL_Layer/Timer3/hal_timer3.c: 24:         TMR3H=(_timer->timer3_preload_value) >> 8;
  7647   002B66  EE20 F003          	lfsr	2,3
  7648   002B6A  500E               	movf	Timer3_Init@_timer^0,w,c
  7649   002B6C  26D9               	addwf	fsr2l,f,c
  7650   002B6E  500F               	movf	(Timer3_Init@_timer+1)^0,w,c
  7651   002B70  22DA               	addwfc	fsr2h,f,c
  7652   002B72  CFDE F010          	movff	postinc2,??_Timer3_Init
  7653   002B76  CFDD F011          	movff	postdec2,??_Timer3_Init+1
  7654   002B7A  C011  F010         	movff	??_Timer3_Init+1,??_Timer3_Init
  7655   002B7E  6A11               	clrf	(??_Timer3_Init+1)^0,c
  7656   002B80  5010               	movf	??_Timer3_Init^0,w,c
  7657   002B82  6EB3               	movwf	179,c	;volatile
  7658   002B84                     
  7659                           ;MCAL_Layer/Timer3/hal_timer3.c: 25:         TMR3L=(uint8)(_timer->timer3_preload_value)
      +                          ;
  7660   002B84  EE20 F003          	lfsr	2,3
  7661   002B88  500E               	movf	Timer3_Init@_timer^0,w,c
  7662   002B8A  26D9               	addwf	fsr2l,f,c
  7663   002B8C  500F               	movf	(Timer3_Init@_timer+1)^0,w,c
  7664   002B8E  22DA               	addwfc	fsr2h,f,c
  7665   002B90  50DF               	movf	indf2,w,c
  7666   002B92  6EB2               	movwf	178,c	;volatile
  7667   002B94                     
  7668                           ;MCAL_Layer/Timer3/hal_timer3.c: 26:         timer3_preload = _timer->timer3_preload_val
      +                          ue;
  7669   002B94  EE20 F003          	lfsr	2,3
  7670   002B98  500E               	movf	Timer3_Init@_timer^0,w,c
  7671   002B9A  26D9               	addwf	fsr2l,f,c
  7672   002B9C  500F               	movf	(Timer3_Init@_timer+1)^0,w,c
  7673   002B9E  22DA               	addwfc	fsr2h,f,c
  7674   002BA0  CFDE F08E          	movff	postinc2,_timer3_preload
  7675   002BA4  CFDD F08F          	movff	postdec2,_timer3_preload+1
  7676   002BA8                     
  7677                           ;MCAL_Layer/Timer3/hal_timer3.c: 30:         (PIE2bits.TMR3IE=1);
  7678   002BA8  82A0               	bsf	160,1,c	;volatile
  7679   002BAA                     
  7680                           ;MCAL_Layer/Timer3/hal_timer3.c: 31:         (PIR2bits.TMR3IF=0);
  7681   002BAA  92A1               	bcf	161,1,c	;volatile
  7682   002BAC                     
  7683                           ;MCAL_Layer/Timer3/hal_timer3.c: 44:         (INTCONbits.GIE=1);
  7684   002BAC  8EF2               	bsf	242,7,c	;volatile
  7685   002BAE                     
  7686                           ;MCAL_Layer/Timer3/hal_timer3.c: 45:         (INTCONbits.PEIE=1);
  7687   002BAE  8CF2               	bsf	242,6,c	;volatile
  7688   002BB0                     
  7689                           ;MCAL_Layer/Timer3/hal_timer3.c: 47:         TMR3_Interrupt_Handler=_timer->TMR3_Interru
      +                          ptHandler;
  7690   002BB0  C00E  FFD9         	movff	Timer3_Init@_timer,fsr2l
  7691   002BB4  C00F  FFDA         	movff	Timer3_Init@_timer+1,fsr2h
  7692   002BB8  CFDE F090          	movff	postinc2,_TMR3_Interrupt_Handler
  7693   002BBC  CFDD F091          	movff	postdec2,_TMR3_Interrupt_Handler+1
  7694   002BC0                     
  7695                           ;MCAL_Layer/Timer3/hal_timer3.c: 49:         (T3CONbits.TMR3ON=1) ;
  7696   002BC0  80B1               	bsf	177,0,c	;volatile
  7697   002BC2  EF9C  F015         	goto	l10564
  7698   002BC6                     l10590:
  7699                           
  7700                           ;MCAL_Layer/Timer3/hal_timer3.c: 55:     return ret;
  7701   002BC6  0E01               	movlw	1
  7702   002BC8  0012               	return		;funcret
  7703   002BCA                     __end_of_Timer3_Init:
  7704                           	callstack 0
  7705                           
  7706 ;; *************** function _Timer3_Mode_Select *****************
  7707 ;; Defined at:
  7708 ;;		line 107 in file "MCAL_Layer/Timer3/hal_timer3.c"
  7709 ;; Parameters:    Size  Location     Type
  7710 ;;  _timer          2   11[COMRAM] PTR const struct .
  7711 ;;		 -> timer_obj(7), 
  7712 ;; Auto vars:     Size  Location     Type
  7713 ;;		None
  7714 ;; Return value:  Size  Location     Type
  7715 ;;                  1    wreg      void 
  7716 ;; Registers used:
  7717 ;;		wreg, fsr2l, fsr2h, status,2, status,0
  7718 ;; Tracked objects:
  7719 ;;		On entry : 0/0
  7720 ;;		On exit  : 0/0
  7721 ;;		Unchanged: 0/0
  7722 ;; Data sizes:     COMRAM   BANK0   BANK1   BANK2   BANK3   BANK4   BANK5   BANK6   BANK7   BANK8   BANK9  BANK10  BANK1
      +1  BANK12  BANK13  BANK14  BANK15
  7723 ;;      Params:         2       0       0       0       0       0       0       0       0       0       0       0       
      +0       0       0       0       0
  7724 ;;      Locals:         0       0       0       0       0       0       0       0       0       0       0       0       
      +0       0       0       0       0
  7725 ;;      Temps:          0       0       0       0       0       0       0       0       0       0       0       0       
      +0       0       0       0       0
  7726 ;;      Totals:         2       0       0       0       0       0       0       0       0       0       0       0       
      +0       0       0       0       0
  7727 ;;Total ram usage:        2 bytes
  7728 ;; Hardware stack levels used: 1
  7729 ;; Hardware stack levels required when called: 4
  7730 ;; This function calls:
  7731 ;;		Nothing
  7732 ;; This function is called by:
  7733 ;;		_Timer3_Init
  7734 ;; This function uses a non-reentrant model
  7735 ;;
  7736                           
  7737                           	psect	text34
  7738   0030D4                     __ptext34:
  7739                           	callstack 0
  7740   0030D4                     _Timer3_Mode_Select:
  7741                           	callstack 23
  7742   0030D4                     
  7743                           ;MCAL_Layer/Timer3/hal_timer3.c: 108:     if(0 == _timer->timer3_mode){
  7744   0030D4  EE20 F006          	lfsr	2,6
  7745   0030D8  500C               	movf	Timer3_Mode_Select@_timer^0,w,c
  7746   0030DA  26D9               	addwf	fsr2l,f,c
  7747   0030DC  500D               	movf	(Timer3_Mode_Select@_timer+1)^0,w,c
  7748   0030DE  22DA               	addwfc	fsr2h,f,c
  7749   0030E0  B0DF               	btfsc	indf2,0,c
  7750   0030E2  EF75  F018         	goto	u9271
  7751   0030E6  EF77  F018         	goto	u9270
  7752   0030EA                     u9271:
  7753   0030EA  EF7A  F018         	goto	l10172
  7754   0030EE                     u9270:
  7755   0030EE                     
  7756                           ;MCAL_Layer/Timer3/hal_timer3.c: 109:         (T3CONbits.TMR3CS=0) ;
  7757   0030EE  92B1               	bcf	177,1,c	;volatile
  7758                           
  7759                           ;MCAL_Layer/Timer3/hal_timer3.c: 110:     }
  7760   0030F0  EFA8  F018         	goto	l1570
  7761   0030F4                     l10172:
  7762   0030F4  EE20 F006          	lfsr	2,6
  7763   0030F8  500C               	movf	Timer3_Mode_Select@_timer^0,w,c
  7764   0030FA  26D9               	addwf	fsr2l,f,c
  7765   0030FC  500D               	movf	(Timer3_Mode_Select@_timer+1)^0,w,c
  7766   0030FE  22DA               	addwfc	fsr2h,f,c
  7767   003100  A0DF               	btfss	indf2,0,c
  7768   003102  EF85  F018         	goto	u9281
  7769   003106  EF87  F018         	goto	u9280
  7770   00310A                     u9281:
  7771   00310A  EFA8  F018         	goto	l1570
  7772   00310E                     u9280:
  7773   00310E                     
  7774                           ;MCAL_Layer/Timer3/hal_timer3.c: 112:         (T3CONbits.TMR3CS=1);
  7775   00310E  82B1               	bsf	177,1,c	;volatile
  7776   003110                     
  7777                           ;MCAL_Layer/Timer3/hal_timer3.c: 113:         if(1 == _timer->timer3_counter_mode){
  7778   003110  EE20 F006          	lfsr	2,6
  7779   003114  500C               	movf	Timer3_Mode_Select@_timer^0,w,c
  7780   003116  26D9               	addwf	fsr2l,f,c
  7781   003118  500D               	movf	(Timer3_Mode_Select@_timer+1)^0,w,c
  7782   00311A  22DA               	addwfc	fsr2h,f,c
  7783   00311C  A2DF               	btfss	indf2,1,c
  7784   00311E  EF93  F018         	goto	u9291
  7785   003122  EF95  F018         	goto	u9290
  7786   003126                     u9291:
  7787   003126  EF98  F018         	goto	l10180
  7788   00312A                     u9290:
  7789   00312A                     
  7790                           ;MCAL_Layer/Timer3/hal_timer3.c: 114:              (T3CONbits.T3SYNC=1);
  7791   00312A  84B1               	bsf	177,2,c	;volatile
  7792                           
  7793                           ;MCAL_Layer/Timer3/hal_timer3.c: 115:         }
  7794   00312C  EFA8  F018         	goto	l1570
  7795   003130                     l10180:
  7796   003130  EE20 F006          	lfsr	2,6
  7797   003134  500C               	movf	Timer3_Mode_Select@_timer^0,w,c
  7798   003136  26D9               	addwf	fsr2l,f,c
  7799   003138  500D               	movf	(Timer3_Mode_Select@_timer+1)^0,w,c
  7800   00313A  22DA               	addwfc	fsr2h,f,c
  7801   00313C  B2DF               	btfsc	indf2,1,c
  7802   00313E  EFA3  F018         	goto	u9301
  7803   003142  EFA5  F018         	goto	u9300
  7804   003146                     u9301:
  7805   003146  EFA8  F018         	goto	l1569
  7806   00314A                     u9300:
  7807   00314A                     
  7808                           ;MCAL_Layer/Timer3/hal_timer3.c: 117:             (T3CONbits.T3SYNC=0);
  7809   00314A  94B1               	bcf	177,2,c	;volatile
  7810                           
  7811                           ;MCAL_Layer/Timer3/hal_timer3.c: 118:         }
  7812   00314C  EFA8  F018         	goto	l1570
  7813   003150                     l1569:
  7814   003150                     l1570:
  7815   003150  0012               	return		;funcret
  7816   003152                     __end_of_Timer3_Mode_Select:
  7817                           	callstack 0
  7818                           
  7819 ;; *************** function _CCP2_SET_Duty *****************
  7820 ;; Defined at:
  7821 ;;		line 233 in file "ECU_Layer/ecu_layer_init.c"
  7822 ;; Parameters:    Size  Location     Type
  7823 ;;		None
  7824 ;; Auto vars:     Size  Location     Type
  7825 ;;		None
  7826 ;; Return value:  Size  Location     Type
  7827 ;;                  1    wreg      void 
  7828 ;; Registers used:
  7829 ;;		wreg, status,2, status,0
  7830 ;; Tracked objects:
  7831 ;;		On entry : 0/0
  7832 ;;		On exit  : 0/0
  7833 ;;		Unchanged: 0/0
  7834 ;; Data sizes:     COMRAM   BANK0   BANK1   BANK2   BANK3   BANK4   BANK5   BANK6   BANK7   BANK8   BANK9  BANK10  BANK1
      +1  BANK12  BANK13  BANK14  BANK15
  7835 ;;      Params:         0       0       0       0       0       0       0       0       0       0       0       0       
      +0       0       0       0       0
  7836 ;;      Locals:         0       0       0       0       0       0       0       0       0       0       0       0       
      +0       0       0       0       0
  7837 ;;      Temps:          0       0       0       0       0       0       0       0       0       0       0       0       
      +0       0       0       0       0
  7838 ;;      Totals:         0       0       0       0       0       0       0       0       0       0       0       0       
      +0       0       0       0       0
  7839 ;;Total ram usage:        0 bytes
  7840 ;; Hardware stack levels used: 1
  7841 ;; Hardware stack levels required when called: 4
  7842 ;; This function calls:
  7843 ;;		Nothing
  7844 ;; This function is called by:
  7845 ;;		_Door2_Open
  7846 ;; This function uses a non-reentrant model
  7847 ;;
  7848                           
  7849                           	psect	text35
  7850   00394A                     __ptext35:
  7851                           	callstack 0
  7852   00394A                     _CCP2_SET_Duty:
  7853                           	callstack 25
  7854   00394A                     
  7855                           ;ECU_Layer/ecu_layer_init.c: 236:     ccp2_obj.ccp_inst=CCP2_INST;
  7856   00394A  0E01               	movlw	1
  7857   00394C  0101               	movlb	1	; () banked
  7858   00394E  6F27               	movwf	(_ccp2_obj+3)& (0+255),b
  7859   003950                     
  7860                           ; BSR set to: 1
  7861                           ;ECU_Layer/ecu_layer_init.c: 237:     ccp2_obj.CCP2_InterruptHandler=CCP2_DefaultInterru
      +                          ptHandler;
  7862   003950  0ED4               	movlw	low _CCP2_DefaultInterruptHandler
  7863   003952  6F2C               	movwf	(_ccp2_obj+8)& (0+255),b
  7864   003954  0E2F               	movlw	high _CCP2_DefaultInterruptHandler
  7865   003956  6F2D               	movwf	(_ccp2_obj+9)& (0+255),b
  7866   003958                     
  7867                           ; BSR set to: 1
  7868                           ;ECU_Layer/ecu_layer_init.c: 238:     ccp2_obj.ccp_mode= CCP_COMPARE_MODE_SELECTED;
  7869   003958  0E01               	movlw	1
  7870   00395A  6F24               	movwf	_ccp2_obj& (0+255),b
  7871   00395C                     
  7872                           ; BSR set to: 1
  7873                           ;ECU_Layer/ecu_layer_init.c: 239:     ccp2_obj.ccp_variant= ((uint8)0x08) ;
  7874   00395C  0E08               	movlw	8
  7875   00395E  6F25               	movwf	(_ccp2_obj+1)& (0+255),b
  7876   003960                     
  7877                           ; BSR set to: 1
  7878                           ;ECU_Layer/ecu_layer_init.c: 240:     ccp2_obj.ccp_capture_timer= CCP1_TIMER1_CCP2_TIMER
      +                          3;
  7879   003960  0E01               	movlw	1
  7880   003962  6F28               	movwf	(_ccp2_obj+4)& (0+255),b
  7881   003964                     
  7882                           ; BSR set to: 1
  7883                           ;ECU_Layer/ecu_layer_init.c: 241:     ccp2_obj.ccp_pin.port=PORC_INDEX;
  7884   003964  5126               	movf	(_ccp2_obj+2)& (0+255),w,b
  7885   003966  0BF8               	andlw	-8
  7886   003968  0902               	iorlw	2
  7887   00396A  6F26               	movwf	(_ccp2_obj+2)& (0+255),b
  7888   00396C                     
  7889                           ; BSR set to: 1
  7890                           ;ECU_Layer/ecu_layer_init.c: 242:     ccp2_obj.ccp_pin.pin=PIN1;
  7891   00396C  5126               	movf	(_ccp2_obj+2)& (0+255),w,b
  7892   00396E  0BC7               	andlw	-57
  7893   003970  0908               	iorlw	8
  7894   003972  6F26               	movwf	(_ccp2_obj+2)& (0+255),b
  7895   003974                     
  7896                           ; BSR set to: 1
  7897                           ;ECU_Layer/ecu_layer_init.c: 243:     ccp2_obj.ccp_pin.direction=GPIO_DIRECTION_OUTPUT;
  7898   003974  9D26               	bcf	(_ccp2_obj+2)& (0+255),6,b
  7899   003976                     
  7900                           ; BSR set to: 1
  7901   003976  0012               	return		;funcret
  7902   003978                     __end_of_CCP2_SET_Duty:
  7903                           	callstack 0
  7904                           
  7905 ;; *************** function _Door1_Open *****************
  7906 ;; Defined at:
  7907 ;;		line 280 in file "ECU_Layer/ecu_layer_init.c"
  7908 ;; Parameters:    Size  Location     Type
  7909 ;;		None
  7910 ;; Auto vars:     Size  Location     Type
  7911 ;;		None
  7912 ;; Return value:  Size  Location     Type
  7913 ;;                  1    wreg      void 
  7914 ;; Registers used:
  7915 ;;		wreg, fsr2l, fsr2h, status,2, status,0, prodl, prodh, cstack
  7916 ;; Tracked objects:
  7917 ;;		On entry : 0/0
  7918 ;;		On exit  : 0/0
  7919 ;;		Unchanged: 0/0
  7920 ;; Data sizes:     COMRAM   BANK0   BANK1   BANK2   BANK3   BANK4   BANK5   BANK6   BANK7   BANK8   BANK9  BANK10  BANK1
      +1  BANK12  BANK13  BANK14  BANK15
  7921 ;;      Params:         0       0       0       0       0       0       0       0       0       0       0       0       
      +0       0       0       0       0
  7922 ;;      Locals:         0       0       0       0       0       0       0       0       0       0       0       0       
      +0       0       0       0       0
  7923 ;;      Temps:          0       0       0       0       0       0       0       0       0       0       0       0       
      +0       0       0       0       0
  7924 ;;      Totals:         0       0       0       0       0       0       0       0       0       0       0       0       
      +0       0       0       0       0
  7925 ;;Total ram usage:        0 bytes
  7926 ;; Hardware stack levels used: 1
  7927 ;; Hardware stack levels required when called: 7
  7928 ;; This function calls:
  7929 ;;		_CCP1_SET_Duty
  7930 ;;		_CCP_Compare_Mode_Set_Value
  7931 ;;		_CCP_Init
  7932 ;;		_timer1_timer_init
  7933 ;; This function is called by:
  7934 ;;		_main
  7935 ;; This function uses a non-reentrant model
  7936 ;;
  7937                           
  7938                           	psect	text36
  7939   003978                     __ptext36:
  7940                           	callstack 0
  7941   003978                     _Door1_Open:
  7942                           	callstack 23
  7943   003978                     
  7944                           ;ECU_Layer/ecu_layer_init.c: 281:     CCP1_SET_Duty();
  7945   003978  ECEA  F01C         	call	_CCP1_SET_Duty	;wreg free
  7946   00397C                     
  7947                           ;ECU_Layer/ecu_layer_init.c: 282:     ret=CCP_Compare_Mode_Set_Value(&ccp1_obj ,17600);
  7948   00397C  0E2F               	movlw	low _ccp1_obj
  7949   00397E  6E0C               	movwf	CCP_Compare_Mode_Set_Value@_ccp_obj^0,c
  7950   003980  0E01               	movlw	high _ccp1_obj
  7951   003982  6E0D               	movwf	(CCP_Compare_Mode_Set_Value@_ccp_obj+1)^0,c
  7952   003984  0E44               	movlw	68
  7953   003986  6E0F               	movwf	(CCP_Compare_Mode_Set_Value@compare_value+1)^0,c
  7954   003988  0EC0               	movlw	192
  7955   00398A  6E0E               	movwf	CCP_Compare_Mode_Set_Value@compare_value^0,c
  7956   00398C  EC10  F01A         	call	_CCP_Compare_Mode_Set_Value	;wreg free
  7957   003990  6E6F               	movwf	_ret^0,c
  7958   003992                     
  7959                           ;ECU_Layer/ecu_layer_init.c: 283:     ret= CCP_Init(&ccp1_obj);
  7960   003992  0E2F               	movlw	low _ccp1_obj
  7961   003994  6E19               	movwf	CCP_Init@_ccp_obj^0,c
  7962   003996  0E01               	movlw	high _ccp1_obj
  7963   003998  6E1A               	movwf	(CCP_Init@_ccp_obj+1)^0,c
  7964   00399A  EC21  F014         	call	_CCP_Init	;wreg free
  7965   00399E  6E6F               	movwf	_ret^0,c
  7966   0039A0                     
  7967                           ;ECU_Layer/ecu_layer_init.c: 284:     timer1_timer_init();
  7968   0039A0  ECD3  F01C         	call	_timer1_timer_init	;wreg free
  7969   0039A4  0012               	return		;funcret
  7970   0039A6                     __end_of_Door1_Open:
  7971                           	callstack 0
  7972                           
  7973 ;; *************** function _timer1_timer_init *****************
  7974 ;; Defined at:
  7975 ;;		line 207 in file "ECU_Layer/ecu_layer_init.c"
  7976 ;; Parameters:    Size  Location     Type
  7977 ;;		None
  7978 ;; Auto vars:     Size  Location     Type
  7979 ;;		None
  7980 ;; Return value:  Size  Location     Type
  7981 ;;                  1    wreg      void 
  7982 ;; Registers used:
  7983 ;;		wreg, fsr2l, fsr2h, status,2, status,0, cstack
  7984 ;; Tracked objects:
  7985 ;;		On entry : 0/0
  7986 ;;		On exit  : 0/0
  7987 ;;		Unchanged: 0/0
  7988 ;; Data sizes:     COMRAM   BANK0   BANK1   BANK2   BANK3   BANK4   BANK5   BANK6   BANK7   BANK8   BANK9  BANK10  BANK1
      +1  BANK12  BANK13  BANK14  BANK15
  7989 ;;      Params:         0       0       0       0       0       0       0       0       0       0       0       0       
      +0       0       0       0       0
  7990 ;;      Locals:         0       0       0       0       0       0       0       0       0       0       0       0       
      +0       0       0       0       0
  7991 ;;      Temps:          0       0       0       0       0       0       0       0       0       0       0       0       
      +0       0       0       0       0
  7992 ;;      Totals:         0       0       0       0       0       0       0       0       0       0       0       0       
      +0       0       0       0       0
  7993 ;;Total ram usage:        0 bytes
  7994 ;; Hardware stack levels used: 1
  7995 ;; Hardware stack levels required when called: 6
  7996 ;; This function calls:
  7997 ;;		_Timer1_Init
  7998 ;; This function is called by:
  7999 ;;		_Door1_Open
  8000 ;; This function uses a non-reentrant model
  8001 ;;
  8002                           
  8003                           	psect	text37
  8004   0039A6                     __ptext37:
  8005                           	callstack 0
  8006   0039A6                     _timer1_timer_init:
  8007                           	callstack 23
  8008   0039A6                     
  8009                           ;ECU_Layer/ecu_layer_init.c: 209:     timer1_obj.TMR1_InterruptHandler=((void*)0);
  8010   0039A6  0E00               	movlw	0
  8011   0039A8  0100               	movlb	0	; () banked
  8012   0039AA  6FDD               	movwf	_timer1_obj& (0+255),b
  8013   0039AC  0E00               	movlw	0
  8014   0039AE  6FDE               	movwf	(_timer1_obj+1)& (0+255),b
  8015   0039B0                     
  8016                           ; BSR set to: 0
  8017                           ;ECU_Layer/ecu_layer_init.c: 210:     timer1_obj.prescaler_value= TIMER1_PRESCALER_DIV_B
      +                          Y_1;
  8018   0039B0  0E00               	movlw	0
  8019   0039B2  6FE2               	movwf	(_timer1_obj+5)& (0+255),b
  8020   0039B4                     
  8021                           ; BSR set to: 0
  8022                           ;ECU_Layer/ecu_layer_init.c: 211:     timer1_obj.timer1_mode=0;
  8023   0039B4  91E3               	bcf	(_timer1_obj+6)& (0+255),0,b
  8024   0039B6                     
  8025                           ; BSR set to: 0
  8026                           ;ECU_Layer/ecu_layer_init.c: 212:     timer1_obj.priority=INTERRUPT_HIGH_PRIORITY;
  8027   0039B6  0E01               	movlw	1
  8028   0039B8  6FDF               	movwf	(_timer1_obj+2)& (0+255),b
  8029   0039BA                     
  8030                           ; BSR set to: 0
  8031                           ;ECU_Layer/ecu_layer_init.c: 213:     timer1_obj.timer1_preload_value=0;
  8032   0039BA  0E00               	movlw	0
  8033   0039BC  6FE1               	movwf	(_timer1_obj+4)& (0+255),b
  8034   0039BE  0E00               	movlw	0
  8035   0039C0  6FE0               	movwf	(_timer1_obj+3)& (0+255),b
  8036   0039C2                     
  8037                           ; BSR set to: 0
  8038                           ;ECU_Layer/ecu_layer_init.c: 214:     timer1_obj.timer1_reg_rw_mode=0;
  8039   0039C2  97E3               	bcf	(_timer1_obj+6)& (0+255),3,b
  8040   0039C4                     
  8041                           ; BSR set to: 0
  8042                           ;ECU_Layer/ecu_layer_init.c: 216:     ret=Timer1_Init(&timer1_obj);
  8043   0039C4  0EDD               	movlw	low _timer1_obj
  8044   0039C6  6E0E               	movwf	Timer1_Init@_timer^0,c
  8045   0039C8  0E00               	movlw	high _timer1_obj
  8046   0039CA  6E0F               	movwf	(Timer1_Init@_timer+1)^0,c
  8047   0039CC  ECE5  F015         	call	_Timer1_Init	;wreg free
  8048   0039D0  6E6F               	movwf	_ret^0,c
  8049   0039D2  0012               	return		;funcret
  8050   0039D4                     __end_of_timer1_timer_init:
  8051                           	callstack 0
  8052                           
  8053 ;; *************** function _Timer1_Init *****************
  8054 ;; Defined at:
  8055 ;;		line 13 in file "MCAL_Layer/Timer1/hal_timer1.c"
  8056 ;; Parameters:    Size  Location     Type
  8057 ;;  _timer          2   13[COMRAM] PTR const struct .
  8058 ;;		 -> timer1_obj(7), 
  8059 ;; Auto vars:     Size  Location     Type
  8060 ;;  ret             1    0        unsigned char 
  8061 ;; Return value:  Size  Location     Type
  8062 ;;                  1    wreg      unsigned char 
  8063 ;; Registers used:
  8064 ;;		wreg, fsr2l, fsr2h, status,2, status,0, cstack
  8065 ;; Tracked objects:
  8066 ;;		On entry : 0/0
  8067 ;;		On exit  : 0/0
  8068 ;;		Unchanged: 0/0
  8069 ;; Data sizes:     COMRAM   BANK0   BANK1   BANK2   BANK3   BANK4   BANK5   BANK6   BANK7   BANK8   BANK9  BANK10  BANK1
      +1  BANK12  BANK13  BANK14  BANK15
  8070 ;;      Params:         2       0       0       0       0       0       0       0       0       0       0       0       
      +0       0       0       0       0
  8071 ;;      Locals:         0       0       0       0       0       0       0       0       0       0       0       0       
      +0       0       0       0       0
  8072 ;;      Temps:          2       0       0       0       0       0       0       0       0       0       0       0       
      +0       0       0       0       0
  8073 ;;      Totals:         4       0       0       0       0       0       0       0       0       0       0       0       
      +0       0       0       0       0
  8074 ;;Total ram usage:        4 bytes
  8075 ;; Hardware stack levels used: 1
  8076 ;; Hardware stack levels required when called: 5
  8077 ;; This function calls:
  8078 ;;		_Timer1_Mode_Select
  8079 ;; This function is called by:
  8080 ;;		_timer1_timer_init
  8081 ;; This function uses a non-reentrant model
  8082 ;;
  8083                           
  8084                           	psect	text38
  8085   002BCA                     __ptext38:
  8086                           	callstack 0
  8087   002BCA                     _Timer1_Init:
  8088                           	callstack 23
  8089   002BCA                     
  8090                           ;MCAL_Layer/Timer1/hal_timer1.c: 16:     if(((void*)0) == _timer){
  8091   002BCA  500E               	movf	Timer1_Init@_timer^0,w,c
  8092   002BCC  100F               	iorwf	(Timer1_Init@_timer+1)^0,w,c
  8093   002BCE  A4D8               	btfss	status,2,c
  8094   002BD0  EFEC  F015         	goto	u9791
  8095   002BD4  EFEE  F015         	goto	u9790
  8096   002BD8                     u9791:
  8097   002BD8  EFF0  F015         	goto	l1443
  8098   002BDC                     u9790:
  8099   002BDC                     l10598:
  8100                           
  8101                           ;MCAL_Layer/Timer1/hal_timer1.c: 18:     }
  8102   002BDC  EF35  F016         	goto	l10624
  8103   002BE0                     l1443:
  8104                           
  8105                           ;MCAL_Layer/Timer1/hal_timer1.c: 20:         (T1CONbits.TMR1ON=0);
  8106   002BE0  90CD               	bcf	205,0,c	;volatile
  8107   002BE2                     
  8108                           ;MCAL_Layer/Timer1/hal_timer1.c: 21:         (T1CONbits.T1CKPS=_timer->prescaler_value);
  8109   002BE2  EE20 F005          	lfsr	2,5
  8110   002BE6  500E               	movf	Timer1_Init@_timer^0,w,c
  8111   002BE8  26D9               	addwf	fsr2l,f,c
  8112   002BEA  500F               	movf	(Timer1_Init@_timer+1)^0,w,c
  8113   002BEC  22DA               	addwfc	fsr2h,f,c
  8114   002BEE  50DF               	movf	indf2,w,c
  8115   002BF0  6E10               	movwf	??_Timer1_Init^0,c
  8116   002BF2  3A10               	swapf	??_Timer1_Init^0,f,c
  8117   002BF4  50CD               	movf	205,w,c	;volatile
  8118   002BF6  1810               	xorwf	??_Timer1_Init^0,w,c
  8119   002BF8  0BCF               	andlw	-49
  8120   002BFA  1810               	xorwf	??_Timer1_Init^0,w,c
  8121   002BFC  6ECD               	movwf	205,c	;volatile
  8122   002BFE                     
  8123                           ;MCAL_Layer/Timer1/hal_timer1.c: 22:         Timer1_Mode_Select(_timer);
  8124   002BFE  C00E  F00C         	movff	Timer1_Init@_timer,Timer1_Mode_Select@_timer
  8125   002C02  C00F  F00D         	movff	Timer1_Init@_timer+1,Timer1_Mode_Select@_timer+1
  8126   002C06  ECA9  F018         	call	_Timer1_Mode_Select	;wreg free
  8127   002C0A                     
  8128                           ;MCAL_Layer/Timer1/hal_timer1.c: 23:         TMR1H=(_timer->timer1_preload_value) >> 8;
  8129   002C0A  EE20 F003          	lfsr	2,3
  8130   002C0E  500E               	movf	Timer1_Init@_timer^0,w,c
  8131   002C10  26D9               	addwf	fsr2l,f,c
  8132   002C12  500F               	movf	(Timer1_Init@_timer+1)^0,w,c
  8133   002C14  22DA               	addwfc	fsr2h,f,c
  8134   002C16  CFDE F010          	movff	postinc2,??_Timer1_Init
  8135   002C1A  CFDD F011          	movff	postdec2,??_Timer1_Init+1
  8136   002C1E  C011  F010         	movff	??_Timer1_Init+1,??_Timer1_Init
  8137   002C22  6A11               	clrf	(??_Timer1_Init+1)^0,c
  8138   002C24  5010               	movf	??_Timer1_Init^0,w,c
  8139   002C26  6ECF               	movwf	207,c	;volatile
  8140   002C28                     
  8141                           ;MCAL_Layer/Timer1/hal_timer1.c: 24:         TMR1L=(uint8)(_timer->timer1_preload_value)
      +                          ;
  8142   002C28  EE20 F003          	lfsr	2,3
  8143   002C2C  500E               	movf	Timer1_Init@_timer^0,w,c
  8144   002C2E  26D9               	addwf	fsr2l,f,c
  8145   002C30  500F               	movf	(Timer1_Init@_timer+1)^0,w,c
  8146   002C32  22DA               	addwfc	fsr2h,f,c
  8147   002C34  50DF               	movf	indf2,w,c
  8148   002C36  6ECE               	movwf	206,c	;volatile
  8149   002C38                     
  8150                           ;MCAL_Layer/Timer1/hal_timer1.c: 25:         timer1_preload = _timer->timer1_preload_val
      +                          ue;
  8151   002C38  EE20 F003          	lfsr	2,3
  8152   002C3C  500E               	movf	Timer1_Init@_timer^0,w,c
  8153   002C3E  26D9               	addwf	fsr2l,f,c
  8154   002C40  500F               	movf	(Timer1_Init@_timer+1)^0,w,c
  8155   002C42  22DA               	addwfc	fsr2h,f,c
  8156   002C44  CFDE F094          	movff	postinc2,_timer1_preload
  8157   002C48  CFDD F095          	movff	postdec2,_timer1_preload+1
  8158   002C4C                     
  8159                           ;MCAL_Layer/Timer1/hal_timer1.c: 29:         (PIE1bits.TMR1IE=1);
  8160   002C4C  809D               	bsf	157,0,c	;volatile
  8161   002C4E                     
  8162                           ;MCAL_Layer/Timer1/hal_timer1.c: 30:         (PIR1bits.TMR1IF=0);
  8163   002C4E  909E               	bcf	158,0,c	;volatile
  8164   002C50                     
  8165                           ;MCAL_Layer/Timer1/hal_timer1.c: 43:         (INTCONbits.GIE=1);
  8166   002C50  8EF2               	bsf	242,7,c	;volatile
  8167   002C52                     
  8168                           ;MCAL_Layer/Timer1/hal_timer1.c: 44:         (INTCONbits.PEIE=1);
  8169   002C52  8CF2               	bsf	242,6,c	;volatile
  8170   002C54                     
  8171                           ;MCAL_Layer/Timer1/hal_timer1.c: 46:         TMR1_Interrupt_Handler=_timer->TMR1_Interru
      +                          ptHandler;
  8172   002C54  C00E  FFD9         	movff	Timer1_Init@_timer,fsr2l
  8173   002C58  C00F  FFDA         	movff	Timer1_Init@_timer+1,fsr2h
  8174   002C5C  CFDE F096          	movff	postinc2,_TMR1_Interrupt_Handler
  8175   002C60  CFDD F097          	movff	postdec2,_TMR1_Interrupt_Handler+1
  8176   002C64                     
  8177                           ;MCAL_Layer/Timer1/hal_timer1.c: 48:         (T1CONbits.TMR1ON=1) ;
  8178   002C64  80CD               	bsf	205,0,c	;volatile
  8179   002C66  EFEE  F015         	goto	l10598
  8180   002C6A                     l10624:
  8181                           
  8182                           ;MCAL_Layer/Timer1/hal_timer1.c: 53:     return ret;
  8183   002C6A  0E01               	movlw	1
  8184   002C6C  0012               	return		;funcret
  8185   002C6E                     __end_of_Timer1_Init:
  8186                           	callstack 0
  8187                           
  8188 ;; *************** function _Timer1_Mode_Select *****************
  8189 ;; Defined at:
  8190 ;;		line 118 in file "MCAL_Layer/Timer1/hal_timer1.c"
  8191 ;; Parameters:    Size  Location     Type
  8192 ;;  _timer          2   11[COMRAM] PTR const struct .
  8193 ;;		 -> timer1_obj(7), 
  8194 ;; Auto vars:     Size  Location     Type
  8195 ;;		None
  8196 ;; Return value:  Size  Location     Type
  8197 ;;                  1    wreg      void 
  8198 ;; Registers used:
  8199 ;;		wreg, fsr2l, fsr2h, status,2, status,0
  8200 ;; Tracked objects:
  8201 ;;		On entry : 0/0
  8202 ;;		On exit  : 0/0
  8203 ;;		Unchanged: 0/0
  8204 ;; Data sizes:     COMRAM   BANK0   BANK1   BANK2   BANK3   BANK4   BANK5   BANK6   BANK7   BANK8   BANK9  BANK10  BANK1
      +1  BANK12  BANK13  BANK14  BANK15
  8205 ;;      Params:         2       0       0       0       0       0       0       0       0       0       0       0       
      +0       0       0       0       0
  8206 ;;      Locals:         0       0       0       0       0       0       0       0       0       0       0       0       
      +0       0       0       0       0
  8207 ;;      Temps:          0       0       0       0       0       0       0       0       0       0       0       0       
      +0       0       0       0       0
  8208 ;;      Totals:         2       0       0       0       0       0       0       0       0       0       0       0       
      +0       0       0       0       0
  8209 ;;Total ram usage:        2 bytes
  8210 ;; Hardware stack levels used: 1
  8211 ;; Hardware stack levels required when called: 4
  8212 ;; This function calls:
  8213 ;;		Nothing
  8214 ;; This function is called by:
  8215 ;;		_Timer1_Init
  8216 ;; This function uses a non-reentrant model
  8217 ;;
  8218                           
  8219                           	psect	text39
  8220   003152                     __ptext39:
  8221                           	callstack 0
  8222   003152                     _Timer1_Mode_Select:
  8223                           	callstack 23
  8224   003152                     
  8225                           ;MCAL_Layer/Timer1/hal_timer1.c: 119:     if(0 == _timer->timer1_mode){
  8226   003152  EE20 F006          	lfsr	2,6
  8227   003156  500C               	movf	Timer1_Mode_Select@_timer^0,w,c
  8228   003158  26D9               	addwf	fsr2l,f,c
  8229   00315A  500D               	movf	(Timer1_Mode_Select@_timer+1)^0,w,c
  8230   00315C  22DA               	addwfc	fsr2h,f,c
  8231   00315E  B0DF               	btfsc	indf2,0,c
  8232   003160  EFB4  F018         	goto	u9231
  8233   003164  EFB6  F018         	goto	u9230
  8234   003168                     u9231:
  8235   003168  EFB9  F018         	goto	l10156
  8236   00316C                     u9230:
  8237   00316C                     
  8238                           ;MCAL_Layer/Timer1/hal_timer1.c: 120:         (T1CONbits.TMR1CS=0) ;
  8239   00316C  92CD               	bcf	205,1,c	;volatile
  8240                           
  8241                           ;MCAL_Layer/Timer1/hal_timer1.c: 121:     }
  8242   00316E  EFE7  F018         	goto	l1478
  8243   003172                     l10156:
  8244   003172  EE20 F006          	lfsr	2,6
  8245   003176  500C               	movf	Timer1_Mode_Select@_timer^0,w,c
  8246   003178  26D9               	addwf	fsr2l,f,c
  8247   00317A  500D               	movf	(Timer1_Mode_Select@_timer+1)^0,w,c
  8248   00317C  22DA               	addwfc	fsr2h,f,c
  8249   00317E  A0DF               	btfss	indf2,0,c
  8250   003180  EFC4  F018         	goto	u9241
  8251   003184  EFC6  F018         	goto	u9240
  8252   003188                     u9241:
  8253   003188  EFE7  F018         	goto	l1478
  8254   00318C                     u9240:
  8255   00318C                     
  8256                           ;MCAL_Layer/Timer1/hal_timer1.c: 123:         (T1CONbits.TMR1CS=1);
  8257   00318C  82CD               	bsf	205,1,c	;volatile
  8258   00318E                     
  8259                           ;MCAL_Layer/Timer1/hal_timer1.c: 124:         if(1 == _timer->timer1_counter_mode){
  8260   00318E  EE20 F006          	lfsr	2,6
  8261   003192  500C               	movf	Timer1_Mode_Select@_timer^0,w,c
  8262   003194  26D9               	addwf	fsr2l,f,c
  8263   003196  500D               	movf	(Timer1_Mode_Select@_timer+1)^0,w,c
  8264   003198  22DA               	addwfc	fsr2h,f,c
  8265   00319A  A2DF               	btfss	indf2,1,c
  8266   00319C  EFD2  F018         	goto	u9251
  8267   0031A0  EFD4  F018         	goto	u9250
  8268   0031A4                     u9251:
  8269   0031A4  EFD7  F018         	goto	l10164
  8270   0031A8                     u9250:
  8271   0031A8                     
  8272                           ;MCAL_Layer/Timer1/hal_timer1.c: 125:              (T1CONbits.T1SYNC=1);
  8273   0031A8  84CD               	bsf	205,2,c	;volatile
  8274                           
  8275                           ;MCAL_Layer/Timer1/hal_timer1.c: 126:         }
  8276   0031AA  EFE7  F018         	goto	l1478
  8277   0031AE                     l10164:
  8278   0031AE  EE20 F006          	lfsr	2,6
  8279   0031B2  500C               	movf	Timer1_Mode_Select@_timer^0,w,c
  8280   0031B4  26D9               	addwf	fsr2l,f,c
  8281   0031B6  500D               	movf	(Timer1_Mode_Select@_timer+1)^0,w,c
  8282   0031B8  22DA               	addwfc	fsr2h,f,c
  8283   0031BA  B2DF               	btfsc	indf2,1,c
  8284   0031BC  EFE2  F018         	goto	u9261
  8285   0031C0  EFE4  F018         	goto	u9260
  8286   0031C4                     u9261:
  8287   0031C4  EFE7  F018         	goto	l1477
  8288   0031C8                     u9260:
  8289   0031C8                     
  8290                           ;MCAL_Layer/Timer1/hal_timer1.c: 128:             (T1CONbits.T1SYNC=0);
  8291   0031C8  94CD               	bcf	205,2,c	;volatile
  8292                           
  8293                           ;MCAL_Layer/Timer1/hal_timer1.c: 129:         }
  8294   0031CA  EFE7  F018         	goto	l1478
  8295   0031CE                     l1477:
  8296   0031CE                     l1478:
  8297   0031CE  0012               	return		;funcret
  8298   0031D0                     __end_of_Timer1_Mode_Select:
  8299                           	callstack 0
  8300                           
  8301 ;; *************** function _CCP_Init *****************
  8302 ;; Defined at:
  8303 ;;		line 34 in file "MCAL_Layer/CCP1/hal_ccp1.c"
  8304 ;; Parameters:    Size  Location     Type
  8305 ;;  _ccp_obj        2   24[COMRAM] PTR const struct .
  8306 ;;		 -> ccp2_obj(11), ccp1_obj(11), 
  8307 ;; Auto vars:     Size  Location     Type
  8308 ;;  ret             1    0        unsigned char 
  8309 ;; Return value:  Size  Location     Type
  8310 ;;                  1    wreg      unsigned char 
  8311 ;; Registers used:
  8312 ;;		wreg, fsr2l, fsr2h, status,2, status,0, prodl, prodh, cstack
  8313 ;; Tracked objects:
  8314 ;;		On entry : 0/0
  8315 ;;		On exit  : 0/0
  8316 ;;		Unchanged: 0/0
  8317 ;; Data sizes:     COMRAM   BANK0   BANK1   BANK2   BANK3   BANK4   BANK5   BANK6   BANK7   BANK8   BANK9  BANK10  BANK1
      +1  BANK12  BANK13  BANK14  BANK15
  8318 ;;      Params:         2       0       0       0       0       0       0       0       0       0       0       0       
      +0       0       0       0       0
  8319 ;;      Locals:         0       0       0       0       0       0       0       0       0       0       0       0       
      +0       0       0       0       0
  8320 ;;      Temps:          1       0       0       0       0       0       0       0       0       0       0       0       
      +0       0       0       0       0
  8321 ;;      Totals:         3       0       0       0       0       0       0       0       0       0       0       0       
      +0       0       0       0       0
  8322 ;;Total ram usage:        3 bytes
  8323 ;; Hardware stack levels used: 1
  8324 ;; Hardware stack levels required when called: 6
  8325 ;; This function calls:
  8326 ;;		_CCP_Capture_Mode_Config
  8327 ;;		_CCP_Compare_Mode_Config
  8328 ;;		_CCP_Interrupt_Config
  8329 ;;		_gpio_pin_intialize
  8330 ;; This function is called by:
  8331 ;;		_Door1_Open
  8332 ;;		_Door2_Open
  8333 ;; This function uses a non-reentrant model
  8334 ;;
  8335                           
  8336                           	psect	text40
  8337   002842                     __ptext40:
  8338                           	callstack 0
  8339   002842                     _CCP_Init:
  8340                           	callstack 23
  8341   002842                     
  8342                           ;MCAL_Layer/CCP1/hal_ccp1.c: 37:     if(((void*)0) == _ccp_obj){
  8343   002842  5019               	movf	CCP_Init@_ccp_obj^0,w,c
  8344   002844  101A               	iorwf	(CCP_Init@_ccp_obj+1)^0,w,c
  8345   002846  A4D8               	btfss	status,2,c
  8346   002848  EF28  F014         	goto	u9981
  8347   00284C  EF2A  F014         	goto	u9980
  8348   002850                     u9981:
  8349   002850  EF2C  F014         	goto	l10976
  8350   002854                     u9980:
  8351   002854                     l10974:
  8352                           
  8353                           ;MCAL_Layer/CCP1/hal_ccp1.c: 39:     }
  8354   002854  EF86  F014         	goto	l11002
  8355   002858                     l10976:
  8356                           
  8357                           ;MCAL_Layer/CCP1/hal_ccp1.c: 41:         if( CCP1_INST == _ccp_obj->ccp_inst) {
  8358   002858  EE20 F003          	lfsr	2,3
  8359   00285C  5019               	movf	CCP_Init@_ccp_obj^0,w,c
  8360   00285E  26D9               	addwf	fsr2l,f,c
  8361   002860  501A               	movf	(CCP_Init@_ccp_obj+1)^0,w,c
  8362   002862  22DA               	addwfc	fsr2h,f,c
  8363   002864  50DF               	movf	indf2,w,c
  8364   002866  A4D8               	btfss	status,2,c
  8365   002868  EF38  F014         	goto	u9991
  8366   00286C  EF3A  F014         	goto	u9990
  8367   002870                     u9991:
  8368   002870  EF3E  F014         	goto	l10980
  8369   002874                     u9990:
  8370   002874                     
  8371                           ;MCAL_Layer/CCP1/hal_ccp1.c: 42:            (CCP1CONbits.CCP1M = ((uint8)0x00));
  8372   002874  0EF0               	movlw	-16
  8373   002876  16BD               	andwf	189,f,c	;volatile
  8374                           
  8375                           ;MCAL_Layer/CCP1/hal_ccp1.c: 43:         }
  8376   002878  EF4E  F014         	goto	l10984
  8377   00287C                     l10980:
  8378   00287C  EE20 F003          	lfsr	2,3
  8379   002880  5019               	movf	CCP_Init@_ccp_obj^0,w,c
  8380   002882  26D9               	addwf	fsr2l,f,c
  8381   002884  501A               	movf	(CCP_Init@_ccp_obj+1)^0,w,c
  8382   002886  22DA               	addwfc	fsr2h,f,c
  8383   002888  04DE               	decf	postinc2,w,c
  8384   00288A  A4D8               	btfss	status,2,c
  8385   00288C  EF4A  F014         	goto	u10001
  8386   002890  EF4C  F014         	goto	u10000
  8387   002894                     u10001:
  8388   002894  EF4E  F014         	goto	l10984
  8389   002898                     u10000:
  8390   002898                     
  8391                           ;MCAL_Layer/CCP1/hal_ccp1.c: 45:            (CCP2CONbits.CCP2M = ((uint8)0x00));
  8392   002898  0EF0               	movlw	-16
  8393   00289A  16BA               	andwf	186,f,c	;volatile
  8394   00289C                     l10984:
  8395                           
  8396                           ;MCAL_Layer/CCP1/hal_ccp1.c: 48:         if(CCP_CAPTURE_MODE_SELECTED == _ccp_obj->ccp_m
      +                          ode){
  8397   00289C  C019  FFD9         	movff	CCP_Init@_ccp_obj,fsr2l
  8398   0028A0  C01A  FFDA         	movff	CCP_Init@_ccp_obj+1,fsr2h
  8399   0028A4  50DF               	movf	indf2,w,c
  8400   0028A6  A4D8               	btfss	status,2,c
  8401   0028A8  EF58  F014         	goto	u10011
  8402   0028AC  EF5A  F014         	goto	u10010
  8403   0028B0                     u10011:
  8404   0028B0  EF62  F014         	goto	l10988
  8405   0028B4                     u10010:
  8406   0028B4  C019  F00F         	movff	CCP_Init@_ccp_obj,CCP_Capture_Mode_Config@_ccp_obj
  8407   0028B8  C01A  F010         	movff	CCP_Init@_ccp_obj+1,CCP_Capture_Mode_Config@_ccp_obj+1
  8408   0028BC  ECD7  F00D         	call	_CCP_Capture_Mode_Config	;wreg free
  8409                           
  8410                           ;MCAL_Layer/CCP1/hal_ccp1.c: 50:         }
  8411   0028C0  EF76  F014         	goto	l10996
  8412   0028C4                     l10988:
  8413   0028C4  C019  FFD9         	movff	CCP_Init@_ccp_obj,fsr2l
  8414   0028C8  C01A  FFDA         	movff	CCP_Init@_ccp_obj+1,fsr2h
  8415   0028CC  04DE               	decf	postinc2,w,c
  8416   0028CE  A4D8               	btfss	status,2,c
  8417   0028D0  EF6C  F014         	goto	u10021
  8418   0028D4  EF6E  F014         	goto	u10020
  8419   0028D8                     u10021:
  8420   0028D8  EF76  F014         	goto	l10992
  8421   0028DC                     u10020:
  8422   0028DC  C019  F00F         	movff	CCP_Init@_ccp_obj,CCP_Compare_Mode_Config@_ccp_obj
  8423   0028E0  C01A  F010         	movff	CCP_Init@_ccp_obj+1,CCP_Compare_Mode_Config@_ccp_obj+1
  8424   0028E4  EC7C  F00C         	call	_CCP_Compare_Mode_Config	;wreg free
  8425                           
  8426                           ;MCAL_Layer/CCP1/hal_ccp1.c: 53:         }
  8427   0028E8  EF76  F014         	goto	l10996
  8428   0028EC                     l10992:
  8429   0028EC                     l10996:
  8430   0028EC  0E02               	movlw	2
  8431   0028EE  2419               	addwf	CCP_Init@_ccp_obj^0,w,c
  8432   0028F0  6E15               	movwf	gpio_pin_intialize@_pin_config^0,c
  8433   0028F2  0E00               	movlw	0
  8434   0028F4  201A               	addwfc	(CCP_Init@_ccp_obj+1)^0,w,c
  8435   0028F6  6E16               	movwf	(gpio_pin_intialize@_pin_config+1)^0,c
  8436   0028F8  ECF0  F01A         	call	_gpio_pin_intialize	;wreg free
  8437   0028FC                     
  8438                           ;MCAL_Layer/CCP1/hal_ccp1.c: 65:         CCP_Interrupt_Config(_ccp_obj);
  8439   0028FC  C019  F00C         	movff	CCP_Init@_ccp_obj,CCP_Interrupt_Config@_ccp_obj
  8440   002900  C01A  F00D         	movff	CCP_Init@_ccp_obj+1,CCP_Interrupt_Config@_ccp_obj+1
  8441   002904  ECC6  F01B         	call	_CCP_Interrupt_Config	;wreg free
  8442   002908  EF2A  F014         	goto	l10974
  8443   00290C                     l11002:
  8444                           
  8445                           ;MCAL_Layer/CCP1/hal_ccp1.c: 71:     return ret;
  8446   00290C  0E01               	movlw	1
  8447   00290E  0012               	return		;funcret
  8448   002910                     __end_of_CCP_Init:
  8449                           	callstack 0
  8450                           
  8451 ;; *************** function _gpio_pin_intialize *****************
  8452 ;; Defined at:
  8453 ;;		line 153 in file "MCAL_Layer/GPIO/hal_gpio.c"
  8454 ;; Parameters:    Size  Location     Type
  8455 ;;  _pin_config     2   20[COMRAM] PTR const struct .
  8456 ;;		 -> ccp2_obj(11), ccp1_obj(11), keypad1.keypad_row_pins(4), keypad1(8), 
  8457 ;;		 -> lcd_2.lcd_data(8), relay_initialize@pin_obj(1), lcd_2(10), led_initialize@pin_obj(1), 
  8458 ;; Auto vars:     Size  Location     Type
  8459 ;;  ret             1   23[COMRAM] unsigned char 
  8460 ;; Return value:  Size  Location     Type
  8461 ;;                  1    wreg      unsigned char 
  8462 ;; Registers used:
  8463 ;;		wreg, fsr2l, fsr2h, status,2, status,0, prodl, prodh, cstack
  8464 ;; Tracked objects:
  8465 ;;		On entry : 0/0
  8466 ;;		On exit  : 0/0
  8467 ;;		Unchanged: 0/0
  8468 ;; Data sizes:     COMRAM   BANK0   BANK1   BANK2   BANK3   BANK4   BANK5   BANK6   BANK7   BANK8   BANK9  BANK10  BANK1
      +1  BANK12  BANK13  BANK14  BANK15
  8469 ;;      Params:         2       0       0       0       0       0       0       0       0       0       0       0       
      +0       0       0       0       0
  8470 ;;      Locals:         1       0       0       0       0       0       0       0       0       0       0       0       
      +0       0       0       0       0
  8471 ;;      Temps:          1       0       0       0       0       0       0       0       0       0       0       0       
      +0       0       0       0       0
  8472 ;;      Totals:         4       0       0       0       0       0       0       0       0       0       0       0       
      +0       0       0       0       0
  8473 ;;Total ram usage:        4 bytes
  8474 ;; Hardware stack levels used: 1
  8475 ;; Hardware stack levels required when called: 5
  8476 ;; This function calls:
  8477 ;;		_gpio_pin_direction_intialize
  8478 ;;		_gpio_pin_write_logic
  8479 ;; This function is called by:
  8480 ;;		_lcd_8bit_initialize
  8481 ;;		_keypad_initialize
  8482 ;;		_led_initialize
  8483 ;;		_relay_initialize
  8484 ;;		_CCP_Init
  8485 ;;		_seven_segment_initialize
  8486 ;;		_lcd_4bit_initialize
  8487 ;;		_dc_motor_initialize
  8488 ;; This function uses a non-reentrant model
  8489 ;;
  8490                           
  8491                           	psect	text41
  8492   0035E0                     __ptext41:
  8493                           	callstack 0
  8494   0035E0                     _gpio_pin_intialize:
  8495                           	callstack 22
  8496   0035E0                     
  8497                           ;MCAL_Layer/GPIO/hal_gpio.c: 155:     if(((void*)0)==_pin_config || _pin_config->pin >8 
      +                          -1){
  8498   0035E0  5015               	movf	gpio_pin_intialize@_pin_config^0,w,c
  8499   0035E2  1016               	iorwf	(gpio_pin_intialize@_pin_config+1)^0,w,c
  8500   0035E4  B4D8               	btfsc	status,2,c
  8501   0035E6  EFF7  F01A         	goto	u9111
  8502   0035EA  EFF9  F01A         	goto	u9110
  8503   0035EE                     u9111:
  8504   0035EE  EF0A  F01B         	goto	l10066
  8505   0035F2                     u9110:
  8506   0035F2  C015  FFD9         	movff	gpio_pin_intialize@_pin_config,fsr2l
  8507   0035F6  C016  FFDA         	movff	gpio_pin_intialize@_pin_config+1,fsr2h
  8508   0035FA  30DF               	rrcf	223,w,c
  8509   0035FC  32E8               	rrcf	wreg,f,c
  8510   0035FE  32E8               	rrcf	wreg,f,c
  8511   003600  0B07               	andlw	7
  8512   003602  6E17               	movwf	??_gpio_pin_intialize^0,c
  8513   003604  0E07               	movlw	7
  8514   003606  6417               	cpfsgt	??_gpio_pin_intialize^0,c
  8515   003608  EF08  F01B         	goto	u9121
  8516   00360C  EF0A  F01B         	goto	u9120
  8517   003610                     u9121:
  8518   003610  EF0E  F01B         	goto	l10068
  8519   003614                     u9120:
  8520   003614                     l10066:
  8521                           
  8522                           ;MCAL_Layer/GPIO/hal_gpio.c: 156:         ret=(Std_ReturnType)0x01;
  8523   003614  0E01               	movlw	1
  8524   003616  6E18               	movwf	gpio_pin_intialize@ret^0,c
  8525                           
  8526                           ;MCAL_Layer/GPIO/hal_gpio.c: 157:     }
  8527   003618  EF24  F01B         	goto	l10070
  8528   00361C                     l10068:
  8529                           
  8530                           ;MCAL_Layer/GPIO/hal_gpio.c: 159:          ret=gpio_pin_direction_intialize(_pin_config)
      +                          ;
  8531   00361C  C015  F00C         	movff	gpio_pin_intialize@_pin_config,gpio_pin_direction_intialize@_pin_config
  8532   003620  C016  F00D         	movff	gpio_pin_intialize@_pin_config+1,gpio_pin_direction_intialize@_pin_config+1
  8533   003624  EC77  F00E         	call	_gpio_pin_direction_intialize	;wreg free
  8534   003628  6E18               	movwf	gpio_pin_intialize@ret^0,c
  8535                           
  8536                           ;MCAL_Layer/GPIO/hal_gpio.c: 160:          ret=gpio_pin_write_logic(_pin_config,_pin_con
      +                          fig->logic);
  8537   00362A  C015  F00C         	movff	gpio_pin_intialize@_pin_config,gpio_pin_write_logic@_pin_config
  8538   00362E  C016  F00D         	movff	gpio_pin_intialize@_pin_config+1,gpio_pin_write_logic@_pin_config+1
  8539   003632  C015  FFD9         	movff	gpio_pin_intialize@_pin_config,fsr2l
  8540   003636  C016  FFDA         	movff	gpio_pin_intialize@_pin_config+1,fsr2h
  8541   00363A  0E00               	movlw	0
  8542   00363C  BEDF               	btfsc	indf2,7,c
  8543   00363E  0E01               	movlw	1
  8544   003640  6E0E               	movwf	gpio_pin_write_logic@logic^0,c
  8545   003642  ECAB  F00F         	call	_gpio_pin_write_logic	;wreg free
  8546   003646  6E18               	movwf	gpio_pin_intialize@ret^0,c
  8547   003648                     l10070:
  8548                           
  8549                           ;MCAL_Layer/GPIO/hal_gpio.c: 164:      return ret;
  8550   003648  5018               	movf	gpio_pin_intialize@ret^0,w,c
  8551   00364A  0012               	return		;funcret
  8552   00364C                     __end_of_gpio_pin_intialize:
  8553                           	callstack 0
  8554                           
  8555 ;; *************** function _gpio_pin_direction_intialize *****************
  8556 ;; Defined at:
  8557 ;;		line 24 in file "MCAL_Layer/GPIO/hal_gpio.c"
  8558 ;; Parameters:    Size  Location     Type
  8559 ;;  _pin_config     2   11[COMRAM] PTR const struct .
  8560 ;;		 -> ccp2_obj(11), ccp1_obj(11), keypad1.keypad_coulmn_pins(4), keypad1.keypad_row_pins(4), 
  8561 ;;		 -> keypad1(8), lcd_2.lcd_data(8), relay_initialize@pin_obj(1), lcd_2(10), 
  8562 ;;		 -> led_initialize@pin_obj(1), 
  8563 ;; Auto vars:     Size  Location     Type
  8564 ;;  ret             1    0        unsigned char 
  8565 ;; Return value:  Size  Location     Type
  8566 ;;                  1    wreg      unsigned char 
  8567 ;; Registers used:
  8568 ;;		wreg, fsr2l, fsr2h, status,2, status,0, prodl, prodh
  8569 ;; Tracked objects:
  8570 ;;		On entry : 0/0
  8571 ;;		On exit  : 0/0
  8572 ;;		Unchanged: 0/0
  8573 ;; Data sizes:     COMRAM   BANK0   BANK1   BANK2   BANK3   BANK4   BANK5   BANK6   BANK7   BANK8   BANK9  BANK10  BANK1
      +1  BANK12  BANK13  BANK14  BANK15
  8574 ;;      Params:         2       0       0       0       0       0       0       0       0       0       0       0       
      +0       0       0       0       0
  8575 ;;      Locals:         0       0       0       0       0       0       0       0       0       0       0       0       
      +0       0       0       0       0
  8576 ;;      Temps:          6       0       0       0       0       0       0       0       0       0       0       0       
      +0       0       0       0       0
  8577 ;;      Totals:         8       0       0       0       0       0       0       0       0       0       0       0       
      +0       0       0       0       0
  8578 ;;Total ram usage:        8 bytes
  8579 ;; Hardware stack levels used: 1
  8580 ;; Hardware stack levels required when called: 4
  8581 ;; This function calls:
  8582 ;;		Nothing
  8583 ;; This function is called by:
  8584 ;;		_keypad_initialize
  8585 ;;		_gpio_pin_intialize
  8586 ;;		_button_initialize
  8587 ;;		_Interrupt_INTx_Pin_Init
  8588 ;;		_Interrupt_RBx_Pin_Init
  8589 ;; This function uses a non-reentrant model
  8590 ;;
  8591                           
  8592                           	psect	text42
  8593   001CEE                     __ptext42:
  8594                           	callstack 0
  8595   001CEE                     _gpio_pin_direction_intialize:
  8596                           	callstack 22
  8597   001CEE                     
  8598                           ;MCAL_Layer/GPIO/hal_gpio.c: 27:     if(((void*)0)==_pin_config || _pin_config->pin >8 -
      +                          1){
  8599   001CEE  500C               	movf	gpio_pin_direction_intialize@_pin_config^0,w,c
  8600   001CF0  100D               	iorwf	(gpio_pin_direction_intialize@_pin_config+1)^0,w,c
  8601   001CF2  B4D8               	btfsc	status,2,c
  8602   001CF4  EF7E  F00E         	goto	u8231
  8603   001CF8  EF80  F00E         	goto	u8230
  8604   001CFC                     u8231:
  8605   001CFC  EF91  F00E         	goto	l9586
  8606   001D00                     u8230:
  8607   001D00  C00C  FFD9         	movff	gpio_pin_direction_intialize@_pin_config,fsr2l
  8608   001D04  C00D  FFDA         	movff	gpio_pin_direction_intialize@_pin_config+1,fsr2h
  8609   001D08  30DF               	rrcf	223,w,c
  8610   001D0A  32E8               	rrcf	wreg,f,c
  8611   001D0C  32E8               	rrcf	wreg,f,c
  8612   001D0E  0B07               	andlw	7
  8613   001D10  6E0E               	movwf	??_gpio_pin_direction_intialize^0,c
  8614   001D12  0E07               	movlw	7
  8615   001D14  640E               	cpfsgt	??_gpio_pin_direction_intialize^0,c
  8616   001D16  EF8F  F00E         	goto	u8241
  8617   001D1A  EF91  F00E         	goto	u8240
  8618   001D1E                     u8241:
  8619   001D1E  EFF2  F00E         	goto	l9594
  8620   001D22                     u8240:
  8621   001D22                     l9586:
  8622                           
  8623                           ;MCAL_Layer/GPIO/hal_gpio.c: 29:     }
  8624   001D22  EF13  F00F         	goto	l9596
  8625   001D26                     l9588:
  8626                           
  8627                           ;MCAL_Layer/GPIO/hal_gpio.c: 33:            (*tris_registers[_pin_config->port] &= ~ ((u
      +                          int8)1<<_pin_config->pin)) ;
  8628   001D26  C00C  FFD9         	movff	gpio_pin_direction_intialize@_pin_config,fsr2l
  8629   001D2A  C00D  FFDA         	movff	gpio_pin_direction_intialize@_pin_config+1,fsr2h
  8630   001D2E  30DF               	rrcf	223,w,c
  8631   001D30  32E8               	rrcf	wreg,f,c
  8632   001D32  32E8               	rrcf	wreg,f,c
  8633   001D34  0B07               	andlw	7
  8634   001D36  6E0E               	movwf	??_gpio_pin_direction_intialize^0,c
  8635   001D38  0E01               	movlw	1
  8636   001D3A  6E0F               	movwf	(??_gpio_pin_direction_intialize+1)^0,c
  8637   001D3C  2A0E               	incf	??_gpio_pin_direction_intialize^0,f,c
  8638   001D3E  EFA3  F00E         	goto	u8254
  8639   001D42                     u8255:
  8640   001D42  90D8               	bcf	status,0,c
  8641   001D44  360F               	rlcf	(??_gpio_pin_direction_intialize+1)^0,f,c
  8642   001D46                     u8254:
  8643   001D46  2E0E               	decfsz	??_gpio_pin_direction_intialize^0,f,c
  8644   001D48  EFA1  F00E         	goto	u8255
  8645   001D4C  500F               	movf	(??_gpio_pin_direction_intialize+1)^0,w,c
  8646   001D4E  0AFF               	xorlw	255
  8647   001D50  6E10               	movwf	(??_gpio_pin_direction_intialize+2)^0,c
  8648   001D52  C00C  FFD9         	movff	gpio_pin_direction_intialize@_pin_config,fsr2l
  8649   001D56  C00D  FFDA         	movff	gpio_pin_direction_intialize@_pin_config+1,fsr2h
  8650   001D5A  50DF               	movf	223,w,c
  8651   001D5C  0B07               	andlw	7
  8652   001D5E  6E11               	movwf	(??_gpio_pin_direction_intialize+3)^0,c
  8653   001D60  5011               	movf	(??_gpio_pin_direction_intialize+3)^0,w,c
  8654   001D62  0D02               	mullw	2
  8655   001D64  0E44               	movlw	low _tris_registers
  8656   001D66  24F3               	addwf	243,w,c
  8657   001D68  6ED9               	movwf	fsr2l,c
  8658   001D6A  0E01               	movlw	high _tris_registers
  8659   001D6C  20F4               	addwfc	prodh,w,c
  8660   001D6E  6EDA               	movwf	fsr2h,c
  8661   001D70  CFDE F012          	movff	postinc2,??_gpio_pin_direction_intialize+4
  8662   001D74  CFDD F013          	movff	postdec2,??_gpio_pin_direction_intialize+5
  8663   001D78  C012  FFD9         	movff	??_gpio_pin_direction_intialize+4,fsr2l
  8664   001D7C  C013  FFDA         	movff	??_gpio_pin_direction_intialize+5,fsr2h
  8665   001D80  5010               	movf	(??_gpio_pin_direction_intialize+2)^0,w,c
  8666   001D82  16DF               	andwf	indf2,f,c
  8667                           
  8668                           ;MCAL_Layer/GPIO/hal_gpio.c: 34:                 break;
  8669   001D84  EF13  F00F         	goto	l9596
  8670   001D88                     l9590:
  8671                           
  8672                           ;MCAL_Layer/GPIO/hal_gpio.c: 36:             (*tris_registers[_pin_config->port] |= ((ui
      +                          nt8)1<<_pin_config->pin));
  8673   001D88  C00C  FFD9         	movff	gpio_pin_direction_intialize@_pin_config,fsr2l
  8674   001D8C  C00D  FFDA         	movff	gpio_pin_direction_intialize@_pin_config+1,fsr2h
  8675   001D90  30DF               	rrcf	223,w,c
  8676   001D92  32E8               	rrcf	wreg,f,c
  8677   001D94  32E8               	rrcf	wreg,f,c
  8678   001D96  0B07               	andlw	7
  8679   001D98  6E0E               	movwf	??_gpio_pin_direction_intialize^0,c
  8680   001D9A  0E01               	movlw	1
  8681   001D9C  6E0F               	movwf	(??_gpio_pin_direction_intialize+1)^0,c
  8682   001D9E  2A0E               	incf	??_gpio_pin_direction_intialize^0,f,c
  8683   001DA0  EFD4  F00E         	goto	u8264
  8684   001DA4                     u8265:
  8685   001DA4  90D8               	bcf	status,0,c
  8686   001DA6  360F               	rlcf	(??_gpio_pin_direction_intialize+1)^0,f,c
  8687   001DA8                     u8264:
  8688   001DA8  2E0E               	decfsz	??_gpio_pin_direction_intialize^0,f,c
  8689   001DAA  EFD2  F00E         	goto	u8265
  8690   001DAE  C00C  FFD9         	movff	gpio_pin_direction_intialize@_pin_config,fsr2l
  8691   001DB2  C00D  FFDA         	movff	gpio_pin_direction_intialize@_pin_config+1,fsr2h
  8692   001DB6  50DF               	movf	223,w,c
  8693   001DB8  0B07               	andlw	7
  8694   001DBA  6E10               	movwf	(??_gpio_pin_direction_intialize+2)^0,c
  8695   001DBC  5010               	movf	(??_gpio_pin_direction_intialize+2)^0,w,c
  8696   001DBE  0D02               	mullw	2
  8697   001DC0  0E44               	movlw	low _tris_registers
  8698   001DC2  24F3               	addwf	243,w,c
  8699   001DC4  6ED9               	movwf	fsr2l,c
  8700   001DC6  0E01               	movlw	high _tris_registers
  8701   001DC8  20F4               	addwfc	prodh,w,c
  8702   001DCA  6EDA               	movwf	fsr2h,c
  8703   001DCC  CFDE F011          	movff	postinc2,??_gpio_pin_direction_intialize+3
  8704   001DD0  CFDD F012          	movff	postdec2,??_gpio_pin_direction_intialize+4
  8705   001DD4  C011  FFD9         	movff	??_gpio_pin_direction_intialize+3,fsr2l
  8706   001DD8  C012  FFDA         	movff	??_gpio_pin_direction_intialize+4,fsr2h
  8707   001DDC  500F               	movf	(??_gpio_pin_direction_intialize+1)^0,w,c
  8708   001DDE  12DF               	iorwf	indf2,f,c
  8709                           
  8710                           ;MCAL_Layer/GPIO/hal_gpio.c: 37:                 break;
  8711   001DE0  EF13  F00F         	goto	l9596
  8712   001DE4                     l9594:
  8713   001DE4  C00C  FFD9         	movff	gpio_pin_direction_intialize@_pin_config,fsr2l
  8714   001DE8  C00D  FFDA         	movff	gpio_pin_direction_intialize@_pin_config+1,fsr2h
  8715   001DEC  BCDF               	btfsc	indf2,6,c
  8716   001DEE  EFFB  F00E         	goto	u8271
  8717   001DF2  EFFE  F00E         	goto	u8270
  8718   001DF6                     u8271:
  8719   001DF6  0E01               	movlw	1
  8720   001DF8  EFFF  F00E         	goto	u8280
  8721   001DFC                     u8270:
  8722   001DFC  0E00               	movlw	0
  8723   001DFE                     u8280:
  8724   001DFE  6E0E               	movwf	??_gpio_pin_direction_intialize^0,c
  8725   001E00  6A0F               	clrf	(??_gpio_pin_direction_intialize+1)^0,c
  8726                           
  8727                           ; Switch on 2 bytes has been partitioned into a top level switch of size 1, and 1 sub-sw
      +                          itches
  8728                           ; Switch size 1, requested type "simple"
  8729                           ; Number of cases is 1, Range of values is 0 to 0
  8730                           ; switch strategies available:
  8731                           ; Name         Instructions Cycles
  8732                           ; simple_byte            4     3 (average)
  8733                           ;	Chosen strategy is simple_byte
  8734   001E02  500F               	movf	(??_gpio_pin_direction_intialize+1)^0,w,c
  8735   001E04  0A00               	xorlw	0	; case 0
  8736   001E06  B4D8               	btfsc	status,2,c
  8737   001E08  EF08  F00F         	goto	l11998
  8738   001E0C  EF91  F00E         	goto	l9586
  8739   001E10                     l11998:
  8740                           
  8741                           ; Switch size 1, requested type "simple"
  8742                           ; Number of cases is 2, Range of values is 0 to 1
  8743                           ; switch strategies available:
  8744                           ; Name         Instructions Cycles
  8745                           ; simple_byte            7     4 (average)
  8746                           ;	Chosen strategy is simple_byte
  8747   001E10  500E               	movf	??_gpio_pin_direction_intialize^0,w,c
  8748   001E12  0A00               	xorlw	0	; case 0
  8749   001E14  B4D8               	btfsc	status,2,c
  8750   001E16  EF93  F00E         	goto	l9588
  8751   001E1A  0A01               	xorlw	1	; case 1
  8752   001E1C  B4D8               	btfsc	status,2,c
  8753   001E1E  EFC4  F00E         	goto	l9590
  8754   001E22  EF91  F00E         	goto	l9586
  8755   001E26                     l9596:
  8756                           
  8757                           ;MCAL_Layer/GPIO/hal_gpio.c: 42:     return ret;
  8758   001E26  0E01               	movlw	1
  8759   001E28  0012               	return		;funcret
  8760   001E2A                     __end_of_gpio_pin_direction_intialize:
  8761                           	callstack 0
  8762                           
  8763 ;; *************** function _CCP_Interrupt_Config *****************
  8764 ;; Defined at:
  8765 ;;		line 290 in file "MCAL_Layer/CCP1/hal_ccp1.c"
  8766 ;; Parameters:    Size  Location     Type
  8767 ;;  _ccp_obj        2   11[COMRAM] PTR const struct .
  8768 ;;		 -> ccp2_obj(11), ccp1_obj(11), 
  8769 ;; Auto vars:     Size  Location     Type
  8770 ;;		None
  8771 ;; Return value:  Size  Location     Type
  8772 ;;                  1    wreg      void 
  8773 ;; Registers used:
  8774 ;;		wreg, fsr2l, fsr2h, status,2, status,0
  8775 ;; Tracked objects:
  8776 ;;		On entry : 0/0
  8777 ;;		On exit  : 0/0
  8778 ;;		Unchanged: 0/0
  8779 ;; Data sizes:     COMRAM   BANK0   BANK1   BANK2   BANK3   BANK4   BANK5   BANK6   BANK7   BANK8   BANK9  BANK10  BANK1
      +1  BANK12  BANK13  BANK14  BANK15
  8780 ;;      Params:         2       0       0       0       0       0       0       0       0       0       0       0       
      +0       0       0       0       0
  8781 ;;      Locals:         0       0       0       0       0       0       0       0       0       0       0       0       
      +0       0       0       0       0
  8782 ;;      Temps:          0       0       0       0       0       0       0       0       0       0       0       0       
      +0       0       0       0       0
  8783 ;;      Totals:         2       0       0       0       0       0       0       0       0       0       0       0       
      +0       0       0       0       0
  8784 ;;Total ram usage:        2 bytes
  8785 ;; Hardware stack levels used: 1
  8786 ;; Hardware stack levels required when called: 4
  8787 ;; This function calls:
  8788 ;;		Nothing
  8789 ;; This function is called by:
  8790 ;;		_CCP_Init
  8791 ;; This function uses a non-reentrant model
  8792 ;;
  8793                           
  8794                           	psect	text43
  8795   00378C                     __ptext43:
  8796                           	callstack 0
  8797   00378C                     _CCP_Interrupt_Config:
  8798                           	callstack 24
  8799   00378C                     
  8800                           ;MCAL_Layer/CCP1/hal_ccp1.c: 293:         (PIE1bits.CCP1IE=1);
  8801   00378C  849D               	bsf	157,2,c	;volatile
  8802                           
  8803                           ;MCAL_Layer/CCP1/hal_ccp1.c: 294:         (PIR1bits.CCP1IF=0);
  8804   00378E  949E               	bcf	158,2,c	;volatile
  8805                           
  8806                           ;MCAL_Layer/CCP1/hal_ccp1.c: 307:         (INTCONbits.GIE=1);
  8807   003790  8EF2               	bsf	242,7,c	;volatile
  8808                           
  8809                           ;MCAL_Layer/CCP1/hal_ccp1.c: 308:         (INTCONbits.PEIE=1);
  8810   003792  8CF2               	bsf	242,6,c	;volatile
  8811   003794                     
  8812                           ;MCAL_Layer/CCP1/hal_ccp1.c: 310:         CCP1_Interrupt_Handler=_ccp_obj->CCP1_Interrup
      +                          tHandler;
  8813   003794  EE20 F005          	lfsr	2,5
  8814   003798  500C               	movf	CCP_Interrupt_Config@_ccp_obj^0,w,c
  8815   00379A  26D9               	addwf	fsr2l,f,c
  8816   00379C  500D               	movf	(CCP_Interrupt_Config@_ccp_obj+1)^0,w,c
  8817   00379E  22DA               	addwfc	fsr2h,f,c
  8818   0037A0  CFDE F0B6          	movff	postinc2,_CCP1_Interrupt_Handler
  8819   0037A4  CFDD F0B7          	movff	postdec2,_CCP1_Interrupt_Handler+1
  8820   0037A8                     
  8821                           ;MCAL_Layer/CCP1/hal_ccp1.c: 316:         (PIE2bits.CCP2IE=1);
  8822   0037A8  80A0               	bsf	160,0,c	;volatile
  8823   0037AA                     
  8824                           ;MCAL_Layer/CCP1/hal_ccp1.c: 317:         (PIR2bits.CCP2IF=0);
  8825   0037AA  90A1               	bcf	161,0,c	;volatile
  8826   0037AC                     
  8827                           ;MCAL_Layer/CCP1/hal_ccp1.c: 330:         (INTCONbits.GIE=1);
  8828   0037AC  8EF2               	bsf	242,7,c	;volatile
  8829   0037AE                     
  8830                           ;MCAL_Layer/CCP1/hal_ccp1.c: 331:         (INTCONbits.PEIE=1);
  8831   0037AE  8CF2               	bsf	242,6,c	;volatile
  8832                           
  8833                           ;MCAL_Layer/CCP1/hal_ccp1.c: 333:         CCP2_Interrupt_Handler=_ccp_obj->CCP2_Interrup
      +                          tHandler;
  8834   0037B0  EE20 F008          	lfsr	2,8
  8835   0037B4  500C               	movf	CCP_Interrupt_Config@_ccp_obj^0,w,c
  8836   0037B6  26D9               	addwf	fsr2l,f,c
  8837   0037B8  500D               	movf	(CCP_Interrupt_Config@_ccp_obj+1)^0,w,c
  8838   0037BA  22DA               	addwfc	fsr2h,f,c
  8839   0037BC  CFDE F0B4          	movff	postinc2,_CCP2_Interrupt_Handler
  8840   0037C0  CFDD F0B5          	movff	postdec2,_CCP2_Interrupt_Handler+1
  8841   0037C4  0012               	return		;funcret
  8842   0037C6                     __end_of_CCP_Interrupt_Config:
  8843                           	callstack 0
  8844                           
  8845 ;; *************** function _CCP_Compare_Mode_Config *****************
  8846 ;; Defined at:
  8847 ;;		line 406 in file "MCAL_Layer/CCP1/hal_ccp1.c"
  8848 ;; Parameters:    Size  Location     Type
  8849 ;;  _ccp_obj        2   14[COMRAM] PTR const struct .
  8850 ;;		 -> ccp2_obj(11), ccp1_obj(11), 
  8851 ;; Auto vars:     Size  Location     Type
  8852 ;;  ret             1    0        unsigned char 
  8853 ;; Return value:  Size  Location     Type
  8854 ;;                  1    wreg      unsigned char 
  8855 ;; Registers used:
  8856 ;;		wreg, fsr2l, fsr2h, status,2, status,0, cstack
  8857 ;; Tracked objects:
  8858 ;;		On entry : 0/0
  8859 ;;		On exit  : 0/0
  8860 ;;		Unchanged: 0/0
  8861 ;; Data sizes:     COMRAM   BANK0   BANK1   BANK2   BANK3   BANK4   BANK5   BANK6   BANK7   BANK8   BANK9  BANK10  BANK1
      +1  BANK12  BANK13  BANK14  BANK15
  8862 ;;      Params:         2       0       0       0       0       0       0       0       0       0       0       0       
      +0       0       0       0       0
  8863 ;;      Locals:         0       0       0       0       0       0       0       0       0       0       0       0       
      +0       0       0       0       0
  8864 ;;      Temps:          2       0       0       0       0       0       0       0       0       0       0       0       
      +0       0       0       0       0
  8865 ;;      Totals:         4       0       0       0       0       0       0       0       0       0       0       0       
      +0       0       0       0       0
  8866 ;;Total ram usage:        4 bytes
  8867 ;; Hardware stack levels used: 1
  8868 ;; Hardware stack levels required when called: 5
  8869 ;; This function calls:
  8870 ;;		_CCP_Mode_Timer_Select
  8871 ;; This function is called by:
  8872 ;;		_CCP_Init
  8873 ;; This function uses a non-reentrant model
  8874 ;;
  8875                           
  8876                           	psect	text44
  8877   0018F8                     __ptext44:
  8878                           	callstack 0
  8879   0018F8                     _CCP_Compare_Mode_Config:
  8880                           	callstack 23
  8881   0018F8                     
  8882                           ;MCAL_Layer/CCP1/hal_ccp1.c: 408:    if( CCP1_INST == _ccp_obj->ccp_inst){
  8883   0018F8  EE20 F003          	lfsr	2,3
  8884   0018FC  500F               	movf	CCP_Compare_Mode_Config@_ccp_obj^0,w,c
  8885   0018FE  26D9               	addwf	fsr2l,f,c
  8886   001900  5010               	movf	(CCP_Compare_Mode_Config@_ccp_obj+1)^0,w,c
  8887   001902  22DA               	addwfc	fsr2h,f,c
  8888   001904  50DF               	movf	indf2,w,c
  8889   001906  A4D8               	btfss	status,2,c
  8890   001908  EF88  F00C         	goto	u9921
  8891   00190C  EF8A  F00C         	goto	u9920
  8892   001910                     u9921:
  8893   001910  EFD3  F00C         	goto	l10762
  8894   001914                     u9920:
  8895   001914  EFAC  F00C         	goto	l10760
  8896   001918                     l10748:
  8897   001918  50BD               	movf	189,w,c	;volatile
  8898   00191A  0BF0               	andlw	-16
  8899   00191C  0908               	iorlw	8
  8900   00191E  6EBD               	movwf	189,c	;volatile
  8901   001920  EF28  F00D         	goto	l10780
  8902   001924                     l10750:
  8903   001924  50BD               	movf	189,w,c	;volatile
  8904   001926  0BF0               	andlw	-16
  8905   001928  0909               	iorlw	9
  8906   00192A  6EBD               	movwf	189,c	;volatile
  8907   00192C  EF28  F00D         	goto	l10780
  8908   001930                     l10752:
  8909   001930  50BD               	movf	189,w,c	;volatile
  8910   001932  0BF0               	andlw	-16
  8911   001934  0902               	iorlw	2
  8912   001936  6EBD               	movwf	189,c	;volatile
  8913   001938  EF28  F00D         	goto	l10780
  8914   00193C                     l10754:
  8915   00193C  50BD               	movf	189,w,c	;volatile
  8916   00193E  0BF0               	andlw	-16
  8917   001940  090A               	iorlw	10
  8918   001942  6EBD               	movwf	189,c	;volatile
  8919   001944  EF28  F00D         	goto	l10780
  8920   001948                     l10756:
  8921   001948  50BD               	movf	189,w,c	;volatile
  8922   00194A  0BF0               	andlw	-16
  8923   00194C  090B               	iorlw	11
  8924   00194E  6EBD               	movwf	189,c	;volatile
  8925   001950  EF28  F00D         	goto	l10780
  8926   001954                     l10758:
  8927                           
  8928                           ;MCAL_Layer/CCP1/hal_ccp1.c: 416:                 }
  8929   001954  EF28  F00D         	goto	l10780
  8930   001958                     l10760:
  8931   001958  EE20 F001          	lfsr	2,1
  8932   00195C  500F               	movf	CCP_Compare_Mode_Config@_ccp_obj^0,w,c
  8933   00195E  26D9               	addwf	fsr2l,f,c
  8934   001960  5010               	movf	(CCP_Compare_Mode_Config@_ccp_obj+1)^0,w,c
  8935   001962  22DA               	addwfc	fsr2h,f,c
  8936   001964  50DF               	movf	indf2,w,c
  8937   001966  6E11               	movwf	??_CCP_Compare_Mode_Config^0,c
  8938   001968  6A12               	clrf	(??_CCP_Compare_Mode_Config+1)^0,c
  8939                           
  8940                           ; Switch on 2 bytes has been partitioned into a top level switch of size 1, and 1 sub-sw
      +                          itches
  8941                           ; Switch size 1, requested type "simple"
  8942                           ; Number of cases is 1, Range of values is 0 to 0
  8943                           ; switch strategies available:
  8944                           ; Name         Instructions Cycles
  8945                           ; simple_byte            4     3 (average)
  8946                           ;	Chosen strategy is simple_byte
  8947   00196A  5012               	movf	(??_CCP_Compare_Mode_Config+1)^0,w,c
  8948   00196C  0A00               	xorlw	0	; case 0
  8949   00196E  B4D8               	btfsc	status,2,c
  8950   001970  EFBC  F00C         	goto	l12000
  8951   001974  EFAA  F00C         	goto	l10758
  8952   001978                     l12000:
  8953                           
  8954                           ; Switch size 1, requested type "simple"
  8955                           ; Number of cases is 5, Range of values is 2 to 11
  8956                           ; switch strategies available:
  8957                           ; Name         Instructions Cycles
  8958                           ; simple_byte           16     9 (average)
  8959                           ;	Chosen strategy is simple_byte
  8960   001978  5011               	movf	??_CCP_Compare_Mode_Config^0,w,c
  8961   00197A  0A02               	xorlw	2	; case 2
  8962   00197C  B4D8               	btfsc	status,2,c
  8963   00197E  EF98  F00C         	goto	l10752
  8964   001982  0A0A               	xorlw	10	; case 8
  8965   001984  B4D8               	btfsc	status,2,c
  8966   001986  EF8C  F00C         	goto	l10748
  8967   00198A  0A01               	xorlw	1	; case 9
  8968   00198C  B4D8               	btfsc	status,2,c
  8969   00198E  EF92  F00C         	goto	l10750
  8970   001992  0A03               	xorlw	3	; case 10
  8971   001994  B4D8               	btfsc	status,2,c
  8972   001996  EF9E  F00C         	goto	l10754
  8973   00199A  0A01               	xorlw	1	; case 11
  8974   00199C  B4D8               	btfsc	status,2,c
  8975   00199E  EFA4  F00C         	goto	l10756
  8976   0019A2  EFAA  F00C         	goto	l10758
  8977   0019A6                     l10762:
  8978   0019A6  EE20 F003          	lfsr	2,3
  8979   0019AA  500F               	movf	CCP_Compare_Mode_Config@_ccp_obj^0,w,c
  8980   0019AC  26D9               	addwf	fsr2l,f,c
  8981   0019AE  5010               	movf	(CCP_Compare_Mode_Config@_ccp_obj+1)^0,w,c
  8982   0019B0  22DA               	addwfc	fsr2h,f,c
  8983   0019B2  04DE               	decf	postinc2,w,c
  8984   0019B4  A4D8               	btfss	status,2,c
  8985   0019B6  EFDF  F00C         	goto	u9931
  8986   0019BA  EFE1  F00C         	goto	u9930
  8987   0019BE                     u9931:
  8988   0019BE  EF28  F00D         	goto	l10780
  8989   0019C2                     u9930:
  8990   0019C2  EF01  F00D         	goto	l10778
  8991   0019C6                     l10766:
  8992   0019C6  50BA               	movf	186,w,c	;volatile
  8993   0019C8  0BF0               	andlw	-16
  8994   0019CA  0908               	iorlw	8
  8995   0019CC  6EBA               	movwf	186,c	;volatile
  8996   0019CE  EF28  F00D         	goto	l10780
  8997   0019D2                     l10768:
  8998   0019D2  50BA               	movf	186,w,c	;volatile
  8999   0019D4  0BF0               	andlw	-16
  9000   0019D6  0909               	iorlw	9
  9001   0019D8  6EBA               	movwf	186,c	;volatile
  9002   0019DA  EF28  F00D         	goto	l10780
  9003   0019DE                     l10770:
  9004   0019DE  50BA               	movf	186,w,c	;volatile
  9005   0019E0  0BF0               	andlw	-16
  9006   0019E2  0902               	iorlw	2
  9007   0019E4  6EBA               	movwf	186,c	;volatile
  9008   0019E6  EF28  F00D         	goto	l10780
  9009   0019EA                     l10772:
  9010   0019EA  50BA               	movf	186,w,c	;volatile
  9011   0019EC  0BF0               	andlw	-16
  9012   0019EE  090A               	iorlw	10
  9013   0019F0  6EBA               	movwf	186,c	;volatile
  9014   0019F2  EF28  F00D         	goto	l10780
  9015   0019F6                     l10774:
  9016   0019F6  50BA               	movf	186,w,c	;volatile
  9017   0019F8  0BF0               	andlw	-16
  9018   0019FA  090B               	iorlw	11
  9019   0019FC  6EBA               	movwf	186,c	;volatile
  9020   0019FE  EF28  F00D         	goto	l10780
  9021   001A02                     l10778:
  9022   001A02  EE20 F001          	lfsr	2,1
  9023   001A06  500F               	movf	CCP_Compare_Mode_Config@_ccp_obj^0,w,c
  9024   001A08  26D9               	addwf	fsr2l,f,c
  9025   001A0A  5010               	movf	(CCP_Compare_Mode_Config@_ccp_obj+1)^0,w,c
  9026   001A0C  22DA               	addwfc	fsr2h,f,c
  9027   001A0E  50DF               	movf	indf2,w,c
  9028   001A10  6E11               	movwf	??_CCP_Compare_Mode_Config^0,c
  9029   001A12  6A12               	clrf	(??_CCP_Compare_Mode_Config+1)^0,c
  9030                           
  9031                           ; Switch on 2 bytes has been partitioned into a top level switch of size 1, and 1 sub-sw
      +                          itches
  9032                           ; Switch size 1, requested type "simple"
  9033                           ; Number of cases is 1, Range of values is 0 to 0
  9034                           ; switch strategies available:
  9035                           ; Name         Instructions Cycles
  9036                           ; simple_byte            4     3 (average)
  9037                           ;	Chosen strategy is simple_byte
  9038   001A14  5012               	movf	(??_CCP_Compare_Mode_Config+1)^0,w,c
  9039   001A16  0A00               	xorlw	0	; case 0
  9040   001A18  B4D8               	btfsc	status,2,c
  9041   001A1A  EF11  F00D         	goto	l12002
  9042   001A1E  EFAA  F00C         	goto	l10758
  9043   001A22                     l12002:
  9044                           
  9045                           ; Switch size 1, requested type "simple"
  9046                           ; Number of cases is 5, Range of values is 2 to 11
  9047                           ; switch strategies available:
  9048                           ; Name         Instructions Cycles
  9049                           ; simple_byte           16     9 (average)
  9050                           ;	Chosen strategy is simple_byte
  9051   001A22  5011               	movf	??_CCP_Compare_Mode_Config^0,w,c
  9052   001A24  0A02               	xorlw	2	; case 2
  9053   001A26  B4D8               	btfsc	status,2,c
  9054   001A28  EFEF  F00C         	goto	l10770
  9055   001A2C  0A0A               	xorlw	10	; case 8
  9056   001A2E  B4D8               	btfsc	status,2,c
  9057   001A30  EFE3  F00C         	goto	l10766
  9058   001A34  0A01               	xorlw	1	; case 9
  9059   001A36  B4D8               	btfsc	status,2,c
  9060   001A38  EFE9  F00C         	goto	l10768
  9061   001A3C  0A03               	xorlw	3	; case 10
  9062   001A3E  B4D8               	btfsc	status,2,c
  9063   001A40  EFF5  F00C         	goto	l10772
  9064   001A44  0A01               	xorlw	1	; case 11
  9065   001A46  B4D8               	btfsc	status,2,c
  9066   001A48  EFFB  F00C         	goto	l10774
  9067   001A4C  EFAA  F00C         	goto	l10758
  9068   001A50                     l10780:
  9069                           
  9070                           ;MCAL_Layer/CCP1/hal_ccp1.c: 428:             CCP_Mode_Timer_Select(_ccp_obj);
  9071   001A50  C00F  F00C         	movff	CCP_Compare_Mode_Config@_ccp_obj,CCP_Mode_Timer_Select@_ccp_obj
  9072   001A54  C010  F00D         	movff	CCP_Compare_Mode_Config@_ccp_obj+1,CCP_Mode_Timer_Select@_ccp_obj+1
  9073   001A58  EC82  F01A         	call	_CCP_Mode_Timer_Select	;wreg free
  9074   001A5C                     
  9075                           ;MCAL_Layer/CCP1/hal_ccp1.c: 430:    return ret;
  9076   001A5C  0E01               	movlw	1
  9077   001A5E  0012               	return		;funcret
  9078   001A60                     __end_of_CCP_Compare_Mode_Config:
  9079                           	callstack 0
  9080                           
  9081 ;; *************** function _CCP_Capture_Mode_Config *****************
  9082 ;; Defined at:
  9083 ;;		line 380 in file "MCAL_Layer/CCP1/hal_ccp1.c"
  9084 ;; Parameters:    Size  Location     Type
  9085 ;;  _ccp_obj        2   14[COMRAM] PTR const struct .
  9086 ;;		 -> ccp2_obj(11), ccp1_obj(11), 
  9087 ;; Auto vars:     Size  Location     Type
  9088 ;;  ret             1    0        unsigned char 
  9089 ;; Return value:  Size  Location     Type
  9090 ;;                  1    wreg      unsigned char 
  9091 ;; Registers used:
  9092 ;;		wreg, fsr2l, fsr2h, status,2, status,0, cstack
  9093 ;; Tracked objects:
  9094 ;;		On entry : 0/0
  9095 ;;		On exit  : 0/0
  9096 ;;		Unchanged: 0/0
  9097 ;; Data sizes:     COMRAM   BANK0   BANK1   BANK2   BANK3   BANK4   BANK5   BANK6   BANK7   BANK8   BANK9  BANK10  BANK1
      +1  BANK12  BANK13  BANK14  BANK15
  9098 ;;      Params:         2       0       0       0       0       0       0       0       0       0       0       0       
      +0       0       0       0       0
  9099 ;;      Locals:         0       0       0       0       0       0       0       0       0       0       0       0       
      +0       0       0       0       0
  9100 ;;      Temps:          2       0       0       0       0       0       0       0       0       0       0       0       
      +0       0       0       0       0
  9101 ;;      Totals:         4       0       0       0       0       0       0       0       0       0       0       0       
      +0       0       0       0       0
  9102 ;;Total ram usage:        4 bytes
  9103 ;; Hardware stack levels used: 1
  9104 ;; Hardware stack levels required when called: 5
  9105 ;; This function calls:
  9106 ;;		_CCP_Mode_Timer_Select
  9107 ;; This function is called by:
  9108 ;;		_CCP_Init
  9109 ;; This function uses a non-reentrant model
  9110 ;;
  9111                           
  9112                           	psect	text45
  9113   001BAE                     __ptext45:
  9114                           	callstack 0
  9115   001BAE                     _CCP_Capture_Mode_Config:
  9116                           	callstack 23
  9117   001BAE                     
  9118                           ;MCAL_Layer/CCP1/hal_ccp1.c: 382:    if( CCP1_INST == _ccp_obj->ccp_inst){
  9119   001BAE  EE20 F003          	lfsr	2,3
  9120   001BB2  500F               	movf	CCP_Capture_Mode_Config@_ccp_obj^0,w,c
  9121   001BB4  26D9               	addwf	fsr2l,f,c
  9122   001BB6  5010               	movf	(CCP_Capture_Mode_Config@_ccp_obj+1)^0,w,c
  9123   001BB8  22DA               	addwfc	fsr2h,f,c
  9124   001BBA  50DF               	movf	indf2,w,c
  9125   001BBC  A4D8               	btfss	status,2,c
  9126   001BBE  EFE3  F00D         	goto	u9901
  9127   001BC2  EFE5  F00D         	goto	u9900
  9128   001BC6                     u9901:
  9129   001BC6  EF24  F00E         	goto	l10712
  9130   001BCA                     u9900:
  9131   001BCA  EF01  F00E         	goto	l10710
  9132   001BCE                     l10700:
  9133   001BCE  50BD               	movf	189,w,c	;volatile
  9134   001BD0  0BF0               	andlw	-16
  9135   001BD2  0904               	iorlw	4
  9136   001BD4  6EBD               	movwf	189,c	;volatile
  9137   001BD6  EF6F  F00E         	goto	l10728
  9138   001BDA                     l10702:
  9139   001BDA  50BD               	movf	189,w,c	;volatile
  9140   001BDC  0BF0               	andlw	-16
  9141   001BDE  0905               	iorlw	5
  9142   001BE0  6EBD               	movwf	189,c	;volatile
  9143   001BE2  EF6F  F00E         	goto	l10728
  9144   001BE6                     l10704:
  9145   001BE6  50BD               	movf	189,w,c	;volatile
  9146   001BE8  0BF0               	andlw	-16
  9147   001BEA  0906               	iorlw	6
  9148   001BEC  6EBD               	movwf	189,c	;volatile
  9149   001BEE  EF6F  F00E         	goto	l10728
  9150   001BF2                     l10706:
  9151   001BF2  50BD               	movf	189,w,c	;volatile
  9152   001BF4  0BF0               	andlw	-16
  9153   001BF6  0907               	iorlw	7
  9154   001BF8  6EBD               	movwf	189,c	;volatile
  9155   001BFA  EF6F  F00E         	goto	l10728
  9156   001BFE                     l10708:
  9157                           
  9158                           ;MCAL_Layer/CCP1/hal_ccp1.c: 389:                 }
  9159   001BFE  EF6F  F00E         	goto	l10728
  9160   001C02                     l10710:
  9161   001C02  EE20 F001          	lfsr	2,1
  9162   001C06  500F               	movf	CCP_Capture_Mode_Config@_ccp_obj^0,w,c
  9163   001C08  26D9               	addwf	fsr2l,f,c
  9164   001C0A  5010               	movf	(CCP_Capture_Mode_Config@_ccp_obj+1)^0,w,c
  9165   001C0C  22DA               	addwfc	fsr2h,f,c
  9166   001C0E  50DF               	movf	indf2,w,c
  9167   001C10  6E11               	movwf	??_CCP_Capture_Mode_Config^0,c
  9168   001C12  6A12               	clrf	(??_CCP_Capture_Mode_Config+1)^0,c
  9169                           
  9170                           ; Switch on 2 bytes has been partitioned into a top level switch of size 1, and 1 sub-sw
      +                          itches
  9171                           ; Switch size 1, requested type "simple"
  9172                           ; Number of cases is 1, Range of values is 0 to 0
  9173                           ; switch strategies available:
  9174                           ; Name         Instructions Cycles
  9175                           ; simple_byte            4     3 (average)
  9176                           ;	Chosen strategy is simple_byte
  9177   001C14  5012               	movf	(??_CCP_Capture_Mode_Config+1)^0,w,c
  9178   001C16  0A00               	xorlw	0	; case 0
  9179   001C18  B4D8               	btfsc	status,2,c
  9180   001C1A  EF11  F00E         	goto	l12004
  9181   001C1E  EFFF  F00D         	goto	l10708
  9182   001C22                     l12004:
  9183                           
  9184                           ; Switch size 1, requested type "simple"
  9185                           ; Number of cases is 4, Range of values is 4 to 7
  9186                           ; switch strategies available:
  9187                           ; Name         Instructions Cycles
  9188                           ; simple_byte           13     7 (average)
  9189                           ;	Chosen strategy is simple_byte
  9190   001C22  5011               	movf	??_CCP_Capture_Mode_Config^0,w,c
  9191   001C24  0A04               	xorlw	4	; case 4
  9192   001C26  B4D8               	btfsc	status,2,c
  9193   001C28  EFE7  F00D         	goto	l10700
  9194   001C2C  0A01               	xorlw	1	; case 5
  9195   001C2E  B4D8               	btfsc	status,2,c
  9196   001C30  EFED  F00D         	goto	l10702
  9197   001C34  0A03               	xorlw	3	; case 6
  9198   001C36  B4D8               	btfsc	status,2,c
  9199   001C38  EFF3  F00D         	goto	l10704
  9200   001C3C  0A01               	xorlw	1	; case 7
  9201   001C3E  B4D8               	btfsc	status,2,c
  9202   001C40  EFF9  F00D         	goto	l10706
  9203   001C44  EFFF  F00D         	goto	l10708
  9204   001C48                     l10712:
  9205   001C48  EE20 F003          	lfsr	2,3
  9206   001C4C  500F               	movf	CCP_Capture_Mode_Config@_ccp_obj^0,w,c
  9207   001C4E  26D9               	addwf	fsr2l,f,c
  9208   001C50  5010               	movf	(CCP_Capture_Mode_Config@_ccp_obj+1)^0,w,c
  9209   001C52  22DA               	addwfc	fsr2h,f,c
  9210   001C54  04DE               	decf	postinc2,w,c
  9211   001C56  A4D8               	btfss	status,2,c
  9212   001C58  EF30  F00E         	goto	u9911
  9213   001C5C  EF32  F00E         	goto	u9910
  9214   001C60                     u9911:
  9215   001C60  EF6F  F00E         	goto	l10728
  9216   001C64                     u9910:
  9217   001C64  EF4C  F00E         	goto	l10726
  9218   001C68                     l10716:
  9219   001C68  50BA               	movf	186,w,c	;volatile
  9220   001C6A  0BF0               	andlw	-16
  9221   001C6C  0904               	iorlw	4
  9222   001C6E  6EBA               	movwf	186,c	;volatile
  9223   001C70  EF6F  F00E         	goto	l10728
  9224   001C74                     l10718:
  9225   001C74  50BA               	movf	186,w,c	;volatile
  9226   001C76  0BF0               	andlw	-16
  9227   001C78  0905               	iorlw	5
  9228   001C7A  6EBA               	movwf	186,c	;volatile
  9229   001C7C  EF6F  F00E         	goto	l10728
  9230   001C80                     l10720:
  9231   001C80  50BA               	movf	186,w,c	;volatile
  9232   001C82  0BF0               	andlw	-16
  9233   001C84  0906               	iorlw	6
  9234   001C86  6EBA               	movwf	186,c	;volatile
  9235   001C88  EF6F  F00E         	goto	l10728
  9236   001C8C                     l10722:
  9237   001C8C  50BA               	movf	186,w,c	;volatile
  9238   001C8E  0BF0               	andlw	-16
  9239   001C90  0907               	iorlw	7
  9240   001C92  6EBA               	movwf	186,c	;volatile
  9241   001C94  EF6F  F00E         	goto	l10728
  9242   001C98                     l10726:
  9243   001C98  EE20 F001          	lfsr	2,1
  9244   001C9C  500F               	movf	CCP_Capture_Mode_Config@_ccp_obj^0,w,c
  9245   001C9E  26D9               	addwf	fsr2l,f,c
  9246   001CA0  5010               	movf	(CCP_Capture_Mode_Config@_ccp_obj+1)^0,w,c
  9247   001CA2  22DA               	addwfc	fsr2h,f,c
  9248   001CA4  50DF               	movf	indf2,w,c
  9249   001CA6  6E11               	movwf	??_CCP_Capture_Mode_Config^0,c
  9250   001CA8  6A12               	clrf	(??_CCP_Capture_Mode_Config+1)^0,c
  9251                           
  9252                           ; Switch on 2 bytes has been partitioned into a top level switch of size 1, and 1 sub-sw
      +                          itches
  9253                           ; Switch size 1, requested type "simple"
  9254                           ; Number of cases is 1, Range of values is 0 to 0
  9255                           ; switch strategies available:
  9256                           ; Name         Instructions Cycles
  9257                           ; simple_byte            4     3 (average)
  9258                           ;	Chosen strategy is simple_byte
  9259   001CAA  5012               	movf	(??_CCP_Capture_Mode_Config+1)^0,w,c
  9260   001CAC  0A00               	xorlw	0	; case 0
  9261   001CAE  B4D8               	btfsc	status,2,c
  9262   001CB0  EF5C  F00E         	goto	l12006
  9263   001CB4  EFFF  F00D         	goto	l10708
  9264   001CB8                     l12006:
  9265                           
  9266                           ; Switch size 1, requested type "simple"
  9267                           ; Number of cases is 4, Range of values is 4 to 7
  9268                           ; switch strategies available:
  9269                           ; Name         Instructions Cycles
  9270                           ; simple_byte           13     7 (average)
  9271                           ;	Chosen strategy is simple_byte
  9272   001CB8  5011               	movf	??_CCP_Capture_Mode_Config^0,w,c
  9273   001CBA  0A04               	xorlw	4	; case 4
  9274   001CBC  B4D8               	btfsc	status,2,c
  9275   001CBE  EF34  F00E         	goto	l10716
  9276   001CC2  0A01               	xorlw	1	; case 5
  9277   001CC4  B4D8               	btfsc	status,2,c
  9278   001CC6  EF3A  F00E         	goto	l10718
  9279   001CCA  0A03               	xorlw	3	; case 6
  9280   001CCC  B4D8               	btfsc	status,2,c
  9281   001CCE  EF40  F00E         	goto	l10720
  9282   001CD2  0A01               	xorlw	1	; case 7
  9283   001CD4  B4D8               	btfsc	status,2,c
  9284   001CD6  EF46  F00E         	goto	l10722
  9285   001CDA  EFFF  F00D         	goto	l10708
  9286   001CDE                     l10728:
  9287                           
  9288                           ;MCAL_Layer/CCP1/hal_ccp1.c: 401:             CCP_Mode_Timer_Select(_ccp_obj);
  9289   001CDE  C00F  F00C         	movff	CCP_Capture_Mode_Config@_ccp_obj,CCP_Mode_Timer_Select@_ccp_obj
  9290   001CE2  C010  F00D         	movff	CCP_Capture_Mode_Config@_ccp_obj+1,CCP_Mode_Timer_Select@_ccp_obj+1
  9291   001CE6  EC82  F01A         	call	_CCP_Mode_Timer_Select	;wreg free
  9292   001CEA                     
  9293                           ;MCAL_Layer/CCP1/hal_ccp1.c: 403:    return ret;
  9294   001CEA  0E01               	movlw	1
  9295   001CEC  0012               	return		;funcret
  9296   001CEE                     __end_of_CCP_Capture_Mode_Config:
  9297                           	callstack 0
  9298                           
  9299 ;; *************** function _CCP_Mode_Timer_Select *****************
  9300 ;; Defined at:
  9301 ;;		line 360 in file "MCAL_Layer/CCP1/hal_ccp1.c"
  9302 ;; Parameters:    Size  Location     Type
  9303 ;;  _ccp_obj        2   11[COMRAM] PTR const struct .
  9304 ;;		 -> ccp2_obj(11), ccp1_obj(11), 
  9305 ;; Auto vars:     Size  Location     Type
  9306 ;;		None
  9307 ;; Return value:  Size  Location     Type
  9308 ;;                  1    wreg      void 
  9309 ;; Registers used:
  9310 ;;		wreg, fsr2l, fsr2h, status,2, status,0
  9311 ;; Tracked objects:
  9312 ;;		On entry : 0/0
  9313 ;;		On exit  : 0/0
  9314 ;;		Unchanged: 0/0
  9315 ;; Data sizes:     COMRAM   BANK0   BANK1   BANK2   BANK3   BANK4   BANK5   BANK6   BANK7   BANK8   BANK9  BANK10  BANK1
      +1  BANK12  BANK13  BANK14  BANK15
  9316 ;;      Params:         2       0       0       0       0       0       0       0       0       0       0       0       
      +0       0       0       0       0
  9317 ;;      Locals:         0       0       0       0       0       0       0       0       0       0       0       0       
      +0       0       0       0       0
  9318 ;;      Temps:          1       0       0       0       0       0       0       0       0       0       0       0       
      +0       0       0       0       0
  9319 ;;      Totals:         3       0       0       0       0       0       0       0       0       0       0       0       
      +0       0       0       0       0
  9320 ;;Total ram usage:        3 bytes
  9321 ;; Hardware stack levels used: 1
  9322 ;; Hardware stack levels required when called: 4
  9323 ;; This function calls:
  9324 ;;		Nothing
  9325 ;; This function is called by:
  9326 ;;		_CCP_Capture_Mode_Config
  9327 ;;		_CCP_Compare_Mode_Config
  9328 ;; This function uses a non-reentrant model
  9329 ;;
  9330                           
  9331                           	psect	text46
  9332   003504                     __ptext46:
  9333                           	callstack 0
  9334   003504                     _CCP_Mode_Timer_Select:
  9335                           	callstack 23
  9336   003504                     
  9337                           ;MCAL_Layer/CCP1/hal_ccp1.c: 361:     if(CCP1_CCP2_TIMER3 == _ccp_obj->ccp_capture_timer
      +                          ){
  9338   003504  EE20 F004          	lfsr	2,4
  9339   003508  500C               	movf	CCP_Mode_Timer_Select@_ccp_obj^0,w,c
  9340   00350A  26D9               	addwf	fsr2l,f,c
  9341   00350C  500D               	movf	(CCP_Mode_Timer_Select@_ccp_obj+1)^0,w,c
  9342   00350E  22DA               	addwfc	fsr2h,f,c
  9343   003510  0E02               	movlw	2
  9344   003512  18DE               	xorwf	postinc2,w,c
  9345   003514  A4D8               	btfss	status,2,c
  9346   003516  EF8F  F01A         	goto	u9201
  9347   00351A  EF91  F01A         	goto	u9200
  9348   00351E                     u9201:
  9349   00351E  EF95  F01A         	goto	l10138
  9350   003522                     u9200:
  9351   003522                     
  9352                           ;MCAL_Layer/CCP1/hal_ccp1.c: 363:         T3CONbits.T3CCP1=0;
  9353   003522  96B1               	bcf	177,3,c	;volatile
  9354                           
  9355                           ;MCAL_Layer/CCP1/hal_ccp1.c: 364:         T3CONbits.T3CCP2=1;
  9356   003524  8CB1               	bsf	177,6,c	;volatile
  9357                           
  9358                           ;MCAL_Layer/CCP1/hal_ccp1.c: 365:     }
  9359   003526  EFB9  F01A         	goto	l707
  9360   00352A                     l10138:
  9361   00352A  EE20 F004          	lfsr	2,4
  9362   00352E  500C               	movf	CCP_Mode_Timer_Select@_ccp_obj^0,w,c
  9363   003530  26D9               	addwf	fsr2l,f,c
  9364   003532  500D               	movf	(CCP_Mode_Timer_Select@_ccp_obj+1)^0,w,c
  9365   003534  22DA               	addwfc	fsr2h,f,c
  9366   003536  04DE               	decf	postinc2,w,c
  9367   003538  A4D8               	btfss	status,2,c
  9368   00353A  EFA1  F01A         	goto	u9211
  9369   00353E  EFA3  F01A         	goto	u9210
  9370   003542                     u9211:
  9371   003542  EFA7  F01A         	goto	l10142
  9372   003546                     u9210:
  9373   003546                     
  9374                           ;MCAL_Layer/CCP1/hal_ccp1.c: 369:         T3CONbits.T3CCP1=1;
  9375   003546  86B1               	bsf	177,3,c	;volatile
  9376                           
  9377                           ;MCAL_Layer/CCP1/hal_ccp1.c: 370:         T3CONbits.T3CCP2=0;
  9378   003548  9CB1               	bcf	177,6,c	;volatile
  9379                           
  9380                           ;MCAL_Layer/CCP1/hal_ccp1.c: 371:     }
  9381   00354A  EFB9  F01A         	goto	l707
  9382   00354E                     l10142:
  9383   00354E  EE20 F004          	lfsr	2,4
  9384   003552  500C               	movf	CCP_Mode_Timer_Select@_ccp_obj^0,w,c
  9385   003554  26D9               	addwf	fsr2l,f,c
  9386   003556  500D               	movf	(CCP_Mode_Timer_Select@_ccp_obj+1)^0,w,c
  9387   003558  22DA               	addwfc	fsr2h,f,c
  9388   00355A  50DF               	movf	indf2,w,c
  9389   00355C  A4D8               	btfss	status,2,c
  9390   00355E  EFB3  F01A         	goto	u9221
  9391   003562  EFB5  F01A         	goto	u9220
  9392   003566                     u9221:
  9393   003566  EFB9  F01A         	goto	l704
  9394   00356A                     u9220:
  9395   00356A                     
  9396                           ;MCAL_Layer/CCP1/hal_ccp1.c: 374:         T3CONbits.T3CCP1=0;
  9397   00356A  96B1               	bcf	177,3,c	;volatile
  9398                           
  9399                           ;MCAL_Layer/CCP1/hal_ccp1.c: 375:         T3CONbits.T3CCP2=0;
  9400   00356C  9CB1               	bcf	177,6,c	;volatile
  9401                           
  9402                           ;MCAL_Layer/CCP1/hal_ccp1.c: 376:     }
  9403   00356E  EFB9  F01A         	goto	l707
  9404   003572                     l704:
  9405   003572                     l707:
  9406   003572  0012               	return		;funcret
  9407   003574                     __end_of_CCP_Mode_Timer_Select:
  9408                           	callstack 0
  9409                           
  9410 ;; *************** function _CCP_Compare_Mode_Set_Value *****************
  9411 ;; Defined at:
  9412 ;;		line 195 in file "MCAL_Layer/CCP1/hal_ccp1.c"
  9413 ;; Parameters:    Size  Location     Type
  9414 ;;  _ccp_obj        2   11[COMRAM] PTR const struct .
  9415 ;;		 -> ccp2_obj(11), ccp1_obj(11), 
  9416 ;;  compare_valu    2   13[COMRAM] unsigned short 
  9417 ;; Auto vars:     Size  Location     Type
  9418 ;;  capture_temp    2   16[COMRAM] struct .
  9419 ;;  ret             1    0        unsigned char 
  9420 ;; Return value:  Size  Location     Type
  9421 ;;                  1    wreg      unsigned char 
  9422 ;; Registers used:
  9423 ;;		wreg, fsr2l, fsr2h, status,2, status,0
  9424 ;; Tracked objects:
  9425 ;;		On entry : 0/0
  9426 ;;		On exit  : 0/0
  9427 ;;		Unchanged: 0/0
  9428 ;; Data sizes:     COMRAM   BANK0   BANK1   BANK2   BANK3   BANK4   BANK5   BANK6   BANK7   BANK8   BANK9  BANK10  BANK1
      +1  BANK12  BANK13  BANK14  BANK15
  9429 ;;      Params:         4       0       0       0       0       0       0       0       0       0       0       0       
      +0       0       0       0       0
  9430 ;;      Locals:         2       0       0       0       0       0       0       0       0       0       0       0       
      +0       0       0       0       0
  9431 ;;      Temps:          1       0       0       0       0       0       0       0       0       0       0       0       
      +0       0       0       0       0
  9432 ;;      Totals:         7       0       0       0       0       0       0       0       0       0       0       0       
      +0       0       0       0       0
  9433 ;;Total ram usage:        7 bytes
  9434 ;; Hardware stack levels used: 1
  9435 ;; Hardware stack levels required when called: 4
  9436 ;; This function calls:
  9437 ;;		Nothing
  9438 ;; This function is called by:
  9439 ;;		_Door1_Open
  9440 ;;		_Door2_Open
  9441 ;; This function uses a non-reentrant model
  9442 ;;
  9443                           
  9444                           	psect	text47
  9445   003420                     __ptext47:
  9446                           	callstack 0
  9447   003420                     _CCP_Compare_Mode_Set_Value:
  9448                           	callstack 25
  9449   003420                     
  9450                           ;MCAL_Layer/CCP1/hal_ccp1.c: 198:     if (((void*)0) == _ccp_obj){
  9451   003420  500C               	movf	CCP_Compare_Mode_Set_Value@_ccp_obj^0,w,c
  9452   003422  100D               	iorwf	(CCP_Compare_Mode_Set_Value@_ccp_obj+1)^0,w,c
  9453   003424  A4D8               	btfss	status,2,c
  9454   003426  EF17  F01A         	goto	u9951
  9455   00342A  EF19  F01A         	goto	u9950
  9456   00342E                     u9951:
  9457   00342E  EF1B  F01A         	goto	l690
  9458   003432                     u9950:
  9459   003432                     l10874:
  9460                           
  9461                           ;MCAL_Layer/CCP1/hal_ccp1.c: 200:     }
  9462   003432  EF47  F01A         	goto	l691
  9463   003436                     l690:
  9464                           
  9465                           ;MCAL_Layer/CCP1/hal_ccp1.c: 203:         capture_temp_value.ccpr_16Bit = compare_value;
  9466   003436  C00E  F011         	movff	CCP_Compare_Mode_Set_Value@compare_value,CCP_Compare_Mode_Set_Value@capture_temp_
      +                          value
  9467   00343A  C00F  F012         	movff	CCP_Compare_Mode_Set_Value@compare_value+1,CCP_Compare_Mode_Set_Value@capture_tem
      +                          p_value+1
  9468   00343E                     
  9469                           ;MCAL_Layer/CCP1/hal_ccp1.c: 204:         if( CCP1_INST == _ccp_obj->ccp_inst){
  9470   00343E  EE20 F003          	lfsr	2,3
  9471   003442  500C               	movf	CCP_Compare_Mode_Set_Value@_ccp_obj^0,w,c
  9472   003444  26D9               	addwf	fsr2l,f,c
  9473   003446  500D               	movf	(CCP_Compare_Mode_Set_Value@_ccp_obj+1)^0,w,c
  9474   003448  22DA               	addwfc	fsr2h,f,c
  9475   00344A  50DF               	movf	indf2,w,c
  9476   00344C  A4D8               	btfss	status,2,c
  9477   00344E  EF2B  F01A         	goto	u9961
  9478   003452  EF2D  F01A         	goto	u9960
  9479   003456                     u9961:
  9480   003456  EF33  F01A         	goto	l10880
  9481   00345A                     u9960:
  9482   00345A                     
  9483                           ;MCAL_Layer/CCP1/hal_ccp1.c: 205:             CCPR1L = capture_temp_value.ccpr_low;
  9484   00345A  C011  FFBE         	movff	CCP_Compare_Mode_Set_Value@capture_temp_value,4030	;volatile
  9485                           
  9486                           ;MCAL_Layer/CCP1/hal_ccp1.c: 206:             CCPR1H = capture_temp_value.ccpr_high;
  9487   00345E  C012  FFBF         	movff	CCP_Compare_Mode_Set_Value@capture_temp_value+1,4031	;volatile
  9488                           
  9489                           ;MCAL_Layer/CCP1/hal_ccp1.c: 207:         }
  9490   003462  EF19  F01A         	goto	l10874
  9491   003466                     l10880:
  9492   003466  EE20 F003          	lfsr	2,3
  9493   00346A  500C               	movf	CCP_Compare_Mode_Set_Value@_ccp_obj^0,w,c
  9494   00346C  26D9               	addwf	fsr2l,f,c
  9495   00346E  500D               	movf	(CCP_Compare_Mode_Set_Value@_ccp_obj+1)^0,w,c
  9496   003470  22DA               	addwfc	fsr2h,f,c
  9497   003472  04DE               	decf	postinc2,w,c
  9498   003474  A4D8               	btfss	status,2,c
  9499   003476  EF3F  F01A         	goto	u9971
  9500   00347A  EF41  F01A         	goto	u9970
  9501   00347E                     u9971:
  9502   00347E  EF19  F01A         	goto	l10874
  9503   003482                     u9970:
  9504   003482                     
  9505                           ;MCAL_Layer/CCP1/hal_ccp1.c: 209:             CCPR2L = capture_temp_value.ccpr_low;
  9506   003482  C011  FFBB         	movff	CCP_Compare_Mode_Set_Value@capture_temp_value,4027	;volatile
  9507                           
  9508                           ;MCAL_Layer/CCP1/hal_ccp1.c: 210:             CCPR2H = capture_temp_value.ccpr_high;
  9509   003486  C012  FFBC         	movff	CCP_Compare_Mode_Set_Value@capture_temp_value+1,4028	;volatile
  9510   00348A  EF19  F01A         	goto	l10874
  9511   00348E                     l691:
  9512                           
  9513                           ;MCAL_Layer/CCP1/hal_ccp1.c: 216:     return ret;
  9514   00348E  0E01               	movlw	1
  9515   003490  0012               	return		;funcret
  9516   003492                     __end_of_CCP_Compare_Mode_Set_Value:
  9517                           	callstack 0
  9518                           
  9519 ;; *************** function _CCP1_SET_Duty *****************
  9520 ;; Defined at:
  9521 ;;		line 218 in file "ECU_Layer/ecu_layer_init.c"
  9522 ;; Parameters:    Size  Location     Type
  9523 ;;		None
  9524 ;; Auto vars:     Size  Location     Type
  9525 ;;		None
  9526 ;; Return value:  Size  Location     Type
  9527 ;;                  1    wreg      void 
  9528 ;; Registers used:
  9529 ;;		wreg, status,2, status,0
  9530 ;; Tracked objects:
  9531 ;;		On entry : 0/0
  9532 ;;		On exit  : 0/0
  9533 ;;		Unchanged: 0/0
  9534 ;; Data sizes:     COMRAM   BANK0   BANK1   BANK2   BANK3   BANK4   BANK5   BANK6   BANK7   BANK8   BANK9  BANK10  BANK1
      +1  BANK12  BANK13  BANK14  BANK15
  9535 ;;      Params:         0       0       0       0       0       0       0       0       0       0       0       0       
      +0       0       0       0       0
  9536 ;;      Locals:         0       0       0       0       0       0       0       0       0       0       0       0       
      +0       0       0       0       0
  9537 ;;      Temps:          0       0       0       0       0       0       0       0       0       0       0       0       
      +0       0       0       0       0
  9538 ;;      Totals:         0       0       0       0       0       0       0       0       0       0       0       0       
      +0       0       0       0       0
  9539 ;;Total ram usage:        0 bytes
  9540 ;; Hardware stack levels used: 1
  9541 ;; Hardware stack levels required when called: 4
  9542 ;; This function calls:
  9543 ;;		Nothing
  9544 ;; This function is called by:
  9545 ;;		_Door1_Open
  9546 ;; This function uses a non-reentrant model
  9547 ;;
  9548                           
  9549                           	psect	text48
  9550   0039D4                     __ptext48:
  9551                           	callstack 0
  9552   0039D4                     _CCP1_SET_Duty:
  9553                           	callstack 25
  9554   0039D4                     
  9555                           ;ECU_Layer/ecu_layer_init.c: 221:     ccp1_obj.ccp_inst=CCP1_INST;
  9556   0039D4  0E00               	movlw	0
  9557   0039D6  0101               	movlb	1	; () banked
  9558   0039D8  6F32               	movwf	(_ccp1_obj+3)& (0+255),b
  9559   0039DA                     
  9560                           ; BSR set to: 1
  9561                           ;ECU_Layer/ecu_layer_init.c: 222:     ccp1_obj.CCP1_InterruptHandler=CCP1_DefaultInterru
      +                          ptHandler;
  9562   0039DA  0E54               	movlw	low _CCP1_DefaultInterruptHandler
  9563   0039DC  6F34               	movwf	(_ccp1_obj+5)& (0+255),b
  9564   0039DE  0E30               	movlw	high _CCP1_DefaultInterruptHandler
  9565   0039E0  6F35               	movwf	(_ccp1_obj+6)& (0+255),b
  9566   0039E2                     
  9567                           ; BSR set to: 1
  9568                           ;ECU_Layer/ecu_layer_init.c: 223:     ccp1_obj.ccp_mode= CCP_COMPARE_MODE_SELECTED;
  9569   0039E2  0E01               	movlw	1
  9570   0039E4  6F2F               	movwf	_ccp1_obj& (0+255),b
  9571   0039E6                     
  9572                           ; BSR set to: 1
  9573                           ;ECU_Layer/ecu_layer_init.c: 224:     ccp1_obj.ccp_variant= ((uint8)0x08) ;
  9574   0039E6  0E08               	movlw	8
  9575   0039E8  6F30               	movwf	(_ccp1_obj+1)& (0+255),b
  9576   0039EA                     
  9577                           ; BSR set to: 1
  9578                           ;ECU_Layer/ecu_layer_init.c: 225:     ccp1_obj.ccp_capture_timer= CCP1_TIMER1_CCP2_TIMER
      +                          3;
  9579   0039EA  0E01               	movlw	1
  9580   0039EC  6F33               	movwf	(_ccp1_obj+4)& (0+255),b
  9581   0039EE                     
  9582                           ; BSR set to: 1
  9583                           ;ECU_Layer/ecu_layer_init.c: 226:     ccp1_obj.ccp_pin.port=PORC_INDEX;
  9584   0039EE  5131               	movf	(_ccp1_obj+2)& (0+255),w,b
  9585   0039F0  0BF8               	andlw	-8
  9586   0039F2  0902               	iorlw	2
  9587   0039F4  6F31               	movwf	(_ccp1_obj+2)& (0+255),b
  9588   0039F6                     
  9589                           ; BSR set to: 1
  9590                           ;ECU_Layer/ecu_layer_init.c: 227:     ccp1_obj.ccp_pin.pin=PIN2;
  9591   0039F6  5131               	movf	(_ccp1_obj+2)& (0+255),w,b
  9592   0039F8  0BC7               	andlw	-57
  9593   0039FA  0910               	iorlw	16
  9594   0039FC  6F31               	movwf	(_ccp1_obj+2)& (0+255),b
  9595   0039FE                     
  9596                           ; BSR set to: 1
  9597                           ;ECU_Layer/ecu_layer_init.c: 228:     ccp1_obj.ccp_pin.direction=GPIO_DIRECTION_OUTPUT;
  9598   0039FE  9D31               	bcf	(_ccp1_obj+2)& (0+255),6,b
  9599   003A00                     
  9600                           ; BSR set to: 1
  9601   003A00  0012               	return		;funcret
  9602   003A02                     __end_of_CCP1_SET_Duty:
  9603                           	callstack 0
  9604                           
  9605 ;; *************** function _Check_Password *****************
  9606 ;; Defined at:
  9607 ;;		line 206 in file "application.c"
  9608 ;; Parameters:    Size  Location     Type
  9609 ;;		None
  9610 ;; Auto vars:     Size  Location     Type
  9611 ;;		None
  9612 ;; Return value:  Size  Location     Type
  9613 ;;                  1    wreg      unsigned char 
  9614 ;; Registers used:
  9615 ;;		wreg, fsr0l, fsr0h, fsr2l, fsr2h, status,2, status,0, tblptrl, tblptrh, tblptru, prodl, prodh, cstack
  9616 ;; Tracked objects:
  9617 ;;		On entry : 0/0
  9618 ;;		On exit  : 0/0
  9619 ;;		Unchanged: 0/0
  9620 ;; Data sizes:     COMRAM   BANK0   BANK1   BANK2   BANK3   BANK4   BANK5   BANK6   BANK7   BANK8   BANK9  BANK10  BANK1
      +1  BANK12  BANK13  BANK14  BANK15
  9621 ;;      Params:         0       0       0       0       0       0       0       0       0       0       0       0       
      +0       0       0       0       0
  9622 ;;      Locals:         0       0       0       0       0       0       0       0       0       0       0       0       
      +0       0       0       0       0
  9623 ;;      Temps:          2       0       0       0       0       0       0       0       0       0       0       0       
      +0       0       0       0       0
  9624 ;;      Totals:         2       0       0       0       0       0       0       0       0       0       0       0       
      +0       0       0       0       0
  9625 ;;Total ram usage:        2 bytes
  9626 ;; Hardware stack levels used: 1
  9627 ;; Hardware stack levels required when called: 10
  9628 ;; This function calls:
  9629 ;;		_Read_Password
  9630 ;;		_lcd_8bit_send_command
  9631 ;;		_lcd_8bit_send_string_pos
  9632 ;; This function is called by:
  9633 ;;		_main
  9634 ;; This function uses a non-reentrant model
  9635 ;;
  9636                           
  9637                           	psect	text49
  9638   00207A                     __ptext49:
  9639                           	callstack 0
  9640   00207A                     _Check_Password:
  9641                           	callstack 20
  9642   00207A                     l11220:
  9643                           
  9644                           ;application.c: 207:     password_check =Read_Password();
  9645   00207A  ECD1  F012         	call	_Read_Password	;wreg free
  9646   00207E  6E54               	movwf	_password_check^0,c	;volatile
  9647                           
  9648                           ;application.c: 209:      while(check2 != 1){
  9649   002080  EFC5  F010         	goto	l11250
  9650   002084                     l11222:
  9651                           
  9652                           ;application.c: 211:      if(password_check==1){
  9653   002084  0454               	decf	_password_check^0,w,c	;volatile
  9654   002086  A4D8               	btfss	status,2,c
  9655   002088  EF48  F010         	goto	u10141
  9656   00208C  EF4A  F010         	goto	u10140
  9657   002090                     u10141:
  9658   002090  EF98  F010         	goto	l11240
  9659   002094                     u10140:
  9660   002094                     
  9661                           ;application.c: 212:          ret=lcd_8bit_send_command (&lcd_2,0x01);
  9662   002094  0EF5               	movlw	low _lcd_2
  9663   002096  6E18               	movwf	lcd_8bit_send_command@lcd^0,c
  9664   002098  0E00               	movlw	high _lcd_2
  9665   00209A  6E19               	movwf	(lcd_8bit_send_command@lcd+1)^0,c
  9666   00209C  0E01               	movlw	1
  9667   00209E  6E1A               	movwf	lcd_8bit_send_command@command^0,c
  9668   0020A0  ECD3  F016         	call	_lcd_8bit_send_command	;wreg free
  9669   0020A4  6E6F               	movwf	_ret^0,c
  9670   0020A6                     
  9671                           ;application.c: 213:           _delay((unsigned long)((200)*(4000000UL/4000.0)));
  9672   0020A6  0E02               	movlw	2
  9673   0020A8  6E31               	movwf	(??_Check_Password+1)^0,c
  9674   0020AA  0E04               	movlw	4
  9675   0020AC  6E30               	movwf	??_Check_Password^0,c
  9676   0020AE  0EBA               	movlw	186
  9677   0020B0                     u10917:
  9678   0020B0  2EE8               	decfsz	wreg,f,c
  9679   0020B2  D7FE               	bra	u10917
  9680   0020B4  2E30               	decfsz	??_Check_Password^0,f,c
  9681   0020B6  D7FC               	bra	u10917
  9682   0020B8  2E31               	decfsz	(??_Check_Password+1)^0,f,c
  9683   0020BA  D7FA               	bra	u10917
  9684   0020BC  D000               	nop2	
  9685   0020BE                     
  9686                           ;application.c: 214:       ret=lcd_8bit_send_string_pos(&lcd_2,1,1,"Wrong Password !");
  9687   0020BE  0EF5               	movlw	low _lcd_2
  9688   0020C0  6E27               	movwf	lcd_8bit_send_string_pos@lcd^0,c
  9689   0020C2  0E00               	movlw	high _lcd_2
  9690   0020C4  6E28               	movwf	(lcd_8bit_send_string_pos@lcd+1)^0,c
  9691   0020C6  0E01               	movlw	1
  9692   0020C8  6E29               	movwf	lcd_8bit_send_string_pos@row^0,c
  9693   0020CA  0E01               	movlw	1
  9694   0020CC  6E2A               	movwf	lcd_8bit_send_string_pos@column^0,c
  9695   0020CE  0E48               	movlw	low STR_27
  9696   0020D0  6E2B               	movwf	lcd_8bit_send_string_pos@str^0,c
  9697   0020D2  0EFF               	movlw	high STR_27
  9698   0020D4  6E2C               	movwf	(lcd_8bit_send_string_pos@str+1)^0,c
  9699   0020D6  ECE2  F014         	call	_lcd_8bit_send_string_pos	;wreg free
  9700   0020DA  6E6F               	movwf	_ret^0,c
  9701   0020DC                     
  9702                           ;application.c: 215:       ret=lcd_8bit_send_string_pos(&lcd_2,2,1,"Try Again");
  9703   0020DC  0EF5               	movlw	low _lcd_2
  9704   0020DE  6E27               	movwf	lcd_8bit_send_string_pos@lcd^0,c
  9705   0020E0  0E00               	movlw	high _lcd_2
  9706   0020E2  6E28               	movwf	(lcd_8bit_send_string_pos@lcd+1)^0,c
  9707   0020E4  0E02               	movlw	2
  9708   0020E6  6E29               	movwf	lcd_8bit_send_string_pos@row^0,c
  9709   0020E8  0E01               	movlw	1
  9710   0020EA  6E2A               	movwf	lcd_8bit_send_string_pos@column^0,c
  9711   0020EC  0EC6               	movlw	low STR_28
  9712   0020EE  6E2B               	movwf	lcd_8bit_send_string_pos@str^0,c
  9713   0020F0  0EFF               	movlw	high STR_28
  9714   0020F2  6E2C               	movwf	(lcd_8bit_send_string_pos@str+1)^0,c
  9715   0020F4  ECE2  F014         	call	_lcd_8bit_send_string_pos	;wreg free
  9716   0020F8  6E6F               	movwf	_ret^0,c
  9717   0020FA                     
  9718                           ;application.c: 216:       _delay((unsigned long)((800)*(4000000UL/4000.0)));
  9719   0020FA  0E05               	movlw	5
  9720   0020FC  6E31               	movwf	(??_Check_Password+1)^0,c
  9721   0020FE  0E0F               	movlw	15
  9722   002100  6E30               	movwf	??_Check_Password^0,c
  9723   002102  0EF1               	movlw	241
  9724   002104                     u10927:
  9725   002104  2EE8               	decfsz	wreg,f,c
  9726   002106  D7FE               	bra	u10927
  9727   002108  2E30               	decfsz	??_Check_Password^0,f,c
  9728   00210A  D7FC               	bra	u10927
  9729   00210C  2E31               	decfsz	(??_Check_Password+1)^0,f,c
  9730   00210E  D7FA               	bra	u10927
  9731   002110  F000               	nop	
  9732                           
  9733                           ;application.c: 217:        ret=lcd_8bit_send_command (&lcd_2,0x01);
  9734   002112  0EF5               	movlw	low _lcd_2
  9735   002114  6E18               	movwf	lcd_8bit_send_command@lcd^0,c
  9736   002116  0E00               	movlw	high _lcd_2
  9737   002118  6E19               	movwf	(lcd_8bit_send_command@lcd+1)^0,c
  9738   00211A  0E01               	movlw	1
  9739   00211C  6E1A               	movwf	lcd_8bit_send_command@command^0,c
  9740   00211E  ECD3  F016         	call	_lcd_8bit_send_command	;wreg free
  9741   002122  6E6F               	movwf	_ret^0,c
  9742   002124                     
  9743                           ;application.c: 219:       i=0;
  9744   002124  0E00               	movlw	0
  9745   002126  6E59               	movwf	_i^0,c	;volatile
  9746   002128                     
  9747                           ;application.c: 220:       check=0;
  9748   002128  0E00               	movlw	0
  9749   00212A  6E58               	movwf	_check^0,c	;volatile
  9750   00212C  EF3D  F010         	goto	l11220
  9751   002130                     l11240:
  9752   002130  5054               	movf	_password_check^0,w,c	;volatile
  9753   002132  A4D8               	btfss	status,2,c
  9754   002134  EF9E  F010         	goto	u10151
  9755   002138  EFA0  F010         	goto	u10150
  9756   00213C                     u10151:
  9757   00213C  EFC5  F010         	goto	l11250
  9758   002140                     u10150:
  9759   002140                     
  9760                           ;application.c: 224:          check2 =1;
  9761   002140  0E01               	movlw	1
  9762   002142  6E57               	movwf	_check2^0,c	;volatile
  9763   002144                     
  9764                           ;application.c: 225:          ret=lcd_8bit_send_command (&lcd_2,0x01);
  9765   002144  0EF5               	movlw	low _lcd_2
  9766   002146  6E18               	movwf	lcd_8bit_send_command@lcd^0,c
  9767   002148  0E00               	movlw	high _lcd_2
  9768   00214A  6E19               	movwf	(lcd_8bit_send_command@lcd+1)^0,c
  9769   00214C  0E01               	movlw	1
  9770   00214E  6E1A               	movwf	lcd_8bit_send_command@command^0,c
  9771   002150  ECD3  F016         	call	_lcd_8bit_send_command	;wreg free
  9772   002154  6E6F               	movwf	_ret^0,c
  9773   002156                     
  9774                           ;application.c: 226:          ret=lcd_8bit_send_string_pos(&lcd_2,1,1,"Correct Password 
      +                          !");
  9775   002156  0EF5               	movlw	low _lcd_2
  9776   002158  6E27               	movwf	lcd_8bit_send_string_pos@lcd^0,c
  9777   00215A  0E00               	movlw	high _lcd_2
  9778   00215C  6E28               	movwf	(lcd_8bit_send_string_pos@lcd+1)^0,c
  9779   00215E  0E01               	movlw	1
  9780   002160  6E29               	movwf	lcd_8bit_send_string_pos@row^0,c
  9781   002162  0E01               	movlw	1
  9782   002164  6E2A               	movwf	lcd_8bit_send_string_pos@column^0,c
  9783   002166  0EFE               	movlw	low STR_29
  9784   002168  6E2B               	movwf	lcd_8bit_send_string_pos@str^0,c
  9785   00216A  0EFE               	movlw	high STR_29
  9786   00216C  6E2C               	movwf	(lcd_8bit_send_string_pos@str+1)^0,c
  9787   00216E  ECE2  F014         	call	_lcd_8bit_send_string_pos	;wreg free
  9788   002172  6E6F               	movwf	_ret^0,c
  9789   002174                     
  9790                           ;application.c: 227:         _delay((unsigned long)((500)*(4000000UL/4000.0)));
  9791   002174  0E03               	movlw	3
  9792   002176  6E31               	movwf	(??_Check_Password+1)^0,c
  9793   002178  0E8A               	movlw	138
  9794   00217A  6E30               	movwf	??_Check_Password^0,c
  9795   00217C  0E56               	movlw	86
  9796   00217E                     u10937:
  9797   00217E  2EE8               	decfsz	wreg,f,c
  9798   002180  D7FE               	bra	u10937
  9799   002182  2E30               	decfsz	??_Check_Password^0,f,c
  9800   002184  D7FC               	bra	u10937
  9801   002186  2E31               	decfsz	(??_Check_Password+1)^0,f,c
  9802   002188  D7FA               	bra	u10937
  9803   00218A                     l11250:
  9804                           
  9805                           ;application.c: 209:      while(check2 != 1){
  9806   00218A  0457               	decf	_check2^0,w,c	;volatile
  9807   00218C  A4D8               	btfss	status,2,c
  9808   00218E  EFCB  F010         	goto	u10161
  9809   002192  EFCD  F010         	goto	u10160
  9810   002196                     u10161:
  9811   002196  EF42  F010         	goto	l11222
  9812   00219A                     u10160:
  9813   00219A  0012               	return		;funcret
  9814   00219C                     __end_of_Check_Password:
  9815                           	callstack 0
  9816                           
  9817 ;; *************** function _Read_Password *****************
  9818 ;; Defined at:
  9819 ;;		line 184 in file "application.c"
  9820 ;; Parameters:    Size  Location     Type
  9821 ;;		None
  9822 ;; Auto vars:     Size  Location     Type
  9823 ;;		None
  9824 ;; Return value:  Size  Location     Type
  9825 ;;                  1    wreg      unsigned char 
  9826 ;; Registers used:
  9827 ;;		wreg, fsr0l, fsr0h, fsr2l, fsr2h, status,2, status,0, tblptrl, tblptrh, tblptru, prodl, prodh, cstack
  9828 ;; Tracked objects:
  9829 ;;		On entry : 0/0
  9830 ;;		On exit  : 0/0
  9831 ;;		Unchanged: 0/0
  9832 ;; Data sizes:     COMRAM   BANK0   BANK1   BANK2   BANK3   BANK4   BANK5   BANK6   BANK7   BANK8   BANK9  BANK10  BANK1
      +1  BANK12  BANK13  BANK14  BANK15
  9833 ;;      Params:         0       0       0       0       0       0       0       0       0       0       0       0       
      +0       0       0       0       0
  9834 ;;      Locals:         0       0       0       0       0       0       0       0       0       0       0       0       
      +0       0       0       0       0
  9835 ;;      Temps:          2       0       0       0       0       0       0       0       0       0       0       0       
      +0       0       0       0       0
  9836 ;;      Totals:         2       0       0       0       0       0       0       0       0       0       0       0       
      +0       0       0       0       0
  9837 ;;Total ram usage:        2 bytes
  9838 ;; Hardware stack levels used: 1
  9839 ;; Hardware stack levels required when called: 9
  9840 ;; This function calls:
  9841 ;;		_keypad_get_value
  9842 ;;		_lcd_8bit_send_command
  9843 ;;		_lcd_8bit_send_string_pos
  9844 ;; This function is called by:
  9845 ;;		_Check_Password
  9846 ;; This function uses a non-reentrant model
  9847 ;;
  9848                           
  9849                           	psect	text50
  9850   0025A2                     __ptext50:
  9851                           	callstack 0
  9852   0025A2                     _Read_Password:
  9853                           	callstack 20
  9854   0025A2                     
  9855                           ;application.c: 185:      keypadvalue= 0;
  9856   0025A2  0E00               	movlw	0
  9857   0025A4  6E6A               	movwf	_keypadvalue^0,c	;volatile
  9858   0025A6                     
  9859                           ;application.c: 186:      ret=lcd_8bit_send_command (&lcd_2,0x01);
  9860   0025A6  0EF5               	movlw	low _lcd_2
  9861   0025A8  6E18               	movwf	lcd_8bit_send_command@lcd^0,c
  9862   0025AA  0E00               	movlw	high _lcd_2
  9863   0025AC  6E19               	movwf	(lcd_8bit_send_command@lcd+1)^0,c
  9864   0025AE  0E01               	movlw	1
  9865   0025B0  6E1A               	movwf	lcd_8bit_send_command@command^0,c
  9866   0025B2  ECD3  F016         	call	_lcd_8bit_send_command	;wreg free
  9867   0025B6  6E6F               	movwf	_ret^0,c
  9868   0025B8                     
  9869                           ;application.c: 187:       _delay((unsigned long)((200)*(4000000UL/4000.0)));
  9870   0025B8  0E02               	movlw	2
  9871   0025BA  6E2F               	movwf	(??_Read_Password+1)^0,c
  9872   0025BC  0E04               	movlw	4
  9873   0025BE  6E2E               	movwf	??_Read_Password^0,c
  9874   0025C0  0EBA               	movlw	186
  9875   0025C2                     u10947:
  9876   0025C2  2EE8               	decfsz	wreg,f,c
  9877   0025C4  D7FE               	bra	u10947
  9878   0025C6  2E2E               	decfsz	??_Read_Password^0,f,c
  9879   0025C8  D7FC               	bra	u10947
  9880   0025CA  2E2F               	decfsz	(??_Read_Password+1)^0,f,c
  9881   0025CC  D7FA               	bra	u10947
  9882   0025CE  D000               	nop2	
  9883   0025D0                     
  9884                           ;application.c: 188:      ret=lcd_8bit_send_string_pos(&lcd_2,1,1,"Password : ");
  9885   0025D0  0EF5               	movlw	low _lcd_2
  9886   0025D2  6E27               	movwf	lcd_8bit_send_string_pos@lcd^0,c
  9887   0025D4  0E00               	movlw	high _lcd_2
  9888   0025D6  6E28               	movwf	(lcd_8bit_send_string_pos@lcd+1)^0,c
  9889   0025D8  0E01               	movlw	1
  9890   0025DA  6E29               	movwf	lcd_8bit_send_string_pos@row^0,c
  9891   0025DC  0E01               	movlw	1
  9892   0025DE  6E2A               	movwf	lcd_8bit_send_string_pos@column^0,c
  9893   0025E0  0EA2               	movlw	low STR_25
  9894   0025E2  6E2B               	movwf	lcd_8bit_send_string_pos@str^0,c
  9895   0025E4  0EFF               	movlw	high STR_25
  9896   0025E6  6E2C               	movwf	(lcd_8bit_send_string_pos@str+1)^0,c
  9897   0025E8  ECE2  F014         	call	_lcd_8bit_send_string_pos	;wreg free
  9898   0025EC  6E6F               	movwf	_ret^0,c
  9899                           
  9900                           ;application.c: 190:     while(i!=5){
  9901   0025EE  EF3B  F013         	goto	l11030
  9902   0025F2                     l11014:
  9903                           
  9904                           ;application.c: 191:         ret=keypad_get_value(&keypad1,&keypadvalue);
  9905   0025F2  0E59               	movlw	low _keypad1
  9906   0025F4  6E15               	movwf	keypad_get_value@_keypad_obj^0,c
  9907   0025F6  0E01               	movlw	high _keypad1
  9908   0025F8  6E16               	movwf	(keypad_get_value@_keypad_obj+1)^0,c
  9909   0025FA  0E6A               	movlw	low _keypadvalue
  9910   0025FC  6E17               	movwf	keypad_get_value@value^0,c
  9911   0025FE  0E00               	movlw	high _keypadvalue
  9912   002600  6E18               	movwf	(keypad_get_value@value+1)^0,c
  9913   002602  ECCE  F010         	call	_keypad_get_value	;wreg free
  9914   002606  6E6F               	movwf	_ret^0,c
  9915   002608                     
  9916                           ;application.c: 192:        if(keypadvalue != 0) {
  9917   002608  506A               	movf	_keypadvalue^0,w,c	;volatile
  9918   00260A  B4D8               	btfsc	status,2,c
  9919   00260C  EF0A  F013         	goto	u10031
  9920   002610  EF0C  F013         	goto	u10030
  9921   002614                     u10031:
  9922   002614  EF39  F013         	goto	l11028
  9923   002618                     u10030:
  9924   002618                     
  9925                           ;application.c: 193:        ret=lcd_8bit_send_string_pos(&lcd_2,1,(12+i),"*");
  9926   002618  0EF5               	movlw	low _lcd_2
  9927   00261A  6E27               	movwf	lcd_8bit_send_string_pos@lcd^0,c
  9928   00261C  0E00               	movlw	high _lcd_2
  9929   00261E  6E28               	movwf	(lcd_8bit_send_string_pos@lcd+1)^0,c
  9930   002620  0E01               	movlw	1
  9931   002622  6E29               	movwf	lcd_8bit_send_string_pos@row^0,c
  9932   002624  5059               	movf	_i^0,w,c	;volatile
  9933   002626  0F0C               	addlw	12
  9934   002628  6E2A               	movwf	lcd_8bit_send_string_pos@column^0,c
  9935   00262A  0EE9               	movlw	low (STR_7+6)
  9936   00262C  6E2B               	movwf	lcd_8bit_send_string_pos@str^0,c
  9937   00262E  0EFF               	movlw	high (STR_7+6)
  9938   002630  6E2C               	movwf	(lcd_8bit_send_string_pos@str+1)^0,c
  9939   002632  ECE2  F014         	call	_lcd_8bit_send_string_pos	;wreg free
  9940   002636  6E6F               	movwf	_ret^0,c
  9941   002638                     
  9942                           ;application.c: 194:        _delay((unsigned long)((500)*(4000000UL/4000.0)));
  9943   002638  0E03               	movlw	3
  9944   00263A  6E2F               	movwf	(??_Read_Password+1)^0,c
  9945   00263C  0E8A               	movlw	138
  9946   00263E  6E2E               	movwf	??_Read_Password^0,c
  9947   002640  0E56               	movlw	86
  9948   002642                     u10957:
  9949   002642  2EE8               	decfsz	wreg,f,c
  9950   002644  D7FE               	bra	u10957
  9951   002646  2E2E               	decfsz	??_Read_Password^0,f,c
  9952   002648  D7FC               	bra	u10957
  9953   00264A  2E2F               	decfsz	(??_Read_Password+1)^0,f,c
  9954   00264C  D7FA               	bra	u10957
  9955   00264E                     
  9956                           ;application.c: 196:        if(Password[i]!= keypadvalue){
  9957   00264E  0E54               	movlw	low _Password
  9958   002650  2459               	addwf	_i^0,w,c	;volatile
  9959   002652  6ED9               	movwf	fsr2l,c
  9960   002654  6ADA               	clrf	fsr2h,c
  9961   002656  0E01               	movlw	high _Password
  9962   002658  22DA               	addwfc	fsr2h,f,c
  9963   00265A  506A               	movf	_keypadvalue^0,w,c	;volatile
  9964   00265C  18DE               	xorwf	postinc2,w,c
  9965   00265E  B4D8               	btfsc	status,2,c
  9966   002660  EF34  F013         	goto	u10041
  9967   002664  EF36  F013         	goto	u10040
  9968   002668                     u10041:
  9969   002668  EF38  F013         	goto	l11026
  9970   00266C                     u10040:
  9971   00266C                     
  9972                           ;application.c: 197:            check=1;
  9973   00266C  0E01               	movlw	1
  9974   00266E  6E58               	movwf	_check^0,c	;volatile
  9975   002670                     l11026:
  9976                           
  9977                           ;application.c: 199:        i++;
  9978   002670  2A59               	incf	_i^0,f,c	;volatile
  9979   002672                     l11028:
  9980                           
  9981                           ;application.c: 201:         keypadvalue= 0;
  9982   002672  0E00               	movlw	0
  9983   002674  6E6A               	movwf	_keypadvalue^0,c	;volatile
  9984   002676                     l11030:
  9985                           
  9986                           ;application.c: 190:     while(i!=5){
  9987   002676  0E05               	movlw	5
  9988   002678  1859               	xorwf	_i^0,w,c	;volatile
  9989   00267A  A4D8               	btfss	status,2,c
  9990   00267C  EF42  F013         	goto	u10051
  9991   002680  EF44  F013         	goto	u10050
  9992   002684                     u10051:
  9993   002684  EFF9  F012         	goto	l11014
  9994   002688                     u10050:
  9995   002688                     
  9996                           ;application.c: 203:     return check;
  9997   002688  5058               	movf	_check^0,w,c	;volatile
  9998   00268A  0012               	return		;funcret
  9999   00268C                     __end_of_Read_Password:
 10000                           	callstack 0
 10001                           
 10002 ;; *************** function _lcd_8bit_send_string_pos *****************
 10003 ;; Defined at:
 10004 ;;		line 273 in file "ECU_Layer/Chr_LCD/ecu_chr_lcd.c"
 10005 ;; Parameters:    Size  Location     Type
 10006 ;;  lcd             2   38[COMRAM] PTR const struct .
 10007 ;;		 -> lcd_2(10), 
 10008 ;;  row             1   40[COMRAM] unsigned char 
 10009 ;;  column          1   41[COMRAM] unsigned char 
 10010 ;;  str             2   42[COMRAM] PTR unsigned char 
 10011 ;;		 -> STR_29(19), STR_28(10), STR_27(17), STR_26(2), 
 10012 ;;		 -> STR_25(12), STR_24(10), STR_23(18), STR_22(20), 
 10013 ;;		 -> STR_21(15), STR_20(13), STR_19(15), STR_18(15), 
 10014 ;;		 -> STR_17(18), STR_16(20), STR_15(15), STR_14(13), 
 10015 ;;		 -> STR_13(15), STR_12(15), STR_11(9), STR_10(19), 
 10016 ;;		 -> STR_9(12), STR_8(12), STR_7(8), STR_6(19), 
 10017 ;;		 -> STR_5(8), STR_4(8), RealTimeClockDS1307_Time(9), RealTimeClockDS1307_Data(9), 
 10018 ;; Auto vars:     Size  Location     Type
 10019 ;;  ret             1   44[COMRAM] unsigned char 
 10020 ;; Return value:  Size  Location     Type
 10021 ;;                  1    wreg      unsigned char 
 10022 ;; Registers used:
 10023 ;;		wreg, fsr0l, fsr0h, fsr2l, fsr2h, status,2, status,0, tblptrl, tblptrh, tblptru, prodl, prodh, cstack
 10024 ;; Tracked objects:
 10025 ;;		On entry : 0/0
 10026 ;;		On exit  : 0/0
 10027 ;;		Unchanged: 0/0
 10028 ;; Data sizes:     COMRAM   BANK0   BANK1   BANK2   BANK3   BANK4   BANK5   BANK6   BANK7   BANK8   BANK9  BANK10  BANK1
      +1  BANK12  BANK13  BANK14  BANK15
 10029 ;;      Params:         6       0       0       0       0       0       0       0       0       0       0       0       
      +0       0       0       0       0
 10030 ;;      Locals:         1       0       0       0       0       0       0       0       0       0       0       0       
      +0       0       0       0       0
 10031 ;;      Temps:          0       0       0       0       0       0       0       0       0       0       0       0       
      +0       0       0       0       0
 10032 ;;      Totals:         7       0       0       0       0       0       0       0       0       0       0       0       
      +0       0       0       0       0
 10033 ;;Total ram usage:        7 bytes
 10034 ;; Hardware stack levels used: 1
 10035 ;; Hardware stack levels required when called: 8
 10036 ;; This function calls:
 10037 ;;		_lcd_8bit_send_char_data
 10038 ;;		_lcd_8bit_set_cursor
 10039 ;; This function is called by:
 10040 ;;		_Print_RealTimeClockDS1307
 10041 ;;		_main
 10042 ;;		_Read_Password
 10043 ;;		_Check_Password
 10044 ;; This function uses a non-reentrant model
 10045 ;;
 10046                           
 10047                           	psect	text51
 10048   0029C4                     __ptext51:
 10049                           	callstack 0
 10050   0029C4                     _lcd_8bit_send_string_pos:
 10051                           	callstack 22
 10052   0029C4                     
 10053                           ;ECU_Layer/Chr_LCD/ecu_chr_lcd.c: 275:     if((((void*)0) == lcd) ||(((void*)0) == str))
      +                          {
 10054   0029C4  5027               	movf	lcd_8bit_send_string_pos@lcd^0,w,c
 10055   0029C6  1028               	iorwf	(lcd_8bit_send_string_pos@lcd+1)^0,w,c
 10056   0029C8  B4D8               	btfsc	status,2,c
 10057   0029CA  EFE9  F014         	goto	u9451
 10058   0029CE  EFEB  F014         	goto	u9450
 10059   0029D2                     u9451:
 10060   0029D2  EFF4  F014         	goto	l10320
 10061   0029D6                     u9450:
 10062   0029D6  502B               	movf	lcd_8bit_send_string_pos@str^0,w,c
 10063   0029D8  102C               	iorwf	(lcd_8bit_send_string_pos@str+1)^0,w,c
 10064   0029DA  A4D8               	btfss	status,2,c
 10065   0029DC  EFF2  F014         	goto	u9461
 10066   0029E0  EFF4  F014         	goto	u9460
 10067   0029E4                     u9461:
 10068   0029E4  EFF8  F014         	goto	l10322
 10069   0029E8                     u9460:
 10070   0029E8                     l10320:
 10071                           
 10072                           ;ECU_Layer/Chr_LCD/ecu_chr_lcd.c: 276:         ret=(Std_ReturnType)0x01;
 10073   0029E8  0E01               	movlw	1
 10074   0029EA  6E2D               	movwf	lcd_8bit_send_string_pos@ret^0,c
 10075                           
 10076                           ;ECU_Layer/Chr_LCD/ecu_chr_lcd.c: 277:     }
 10077   0029EC  EF39  F015         	goto	l10330
 10078   0029F0                     l10322:
 10079                           
 10080                           ;ECU_Layer/Chr_LCD/ecu_chr_lcd.c: 279:         ret=lcd_8bit_set_cursor(lcd ,row,column);
 10081   0029F0  C027  F021         	movff	lcd_8bit_send_string_pos@lcd,lcd_8bit_set_cursor@lcd
 10082   0029F4  C028  F022         	movff	lcd_8bit_send_string_pos@lcd+1,lcd_8bit_set_cursor@lcd+1
 10083   0029F8  C029  F023         	movff	lcd_8bit_send_string_pos@row,lcd_8bit_set_cursor@row
 10084   0029FC  C02A  F024         	movff	lcd_8bit_send_string_pos@column,lcd_8bit_set_cursor@coulmn
 10085   002A00  EC86  F016         	call	_lcd_8bit_set_cursor	;wreg free
 10086   002A04  6E2D               	movwf	lcd_8bit_send_string_pos@ret^0,c
 10087                           
 10088                           ;ECU_Layer/Chr_LCD/ecu_chr_lcd.c: 280:         while(*str){
 10089   002A06  EF20  F015         	goto	l10328
 10090   002A0A                     l10324:
 10091                           
 10092                           ;ECU_Layer/Chr_LCD/ecu_chr_lcd.c: 281:             ret=lcd_8bit_send_char_data(lcd,*str+
      +                          +);
 10093   002A0A  C027  F018         	movff	lcd_8bit_send_string_pos@lcd,lcd_8bit_send_char_data@lcd
 10094   002A0E  C028  F019         	movff	lcd_8bit_send_string_pos@lcd+1,lcd_8bit_send_char_data@lcd+1
 10095   002A12  C02B  FFF6         	movff	lcd_8bit_send_string_pos@str,tblptrl
 10096   002A16  C02C  FFF7         	movff	lcd_8bit_send_string_pos@str+1,tblptrh
 10097   002A1A  0E00               	movlw	low (__mediumconst shr (0+16))
 10098   002A1C  6EF8               	movwf	tblptru,c
 10099   002A1E  0E0F               	movlw	(high __ramtop+-1)
 10100   002A20  64F7               	cpfsgt	tblptrh,c
 10101   002A22  D003               	bra	u9477
 10102   002A24  0008               	tblrd		*
 10103   002A26  50F5               	movf	tablat,w,c
 10104   002A28  D005               	bra	u9470
 10105   002A2A                     u9477:
 10106   002A2A  CFF6 FFE9          	movff	tblptrl,fsr0l
 10107   002A2E  CFF7 FFEA          	movff	tblptrh,fsr0h
 10108   002A32  50EF               	movf	indf0,w,c
 10109   002A34                     u9470:
 10110   002A34  6E1A               	movwf	lcd_8bit_send_char_data@data^0,c
 10111   002A36  EC1B  F017         	call	_lcd_8bit_send_char_data	;wreg free
 10112   002A3A  6E2D               	movwf	lcd_8bit_send_string_pos@ret^0,c
 10113   002A3C  4A2B               	infsnz	lcd_8bit_send_string_pos@str^0,f,c
 10114   002A3E  2A2C               	incf	(lcd_8bit_send_string_pos@str+1)^0,f,c
 10115   002A40                     l10328:
 10116                           
 10117                           ;ECU_Layer/Chr_LCD/ecu_chr_lcd.c: 280:         while(*str){
 10118   002A40  C02B  FFF6         	movff	lcd_8bit_send_string_pos@str,tblptrl
 10119   002A44  C02C  FFF7         	movff	lcd_8bit_send_string_pos@str+1,tblptrh
 10120   002A48  0E00               	movlw	low (__mediumconst shr (0+16))
 10121   002A4A  6EF8               	movwf	tblptru,c
 10122   002A4C  0E0F               	movlw	(high __ramtop+-1)
 10123   002A4E  64F7               	cpfsgt	tblptrh,c
 10124   002A50  D003               	bra	u9487
 10125   002A52  0008               	tblrd		*
 10126   002A54  50F5               	movf	tablat,w,c
 10127   002A56  D005               	bra	u9480
 10128   002A58                     u9487:
 10129   002A58  CFF6 FFE9          	movff	tblptrl,fsr0l
 10130   002A5C  CFF7 FFEA          	movff	tblptrh,fsr0h
 10131   002A60  50EF               	movf	indf0,w,c
 10132   002A62                     u9480:
 10133   002A62  0900               	iorlw	0
 10134   002A64  A4D8               	btfss	status,2,c
 10135   002A66  EF37  F015         	goto	u9491
 10136   002A6A  EF39  F015         	goto	u9490
 10137   002A6E                     u9491:
 10138   002A6E  EF05  F015         	goto	l10324
 10139   002A72                     u9490:
 10140   002A72                     l10330:
 10141                           
 10142                           ;ECU_Layer/Chr_LCD/ecu_chr_lcd.c: 286:     return ret;
 10143   002A72  502D               	movf	lcd_8bit_send_string_pos@ret^0,w,c
 10144   002A74  0012               	return		;funcret
 10145   002A76                     __end_of_lcd_8bit_send_string_pos:
 10146                           	callstack 0
 10147                           
 10148 ;; *************** function _lcd_8bit_set_cursor *****************
 10149 ;; Defined at:
 10150 ;;		line 411 in file "ECU_Layer/Chr_LCD/ecu_chr_lcd.c"
 10151 ;; Parameters:    Size  Location     Type
 10152 ;;  lcd             2   32[COMRAM] PTR const struct .
 10153 ;;		 -> lcd_2(10), 
 10154 ;;  row             1   34[COMRAM] unsigned char 
 10155 ;;  coulmn          1   35[COMRAM] unsigned char 
 10156 ;; Auto vars:     Size  Location     Type
 10157 ;;  ret             1    0        unsigned char 
 10158 ;; Return value:  Size  Location     Type
 10159 ;;                  1    wreg      unsigned char 
 10160 ;; Registers used:
 10161 ;;		wreg, fsr2l, fsr2h, status,2, status,0, prodl, prodh, cstack
 10162 ;; Tracked objects:
 10163 ;;		On entry : 0/0
 10164 ;;		On exit  : 0/0
 10165 ;;		Unchanged: 0/0
 10166 ;; Data sizes:     COMRAM   BANK0   BANK1   BANK2   BANK3   BANK4   BANK5   BANK6   BANK7   BANK8   BANK9  BANK10  BANK1
      +1  BANK12  BANK13  BANK14  BANK15
 10167 ;;      Params:         4       0       0       0       0       0       0       0       0       0       0       0       
      +0       0       0       0       0
 10168 ;;      Locals:         0       0       0       0       0       0       0       0       0       0       0       0       
      +0       0       0       0       0
 10169 ;;      Temps:          2       0       0       0       0       0       0       0       0       0       0       0       
      +0       0       0       0       0
 10170 ;;      Totals:         6       0       0       0       0       0       0       0       0       0       0       0       
      +0       0       0       0       0
 10171 ;;Total ram usage:        6 bytes
 10172 ;; Hardware stack levels used: 1
 10173 ;; Hardware stack levels required when called: 7
 10174 ;; This function calls:
 10175 ;;		_lcd_8bit_send_command
 10176 ;; This function is called by:
 10177 ;;		_lcd_8bit_send_string_pos
 10178 ;;		_lcd_8bit_send_char_data_pos
 10179 ;; This function uses a non-reentrant model
 10180 ;;
 10181                           
 10182                           	psect	text52
 10183   002D0C                     __ptext52:
 10184                           	callstack 0
 10185   002D0C                     _lcd_8bit_set_cursor:
 10186                           	callstack 22
 10187   002D0C                     
 10188                           ;ECU_Layer/Chr_LCD/ecu_chr_lcd.c: 413:     coulmn--;
 10189   002D0C  0624               	decf	lcd_8bit_set_cursor@coulmn^0,f,c
 10190                           
 10191                           ;ECU_Layer/Chr_LCD/ecu_chr_lcd.c: 414:     switch(row){
 10192   002D0E  EFB5  F016         	goto	l10128
 10193   002D12                     l10120:
 10194   002D12  C021  F018         	movff	lcd_8bit_set_cursor@lcd,lcd_8bit_send_command@lcd
 10195   002D16  C022  F019         	movff	lcd_8bit_set_cursor@lcd+1,lcd_8bit_send_command@lcd+1
 10196   002D1A  5024               	movf	lcd_8bit_set_cursor@coulmn^0,w,c
 10197   002D1C  0F80               	addlw	128
 10198   002D1E  6E1A               	movwf	lcd_8bit_send_command@command^0,c
 10199   002D20  ECD3  F016         	call	_lcd_8bit_send_command	;wreg free
 10200   002D24  EFD2  F016         	goto	l215
 10201   002D28                     l10122:
 10202   002D28  C021  F018         	movff	lcd_8bit_set_cursor@lcd,lcd_8bit_send_command@lcd
 10203   002D2C  C022  F019         	movff	lcd_8bit_set_cursor@lcd+1,lcd_8bit_send_command@lcd+1
 10204   002D30  5024               	movf	lcd_8bit_set_cursor@coulmn^0,w,c
 10205   002D32  0FC0               	addlw	192
 10206   002D34  6E1A               	movwf	lcd_8bit_send_command@command^0,c
 10207   002D36  ECD3  F016         	call	_lcd_8bit_send_command	;wreg free
 10208   002D3A  EFD2  F016         	goto	l215
 10209   002D3E                     l10124:
 10210   002D3E  C021  F018         	movff	lcd_8bit_set_cursor@lcd,lcd_8bit_send_command@lcd
 10211   002D42  C022  F019         	movff	lcd_8bit_set_cursor@lcd+1,lcd_8bit_send_command@lcd+1
 10212   002D46  5024               	movf	lcd_8bit_set_cursor@coulmn^0,w,c
 10213   002D48  0F94               	addlw	148
 10214   002D4A  6E1A               	movwf	lcd_8bit_send_command@command^0,c
 10215   002D4C  ECD3  F016         	call	_lcd_8bit_send_command	;wreg free
 10216   002D50  EFD2  F016         	goto	l215
 10217   002D54                     l10126:
 10218   002D54  C021  F018         	movff	lcd_8bit_set_cursor@lcd,lcd_8bit_send_command@lcd
 10219   002D58  C022  F019         	movff	lcd_8bit_set_cursor@lcd+1,lcd_8bit_send_command@lcd+1
 10220   002D5C  5024               	movf	lcd_8bit_set_cursor@coulmn^0,w,c
 10221   002D5E  0FD4               	addlw	212
 10222   002D60  6E1A               	movwf	lcd_8bit_send_command@command^0,c
 10223   002D62  ECD3  F016         	call	_lcd_8bit_send_command	;wreg free
 10224   002D66  EFD2  F016         	goto	l215
 10225   002D6A                     l10128:
 10226   002D6A  5023               	movf	lcd_8bit_set_cursor@row^0,w,c
 10227   002D6C  6E25               	movwf	??_lcd_8bit_set_cursor^0,c
 10228   002D6E  6A26               	clrf	(??_lcd_8bit_set_cursor+1)^0,c
 10229                           
 10230                           ; Switch on 2 bytes has been partitioned into a top level switch of size 1, and 1 sub-sw
      +                          itches
 10231                           ; Switch size 1, requested type "simple"
 10232                           ; Number of cases is 1, Range of values is 0 to 0
 10233                           ; switch strategies available:
 10234                           ; Name         Instructions Cycles
 10235                           ; simple_byte            4     3 (average)
 10236                           ;	Chosen strategy is simple_byte
 10237   002D70  5026               	movf	(??_lcd_8bit_set_cursor+1)^0,w,c
 10238   002D72  0A00               	xorlw	0	; case 0
 10239   002D74  B4D8               	btfsc	status,2,c
 10240   002D76  EFBF  F016         	goto	l12008
 10241   002D7A  EFD2  F016         	goto	l215
 10242   002D7E                     l12008:
 10243                           
 10244                           ; Switch size 1, requested type "simple"
 10245                           ; Number of cases is 4, Range of values is 1 to 4
 10246                           ; switch strategies available:
 10247                           ; Name         Instructions Cycles
 10248                           ; simple_byte           13     7 (average)
 10249                           ;	Chosen strategy is simple_byte
 10250   002D7E  5025               	movf	??_lcd_8bit_set_cursor^0,w,c
 10251   002D80  0A01               	xorlw	1	; case 1
 10252   002D82  B4D8               	btfsc	status,2,c
 10253   002D84  EF89  F016         	goto	l10120
 10254   002D88  0A03               	xorlw	3	; case 2
 10255   002D8A  B4D8               	btfsc	status,2,c
 10256   002D8C  EF94  F016         	goto	l10122
 10257   002D90  0A01               	xorlw	1	; case 3
 10258   002D92  B4D8               	btfsc	status,2,c
 10259   002D94  EF9F  F016         	goto	l10124
 10260   002D98  0A07               	xorlw	7	; case 4
 10261   002D9A  B4D8               	btfsc	status,2,c
 10262   002D9C  EFAA  F016         	goto	l10126
 10263   002DA0  EFD2  F016         	goto	l215
 10264   002DA4                     l215:
 10265   002DA4  0012               	return		;funcret
 10266   002DA6                     __end_of_lcd_8bit_set_cursor:
 10267                           	callstack 0
 10268                           
 10269 ;; *************** function _lcd_8bit_send_command *****************
 10270 ;; Defined at:
 10271 ;;		line 200 in file "ECU_Layer/Chr_LCD/ecu_chr_lcd.c"
 10272 ;; Parameters:    Size  Location     Type
 10273 ;;  lcd             2   23[COMRAM] PTR const struct .
 10274 ;;		 -> lcd_2(10), 
 10275 ;;  command         1   25[COMRAM] unsigned char 
 10276 ;; Auto vars:     Size  Location     Type
 10277 ;;  l_pins_count    1   31[COMRAM] unsigned char 
 10278 ;;  ret             1   30[COMRAM] unsigned char 
 10279 ;; Return value:  Size  Location     Type
 10280 ;;                  1    wreg      unsigned char 
 10281 ;; Registers used:
 10282 ;;		wreg, fsr2l, fsr2h, status,2, status,0, prodl, prodh, cstack
 10283 ;; Tracked objects:
 10284 ;;		On entry : 0/0
 10285 ;;		On exit  : 0/0
 10286 ;;		Unchanged: 0/0
 10287 ;; Data sizes:     COMRAM   BANK0   BANK1   BANK2   BANK3   BANK4   BANK5   BANK6   BANK7   BANK8   BANK9  BANK10  BANK1
      +1  BANK12  BANK13  BANK14  BANK15
 10288 ;;      Params:         3       0       0       0       0       0       0       0       0       0       0       0       
      +0       0       0       0       0
 10289 ;;      Locals:         2       0       0       0       0       0       0       0       0       0       0       0       
      +0       0       0       0       0
 10290 ;;      Temps:          4       0       0       0       0       0       0       0       0       0       0       0       
      +0       0       0       0       0
 10291 ;;      Totals:         9       0       0       0       0       0       0       0       0       0       0       0       
      +0       0       0       0       0
 10292 ;;Total ram usage:        9 bytes
 10293 ;; Hardware stack levels used: 1
 10294 ;; Hardware stack levels required when called: 6
 10295 ;; This function calls:
 10296 ;;		_gpio_pin_write_logic
 10297 ;;		_lcd_8bit_send_enable_signal
 10298 ;; This function is called by:
 10299 ;;		_lcd_8bit_initialize
 10300 ;;		_lcd_8bit_set_cursor
 10301 ;;		_main
 10302 ;;		_Read_Password
 10303 ;;		_Check_Password
 10304 ;;		_lcd_8bit_send_custom_char
 10305 ;; This function uses a non-reentrant model
 10306 ;;
 10307                           
 10308                           	psect	text53
 10309   002DA6                     __ptext53:
 10310                           	callstack 0
 10311   002DA6                     _lcd_8bit_send_command:
 10312                           	callstack 22
 10313   002DA6                     
 10314                           ;ECU_Layer/Chr_LCD/ecu_chr_lcd.c: 202:     uint8 l_pins_counter= 0;
 10315   002DA6  0E00               	movlw	0
 10316   002DA8  6E20               	movwf	lcd_8bit_send_command@l_pins_counter^0,c
 10317   002DAA                     
 10318                           ;ECU_Layer/Chr_LCD/ecu_chr_lcd.c: 203:     if(((void*)0) == lcd){
 10319   002DAA  5018               	movf	lcd_8bit_send_command@lcd^0,w,c
 10320   002DAC  1019               	iorwf	(lcd_8bit_send_command@lcd+1)^0,w,c
 10321   002DAE  A4D8               	btfss	status,2,c
 10322   002DB0  EFDC  F016         	goto	u8291
 10323   002DB4  EFDE  F016         	goto	u8290
 10324   002DB8                     u8291:
 10325   002DB8  EFE2  F016         	goto	l9610
 10326   002DBC                     u8290:
 10327   002DBC                     
 10328                           ;ECU_Layer/Chr_LCD/ecu_chr_lcd.c: 204:         ret=(Std_ReturnType)0x01;
 10329   002DBC  0E01               	movlw	1
 10330   002DBE  6E1F               	movwf	lcd_8bit_send_command@ret^0,c
 10331                           
 10332                           ;ECU_Layer/Chr_LCD/ecu_chr_lcd.c: 205:     }
 10333   002DC0  EF19  F017         	goto	l9626
 10334   002DC4                     l9610:
 10335   002DC4  C018  F00C         	movff	lcd_8bit_send_command@lcd,gpio_pin_write_logic@_pin_config
 10336   002DC8  C019  F00D         	movff	lcd_8bit_send_command@lcd+1,gpio_pin_write_logic@_pin_config+1
 10337   002DCC  0E00               	movlw	0
 10338   002DCE  6E0E               	movwf	gpio_pin_write_logic@logic^0,c
 10339   002DD0  ECAB  F00F         	call	_gpio_pin_write_logic	;wreg free
 10340   002DD4                     
 10341                           ;ECU_Layer/Chr_LCD/ecu_chr_lcd.c: 208:         for(l_pins_counter=0;l_pins_counter<8;++l
      +                          _pins_counter){
 10342   002DD4  0E00               	movlw	0
 10343   002DD6  6E20               	movwf	lcd_8bit_send_command@l_pins_counter^0,c
 10344   002DD8                     l9618:
 10345   002DD8  5020               	movf	lcd_8bit_send_command@l_pins_counter^0,w,c
 10346   002DDA  2418               	addwf	lcd_8bit_send_command@lcd^0,w,c
 10347   002DDC  6E1B               	movwf	??_lcd_8bit_send_command^0,c
 10348   002DDE  0E00               	movlw	0
 10349   002DE0  2019               	addwfc	(lcd_8bit_send_command@lcd+1)^0,w,c
 10350   002DE2  6E1C               	movwf	(??_lcd_8bit_send_command+1)^0,c
 10351   002DE4  0E02               	movlw	2
 10352   002DE6  241B               	addwf	??_lcd_8bit_send_command^0,w,c
 10353   002DE8  6E0C               	movwf	gpio_pin_write_logic@_pin_config^0,c
 10354   002DEA  0E00               	movlw	0
 10355   002DEC  201C               	addwfc	(??_lcd_8bit_send_command+1)^0,w,c
 10356   002DEE  6E0D               	movwf	(gpio_pin_write_logic@_pin_config+1)^0,c
 10357   002DF0  C020  F01D         	movff	lcd_8bit_send_command@l_pins_counter,??_lcd_8bit_send_command+2
 10358   002DF4  C01A  F01E         	movff	lcd_8bit_send_command@command,??_lcd_8bit_send_command+3
 10359   002DF8  2A1D               	incf	(??_lcd_8bit_send_command+2)^0,f,c
 10360   002DFA  EF01  F017         	goto	u8304
 10361   002DFE                     u8305:
 10362   002DFE  90D8               	bcf	status,0,c
 10363   002E00  321E               	rrcf	(??_lcd_8bit_send_command+3)^0,f,c
 10364   002E02                     u8304:
 10365   002E02  2E1D               	decfsz	(??_lcd_8bit_send_command+2)^0,f,c
 10366   002E04  EFFF  F016         	goto	u8305
 10367   002E08  501E               	movf	(??_lcd_8bit_send_command+3)^0,w,c
 10368   002E0A  0B01               	andlw	1
 10369   002E0C  6E0E               	movwf	gpio_pin_write_logic@logic^0,c
 10370   002E0E  ECAB  F00F         	call	_gpio_pin_write_logic	;wreg free
 10371   002E12                     
 10372                           ;ECU_Layer/Chr_LCD/ecu_chr_lcd.c: 211:         }
 10373   002E12  2A20               	incf	lcd_8bit_send_command@l_pins_counter^0,f,c
 10374   002E14  0E07               	movlw	7
 10375   002E16  6420               	cpfsgt	lcd_8bit_send_command@l_pins_counter^0,c
 10376   002E18  EF10  F017         	goto	u8311
 10377   002E1C  EF12  F017         	goto	u8310
 10378   002E20                     u8311:
 10379   002E20  EFEC  F016         	goto	l9618
 10380   002E24                     u8310:
 10381   002E24                     
 10382                           ;ECU_Layer/Chr_LCD/ecu_chr_lcd.c: 212:         ret=lcd_8bit_send_enable_signal(lcd);
 10383   002E24  C018  F015         	movff	lcd_8bit_send_command@lcd,lcd_8bit_send_enable_signal@lcd
 10384   002E28  C019  F016         	movff	lcd_8bit_send_command@lcd+1,lcd_8bit_send_enable_signal@lcd+1
 10385   002E2C  ECE3  F01B         	call	_lcd_8bit_send_enable_signal	;wreg free
 10386   002E30  6E1F               	movwf	lcd_8bit_send_command@ret^0,c
 10387   002E32                     l9626:
 10388                           
 10389                           ;ECU_Layer/Chr_LCD/ecu_chr_lcd.c: 218:     return ret;
 10390   002E32  501F               	movf	lcd_8bit_send_command@ret^0,w,c
 10391   002E34  0012               	return		;funcret
 10392   002E36                     __end_of_lcd_8bit_send_command:
 10393                           	callstack 0
 10394                           
 10395 ;; *************** function _lcd_8bit_send_char_data *****************
 10396 ;; Defined at:
 10397 ;;		line 222 in file "ECU_Layer/Chr_LCD/ecu_chr_lcd.c"
 10398 ;; Parameters:    Size  Location     Type
 10399 ;;  lcd             2   23[COMRAM] PTR const struct .
 10400 ;;		 -> lcd_2(10), 
 10401 ;;  data            1   25[COMRAM] unsigned char 
 10402 ;; Auto vars:     Size  Location     Type
 10403 ;;  l_pins_count    1   31[COMRAM] unsigned char 
 10404 ;;  ret             1   30[COMRAM] unsigned char 
 10405 ;; Return value:  Size  Location     Type
 10406 ;;                  1    wreg      unsigned char 
 10407 ;; Registers used:
 10408 ;;		wreg, fsr2l, fsr2h, status,2, status,0, prodl, prodh, cstack
 10409 ;; Tracked objects:
 10410 ;;		On entry : 0/0
 10411 ;;		On exit  : 0/0
 10412 ;;		Unchanged: 0/0
 10413 ;; Data sizes:     COMRAM   BANK0   BANK1   BANK2   BANK3   BANK4   BANK5   BANK6   BANK7   BANK8   BANK9  BANK10  BANK1
      +1  BANK12  BANK13  BANK14  BANK15
 10414 ;;      Params:         3       0       0       0       0       0       0       0       0       0       0       0       
      +0       0       0       0       0
 10415 ;;      Locals:         2       0       0       0       0       0       0       0       0       0       0       0       
      +0       0       0       0       0
 10416 ;;      Temps:          4       0       0       0       0       0       0       0       0       0       0       0       
      +0       0       0       0       0
 10417 ;;      Totals:         9       0       0       0       0       0       0       0       0       0       0       0       
      +0       0       0       0       0
 10418 ;;Total ram usage:        9 bytes
 10419 ;; Hardware stack levels used: 1
 10420 ;; Hardware stack levels required when called: 6
 10421 ;; This function calls:
 10422 ;;		_gpio_pin_write_logic
 10423 ;;		_lcd_8bit_send_enable_signal
 10424 ;; This function is called by:
 10425 ;;		_lcd_8bit_send_string_pos
 10426 ;;		_lcd_8bit_send_char_data_pos
 10427 ;;		_lcd_8bit_send_string
 10428 ;;		_lcd_8bit_send_custom_char
 10429 ;; This function uses a non-reentrant model
 10430 ;;
 10431                           
 10432                           	psect	text54
 10433   002E36                     __ptext54:
 10434                           	callstack 0
 10435   002E36                     _lcd_8bit_send_char_data:
 10436                           	callstack 23
 10437   002E36                     
 10438                           ;ECU_Layer/Chr_LCD/ecu_chr_lcd.c: 224:     uint8 l_pins_counter= 0;
 10439   002E36  0E00               	movlw	0
 10440   002E38  6E20               	movwf	lcd_8bit_send_char_data@l_pins_counter^0,c
 10441   002E3A                     
 10442                           ;ECU_Layer/Chr_LCD/ecu_chr_lcd.c: 225:     if(((void*)0) == lcd){
 10443   002E3A  5018               	movf	lcd_8bit_send_char_data@lcd^0,w,c
 10444   002E3C  1019               	iorwf	(lcd_8bit_send_char_data@lcd+1)^0,w,c
 10445   002E3E  A4D8               	btfss	status,2,c
 10446   002E40  EF24  F017         	goto	u9171
 10447   002E44  EF26  F017         	goto	u9170
 10448   002E48                     u9171:
 10449   002E48  EF2A  F017         	goto	l10096
 10450   002E4C                     u9170:
 10451   002E4C                     
 10452                           ;ECU_Layer/Chr_LCD/ecu_chr_lcd.c: 226:         ret=(Std_ReturnType)0x01;
 10453   002E4C  0E01               	movlw	1
 10454   002E4E  6E1F               	movwf	lcd_8bit_send_char_data@ret^0,c
 10455                           
 10456                           ;ECU_Layer/Chr_LCD/ecu_chr_lcd.c: 227:     }
 10457   002E50  EF61  F017         	goto	l10112
 10458   002E54                     l10096:
 10459   002E54  C018  F00C         	movff	lcd_8bit_send_char_data@lcd,gpio_pin_write_logic@_pin_config
 10460   002E58  C019  F00D         	movff	lcd_8bit_send_char_data@lcd+1,gpio_pin_write_logic@_pin_config+1
 10461   002E5C  0E01               	movlw	1
 10462   002E5E  6E0E               	movwf	gpio_pin_write_logic@logic^0,c
 10463   002E60  ECAB  F00F         	call	_gpio_pin_write_logic	;wreg free
 10464   002E64                     
 10465                           ;ECU_Layer/Chr_LCD/ecu_chr_lcd.c: 230:         for(l_pins_counter=0;l_pins_counter<8; ++
      +                          l_pins_counter){
 10466   002E64  0E00               	movlw	0
 10467   002E66  6E20               	movwf	lcd_8bit_send_char_data@l_pins_counter^0,c
 10468   002E68                     l10104:
 10469   002E68  5020               	movf	lcd_8bit_send_char_data@l_pins_counter^0,w,c
 10470   002E6A  2418               	addwf	lcd_8bit_send_char_data@lcd^0,w,c
 10471   002E6C  6E1B               	movwf	??_lcd_8bit_send_char_data^0,c
 10472   002E6E  0E00               	movlw	0
 10473   002E70  2019               	addwfc	(lcd_8bit_send_char_data@lcd+1)^0,w,c
 10474   002E72  6E1C               	movwf	(??_lcd_8bit_send_char_data+1)^0,c
 10475   002E74  0E02               	movlw	2
 10476   002E76  241B               	addwf	??_lcd_8bit_send_char_data^0,w,c
 10477   002E78  6E0C               	movwf	gpio_pin_write_logic@_pin_config^0,c
 10478   002E7A  0E00               	movlw	0
 10479   002E7C  201C               	addwfc	(??_lcd_8bit_send_char_data+1)^0,w,c
 10480   002E7E  6E0D               	movwf	(gpio_pin_write_logic@_pin_config+1)^0,c
 10481   002E80  C020  F01D         	movff	lcd_8bit_send_char_data@l_pins_counter,??_lcd_8bit_send_char_data+2
 10482   002E84  C01A  F01E         	movff	lcd_8bit_send_char_data@data,??_lcd_8bit_send_char_data+3
 10483   002E88  2A1D               	incf	(??_lcd_8bit_send_char_data+2)^0,f,c
 10484   002E8A  EF49  F017         	goto	u9184
 10485   002E8E                     u9185:
 10486   002E8E  90D8               	bcf	status,0,c
 10487   002E90  321E               	rrcf	(??_lcd_8bit_send_char_data+3)^0,f,c
 10488   002E92                     u9184:
 10489   002E92  2E1D               	decfsz	(??_lcd_8bit_send_char_data+2)^0,f,c
 10490   002E94  EF47  F017         	goto	u9185
 10491   002E98  501E               	movf	(??_lcd_8bit_send_char_data+3)^0,w,c
 10492   002E9A  0B01               	andlw	1
 10493   002E9C  6E0E               	movwf	gpio_pin_write_logic@logic^0,c
 10494   002E9E  ECAB  F00F         	call	_gpio_pin_write_logic	;wreg free
 10495   002EA2                     
 10496                           ;ECU_Layer/Chr_LCD/ecu_chr_lcd.c: 233:         }
 10497   002EA2  2A20               	incf	lcd_8bit_send_char_data@l_pins_counter^0,f,c
 10498   002EA4  0E07               	movlw	7
 10499   002EA6  6420               	cpfsgt	lcd_8bit_send_char_data@l_pins_counter^0,c
 10500   002EA8  EF58  F017         	goto	u9191
 10501   002EAC  EF5A  F017         	goto	u9190
 10502   002EB0                     u9191:
 10503   002EB0  EF34  F017         	goto	l10104
 10504   002EB4                     u9190:
 10505   002EB4                     
 10506                           ;ECU_Layer/Chr_LCD/ecu_chr_lcd.c: 234:         ret=lcd_8bit_send_enable_signal(lcd);
 10507   002EB4  C018  F015         	movff	lcd_8bit_send_char_data@lcd,lcd_8bit_send_enable_signal@lcd
 10508   002EB8  C019  F016         	movff	lcd_8bit_send_char_data@lcd+1,lcd_8bit_send_enable_signal@lcd+1
 10509   002EBC  ECE3  F01B         	call	_lcd_8bit_send_enable_signal	;wreg free
 10510   002EC0  6E1F               	movwf	lcd_8bit_send_char_data@ret^0,c
 10511   002EC2                     l10112:
 10512                           
 10513                           ;ECU_Layer/Chr_LCD/ecu_chr_lcd.c: 238:     return ret;
 10514   002EC2  501F               	movf	lcd_8bit_send_char_data@ret^0,w,c
 10515   002EC4  0012               	return		;funcret
 10516   002EC6                     __end_of_lcd_8bit_send_char_data:
 10517                           	callstack 0
 10518                           
 10519 ;; *************** function _lcd_8bit_send_enable_signal *****************
 10520 ;; Defined at:
 10521 ;;		line 401 in file "ECU_Layer/Chr_LCD/ecu_chr_lcd.c"
 10522 ;; Parameters:    Size  Location     Type
 10523 ;;  lcd             2   20[COMRAM] PTR const struct .
 10524 ;;		 -> lcd_2(10), 
 10525 ;; Auto vars:     Size  Location     Type
 10526 ;;  ret             1   22[COMRAM] unsigned char 
 10527 ;; Return value:  Size  Location     Type
 10528 ;;                  1    wreg      unsigned char 
 10529 ;; Registers used:
 10530 ;;		wreg, fsr2l, fsr2h, status,2, status,0, prodl, prodh, cstack
 10531 ;; Tracked objects:
 10532 ;;		On entry : 0/0
 10533 ;;		On exit  : 0/0
 10534 ;;		Unchanged: 0/0
 10535 ;; Data sizes:     COMRAM   BANK0   BANK1   BANK2   BANK3   BANK4   BANK5   BANK6   BANK7   BANK8   BANK9  BANK10  BANK1
      +1  BANK12  BANK13  BANK14  BANK15
 10536 ;;      Params:         2       0       0       0       0       0       0       0       0       0       0       0       
      +0       0       0       0       0
 10537 ;;      Locals:         1       0       0       0       0       0       0       0       0       0       0       0       
      +0       0       0       0       0
 10538 ;;      Temps:          0       0       0       0       0       0       0       0       0       0       0       0       
      +0       0       0       0       0
 10539 ;;      Totals:         3       0       0       0       0       0       0       0       0       0       0       0       
      +0       0       0       0       0
 10540 ;;Total ram usage:        3 bytes
 10541 ;; Hardware stack levels used: 1
 10542 ;; Hardware stack levels required when called: 5
 10543 ;; This function calls:
 10544 ;;		_gpio_pin_write_logic
 10545 ;; This function is called by:
 10546 ;;		_lcd_8bit_send_command
 10547 ;;		_lcd_8bit_send_char_data
 10548 ;; This function uses a non-reentrant model
 10549 ;;
 10550                           
 10551                           	psect	text55
 10552   0037C6                     __ptext55:
 10553                           	callstack 0
 10554   0037C6                     _lcd_8bit_send_enable_signal:
 10555                           	callstack 22
 10556   0037C6  0E01               	movlw	1
 10557   0037C8  2415               	addwf	lcd_8bit_send_enable_signal@lcd^0,w,c
 10558   0037CA  6E0C               	movwf	gpio_pin_write_logic@_pin_config^0,c
 10559   0037CC  0E00               	movlw	0
 10560   0037CE  2016               	addwfc	(lcd_8bit_send_enable_signal@lcd+1)^0,w,c
 10561   0037D0  6E0D               	movwf	(gpio_pin_write_logic@_pin_config+1)^0,c
 10562   0037D2  0E01               	movlw	1
 10563   0037D4  6E0E               	movwf	gpio_pin_write_logic@logic^0,c
 10564   0037D6  ECAB  F00F         	call	_gpio_pin_write_logic	;wreg free
 10565   0037DA                     
 10566                           ;ECU_Layer/Chr_LCD/ecu_chr_lcd.c: 405:     _delay((unsigned long)((5)*(4000000UL/4000000
      +                          .0)));
 10567   0037DA  D000               	nop2		;2 cycle nop
 10568   0037DC  D000               	nop2		;2 cycle nop
 10569   0037DE  F000               	nop	
 10570   0037E0                     
 10571                           ;ECU_Layer/Chr_LCD/ecu_chr_lcd.c: 406:     ret=gpio_pin_write_logic(&(lcd->lcd_en),GPIO_
      +                          LOW);
 10572   0037E0  0E01               	movlw	1
 10573   0037E2  2415               	addwf	lcd_8bit_send_enable_signal@lcd^0,w,c
 10574   0037E4  6E0C               	movwf	gpio_pin_write_logic@_pin_config^0,c
 10575   0037E6  0E00               	movlw	0
 10576   0037E8  2016               	addwfc	(lcd_8bit_send_enable_signal@lcd+1)^0,w,c
 10577   0037EA  6E0D               	movwf	(gpio_pin_write_logic@_pin_config+1)^0,c
 10578   0037EC  0E00               	movlw	0
 10579   0037EE  6E0E               	movwf	gpio_pin_write_logic@logic^0,c
 10580   0037F0  ECAB  F00F         	call	_gpio_pin_write_logic	;wreg free
 10581   0037F4  6E17               	movwf	lcd_8bit_send_enable_signal@ret^0,c
 10582                           
 10583                           ;ECU_Layer/Chr_LCD/ecu_chr_lcd.c: 408:     return ret;
 10584   0037F6  5017               	movf	lcd_8bit_send_enable_signal@ret^0,w,c
 10585   0037F8  0012               	return		;funcret
 10586   0037FA                     __end_of_lcd_8bit_send_enable_signal:
 10587                           	callstack 0
 10588                           
 10589 ;; *************** function _keypad_get_value *****************
 10590 ;; Defined at:
 10591 ;;		line 55 in file "ECU_Layer/Keypad/ecu_keypad.c"
 10592 ;; Parameters:    Size  Location     Type
 10593 ;;  _keypad_obj     2   20[COMRAM] PTR const struct .
 10594 ;;		 -> keypad1(8), 
 10595 ;;  value           2   22[COMRAM] PTR unsigned char 
 10596 ;;		 -> keypadvalue(1), 
 10597 ;; Auto vars:     Size  Location     Type
 10598 ;;  l_coulmns_co    1   30[COMRAM] unsigned char 
 10599 ;;  l_rows_count    1   29[COMRAM] unsigned char 
 10600 ;;  l_counter       1   28[COMRAM] unsigned char 
 10601 ;;  coulmn_logic    1   27[COMRAM] unsigned char 
 10602 ;;  ret             1   26[COMRAM] unsigned char 
 10603 ;; Return value:  Size  Location     Type
 10604 ;;                  1    wreg      unsigned char 
 10605 ;; Registers used:
 10606 ;;		wreg, fsr2l, fsr2h, status,2, status,0, tblptrl, tblptrh, tblptru, prodl, prodh, cstack
 10607 ;; Tracked objects:
 10608 ;;		On entry : 0/0
 10609 ;;		On exit  : 0/0
 10610 ;;		Unchanged: 0/0
 10611 ;; Data sizes:     COMRAM   BANK0   BANK1   BANK2   BANK3   BANK4   BANK5   BANK6   BANK7   BANK8   BANK9  BANK10  BANK1
      +1  BANK12  BANK13  BANK14  BANK15
 10612 ;;      Params:         4       0       0       0       0       0       0       0       0       0       0       0       
      +0       0       0       0       0
 10613 ;;      Locals:         5       0       0       0       0       0       0       0       0       0       0       0       
      +0       0       0       0       0
 10614 ;;      Temps:          2       0       0       0       0       0       0       0       0       0       0       0       
      +0       0       0       0       0
 10615 ;;      Totals:        11       0       0       0       0       0       0       0       0       0       0       0       
      +0       0       0       0       0
 10616 ;;Total ram usage:       11 bytes
 10617 ;; Hardware stack levels used: 1
 10618 ;; Hardware stack levels required when called: 5
 10619 ;; This function calls:
 10620 ;;		_gpio_pin_read_logic
 10621 ;;		_gpio_pin_write_logic
 10622 ;; This function is called by:
 10623 ;;		_main
 10624 ;;		_Read_Password
 10625 ;; This function uses a non-reentrant model
 10626 ;;
 10627                           
 10628                           	psect	text56
 10629   00219C                     __ptext56:
 10630                           	callstack 0
 10631   00219C                     _keypad_get_value:
 10632                           	callstack 25
 10633   00219C                     
 10634                           ;ECU_Layer/Keypad/ecu_keypad.c: 58:     uint8 coulmn_logic=0 ;
 10635   00219C  0E00               	movlw	0
 10636   00219E  6E1C               	movwf	keypad_get_value@coulmn_logic^0,c
 10637                           
 10638                           ;ECU_Layer/Keypad/ecu_keypad.c: 59:     uint8 l_rows_counter=0,l_coulmns_counter=0 ,l_co
      +                          unter=0;
 10639   0021A0  0E00               	movlw	0
 10640   0021A2  6E1E               	movwf	keypad_get_value@l_rows_counter^0,c
 10641   0021A4  0E00               	movlw	0
 10642   0021A6  6E1F               	movwf	keypad_get_value@l_coulmns_counter^0,c
 10643   0021A8  0E00               	movlw	0
 10644   0021AA  6E1D               	movwf	keypad_get_value@l_counter^0,c
 10645   0021AC                     
 10646                           ;ECU_Layer/Keypad/ecu_keypad.c: 60:     if((((void*)0) == _keypad_obj) || (((void*)0) ==
      +                          value)){
 10647   0021AC  5015               	movf	keypad_get_value@_keypad_obj^0,w,c
 10648   0021AE  1016               	iorwf	(keypad_get_value@_keypad_obj+1)^0,w,c
 10649   0021B0  B4D8               	btfsc	status,2,c
 10650   0021B2  EFDD  F010         	goto	u9531
 10651   0021B6  EFDF  F010         	goto	u9530
 10652   0021BA                     u9531:
 10653   0021BA  EFE8  F010         	goto	l10374
 10654   0021BE                     u9530:
 10655   0021BE  5017               	movf	keypad_get_value@value^0,w,c
 10656   0021C0  1018               	iorwf	(keypad_get_value@value+1)^0,w,c
 10657   0021C2  A4D8               	btfss	status,2,c
 10658   0021C4  EFE6  F010         	goto	u9541
 10659   0021C8  EFE8  F010         	goto	u9540
 10660   0021CC                     u9541:
 10661   0021CC  EFEC  F010         	goto	l10376
 10662   0021D0                     u9540:
 10663   0021D0                     l10374:
 10664                           
 10665                           ;ECU_Layer/Keypad/ecu_keypad.c: 61:         ret=(Std_ReturnType)0x01;
 10666   0021D0  0E01               	movlw	1
 10667   0021D2  6E1B               	movwf	keypad_get_value@ret^0,c
 10668                           
 10669                           ;ECU_Layer/Keypad/ecu_keypad.c: 62:     }
 10670   0021D4  EF54  F011         	goto	l10416
 10671   0021D8                     l10376:
 10672                           
 10673                           ;ECU_Layer/Keypad/ecu_keypad.c: 64:         for(l_rows_counter=0;l_rows_counter < 4;l_ro
      +                          ws_counter++){
 10674   0021D8  0E00               	movlw	0
 10675   0021DA  6E1E               	movwf	keypad_get_value@l_rows_counter^0,c
 10676   0021DC                     l10382:
 10677                           
 10678                           ;ECU_Layer/Keypad/ecu_keypad.c: 65:             for(l_counter=0;l_counter < 4;l_counter+
      +                          +){
 10679   0021DC  0E00               	movlw	0
 10680   0021DE  6E1D               	movwf	keypad_get_value@l_counter^0,c
 10681   0021E0                     l10388:
 10682   0021E0  501D               	movf	keypad_get_value@l_counter^0,w,c
 10683   0021E2  2415               	addwf	keypad_get_value@_keypad_obj^0,w,c
 10684   0021E4  6E0C               	movwf	gpio_pin_write_logic@_pin_config^0,c
 10685   0021E6  0E00               	movlw	0
 10686   0021E8  2016               	addwfc	(keypad_get_value@_keypad_obj+1)^0,w,c
 10687   0021EA  6E0D               	movwf	(gpio_pin_write_logic@_pin_config+1)^0,c
 10688   0021EC  0E00               	movlw	0
 10689   0021EE  6E0E               	movwf	gpio_pin_write_logic@logic^0,c
 10690   0021F0  ECAB  F00F         	call	_gpio_pin_write_logic	;wreg free
 10691   0021F4                     
 10692                           ;ECU_Layer/Keypad/ecu_keypad.c: 68:             }
 10693   0021F4  2A1D               	incf	keypad_get_value@l_counter^0,f,c
 10694   0021F6  0E03               	movlw	3
 10695   0021F8  641D               	cpfsgt	keypad_get_value@l_counter^0,c
 10696   0021FA  EF01  F011         	goto	u9551
 10697   0021FE  EF03  F011         	goto	u9550
 10698   002202                     u9551:
 10699   002202  EFF0  F010         	goto	l10388
 10700   002206                     u9550:
 10701   002206                     
 10702                           ;ECU_Layer/Keypad/ecu_keypad.c: 69:              gpio_pin_write_logic(&(_keypad_obj->key
      +                          pad_row_pins[l_rows_counter]),GPIO_HIGH);
 10703   002206  501E               	movf	keypad_get_value@l_rows_counter^0,w,c
 10704   002208  2415               	addwf	keypad_get_value@_keypad_obj^0,w,c
 10705   00220A  6E0C               	movwf	gpio_pin_write_logic@_pin_config^0,c
 10706   00220C  0E00               	movlw	0
 10707   00220E  2016               	addwfc	(keypad_get_value@_keypad_obj+1)^0,w,c
 10708   002210  6E0D               	movwf	(gpio_pin_write_logic@_pin_config+1)^0,c
 10709   002212  0E01               	movlw	1
 10710   002214  6E0E               	movwf	gpio_pin_write_logic@logic^0,c
 10711   002216  ECAB  F00F         	call	_gpio_pin_write_logic	;wreg free
 10712   00221A                     
 10713                           ;ECU_Layer/Keypad/ecu_keypad.c: 71:              for(l_coulmns_counter=0;l_coulmns_count
      +                          er < 4;l_coulmns_counter++){
 10714   00221A  0E00               	movlw	0
 10715   00221C  6E1F               	movwf	keypad_get_value@l_coulmns_counter^0,c
 10716   00221E                     l10402:
 10717                           
 10718                           ;ECU_Layer/Keypad/ecu_keypad.c: 72:                ret= gpio_pin_read_logic(&(_keypad_ob
      +                          j->keypad_coulmn_pins[l_coulmns_counter]) ,& coulmn_logic);
 10719   00221E  501F               	movf	keypad_get_value@l_coulmns_counter^0,w,c
 10720   002220  2415               	addwf	keypad_get_value@_keypad_obj^0,w,c
 10721   002222  6E19               	movwf	??_keypad_get_value^0,c
 10722   002224  0E00               	movlw	0
 10723   002226  2016               	addwfc	(keypad_get_value@_keypad_obj+1)^0,w,c
 10724   002228  6E1A               	movwf	(??_keypad_get_value+1)^0,c
 10725   00222A  0E04               	movlw	4
 10726   00222C  2419               	addwf	??_keypad_get_value^0,w,c
 10727   00222E  6E0C               	movwf	gpio_pin_read_logic@_pin_config^0,c
 10728   002230  0E00               	movlw	0
 10729   002232  201A               	addwfc	(??_keypad_get_value+1)^0,w,c
 10730   002234  6E0D               	movwf	(gpio_pin_read_logic@_pin_config+1)^0,c
 10731   002236  0E1C               	movlw	low keypad_get_value@coulmn_logic
 10732   002238  6E0E               	movwf	gpio_pin_read_logic@logic^0,c
 10733   00223A  0E00               	movlw	high keypad_get_value@coulmn_logic
 10734   00223C  6E0F               	movwf	(gpio_pin_read_logic@logic+1)^0,c
 10735   00223E  EC3B  F015         	call	_gpio_pin_read_logic	;wreg free
 10736   002242  6E1B               	movwf	keypad_get_value@ret^0,c
 10737   002244                     
 10738                           ;ECU_Layer/Keypad/ecu_keypad.c: 74:                if(GPIO_HIGH == coulmn_logic){
 10739   002244  041C               	decf	keypad_get_value@coulmn_logic^0,w,c
 10740   002246  A4D8               	btfss	status,2,c
 10741   002248  EF28  F011         	goto	u9561
 10742   00224C  EF2A  F011         	goto	u9560
 10743   002250                     u9561:
 10744   002250  EF42  F011         	goto	l10408
 10745   002254                     u9560:
 10746   002254                     
 10747                           ;ECU_Layer/Keypad/ecu_keypad.c: 75:                    *value= btn_value[l_rows_counter]
      +                          [l_coulmns_counter];
 10748   002254  501E               	movf	keypad_get_value@l_rows_counter^0,w,c
 10749   002256  0D04               	mullw	4
 10750   002258  0EB3               	movlw	low _btn_value
 10751   00225A  24F3               	addwf	243,w,c
 10752   00225C  6E19               	movwf	??_keypad_get_value^0,c
 10753   00225E  0EFE               	movlw	high _btn_value
 10754   002260  20F4               	addwfc	prodh,w,c
 10755   002262  6E1A               	movwf	(??_keypad_get_value+1)^0,c
 10756   002264  501F               	movf	keypad_get_value@l_coulmns_counter^0,w,c
 10757   002266  2619               	addwf	??_keypad_get_value^0,f,c
 10758   002268  0E00               	movlw	0
 10759   00226A  221A               	addwfc	(??_keypad_get_value+1)^0,f,c
 10760   00226C  C019  FFF6         	movff	??_keypad_get_value,tblptrl
 10761   002270  C01A  FFF7         	movff	??_keypad_get_value+1,tblptrh
 10762   002274                     	if	1	;Program memory is < 0x10000, tblptru is always zero
 10763   002274  6AF8               	clrf	tblptru,c
 10764   002276                     	endif
 10765   002276                     	if	0	;tblptru may be non-zero
 10766   002276                     	endif
 10767   002276  C017  FFD9         	movff	keypad_get_value@value,fsr2l
 10768   00227A  C018  FFDA         	movff	keypad_get_value@value+1,fsr2h
 10769   00227E  0008               	tblrd		*
 10770   002280  CFF5 FFDF          	movff	tablat,indf2
 10771   002284                     l10408:
 10772                           
 10773                           ;ECU_Layer/Keypad/ecu_keypad.c: 77:              }
 10774   002284  2A1F               	incf	keypad_get_value@l_coulmns_counter^0,f,c
 10775   002286  0E03               	movlw	3
 10776   002288  641F               	cpfsgt	keypad_get_value@l_coulmns_counter^0,c
 10777   00228A  EF49  F011         	goto	u9571
 10778   00228E  EF4B  F011         	goto	u9570
 10779   002292                     u9571:
 10780   002292  EF0F  F011         	goto	l10402
 10781   002296                     u9570:
 10782   002296                     
 10783                           ;ECU_Layer/Keypad/ecu_keypad.c: 80:     }
 10784   002296  2A1E               	incf	keypad_get_value@l_rows_counter^0,f,c
 10785   002298  0E03               	movlw	3
 10786   00229A  641E               	cpfsgt	keypad_get_value@l_rows_counter^0,c
 10787   00229C  EF52  F011         	goto	u9581
 10788   0022A0  EF54  F011         	goto	u9580
 10789   0022A4                     u9581:
 10790   0022A4  EFEE  F010         	goto	l10382
 10791   0022A8                     u9580:
 10792   0022A8                     l10416:
 10793                           
 10794                           ;ECU_Layer/Keypad/ecu_keypad.c: 83:     return ret;
 10795   0022A8  501B               	movf	keypad_get_value@ret^0,w,c
 10796   0022AA  0012               	return		;funcret
 10797   0022AC                     __end_of_keypad_get_value:
 10798                           	callstack 0
 10799                           
 10800 ;; *************** function _gpio_pin_write_logic *****************
 10801 ;; Defined at:
 10802 ;;		line 77 in file "MCAL_Layer/GPIO/hal_gpio.c"
 10803 ;; Parameters:    Size  Location     Type
 10804 ;;  _pin_config     2   11[COMRAM] PTR const struct .
 10805 ;;		 -> ccp2_obj(11), ccp1_obj(11), keypad1.keypad_row_pins(4), keypad1(8), 
 10806 ;;		 -> lcd_2.lcd_data(8), relay_turn_off@pin_obj(1), relay_turn_on@pin_obj(1), relay_initialize@pin_obj(1), 
 10807 ;;		 -> lcd_2(10), led_turn_off@pin_obj(1), led_turn_on@pin_obj(1), led_initialize@pin_obj(1), 
 10808 ;;  logic           1   13[COMRAM] enum E2968
 10809 ;; Auto vars:     Size  Location     Type
 10810 ;;  ret             1    0        unsigned char 
 10811 ;; Return value:  Size  Location     Type
 10812 ;;                  1    wreg      unsigned char 
 10813 ;; Registers used:
 10814 ;;		wreg, fsr2l, fsr2h, status,2, status,0, prodl, prodh
 10815 ;; Tracked objects:
 10816 ;;		On entry : 0/0
 10817 ;;		On exit  : 0/0
 10818 ;;		Unchanged: 0/0
 10819 ;; Data sizes:     COMRAM   BANK0   BANK1   BANK2   BANK3   BANK4   BANK5   BANK6   BANK7   BANK8   BANK9  BANK10  BANK1
      +1  BANK12  BANK13  BANK14  BANK15
 10820 ;;      Params:         3       0       0       0       0       0       0       0       0       0       0       0       
      +0       0       0       0       0
 10821 ;;      Locals:         0       0       0       0       0       0       0       0       0       0       0       0       
      +0       0       0       0       0
 10822 ;;      Temps:          6       0       0       0       0       0       0       0       0       0       0       0       
      +0       0       0       0       0
 10823 ;;      Totals:         9       0       0       0       0       0       0       0       0       0       0       0       
      +0       0       0       0       0
 10824 ;;Total ram usage:        9 bytes
 10825 ;; Hardware stack levels used: 1
 10826 ;; Hardware stack levels required when called: 4
 10827 ;; This function calls:
 10828 ;;		Nothing
 10829 ;; This function is called by:
 10830 ;;		_lcd_8bit_send_command
 10831 ;;		_lcd_8bit_send_char_data
 10832 ;;		_lcd_8bit_send_enable_signal
 10833 ;;		_keypad_get_value
 10834 ;;		_led_turn_on
 10835 ;;		_relay_turn_on
 10836 ;;		_gpio_pin_intialize
 10837 ;;		_seven_segment_write_number
 10838 ;;		_lcd_4bit_send_command
 10839 ;;		_lcd_4bit_send_char_data
 10840 ;;		_lcd_send_4bits
 10841 ;;		_lcd_4bit_send_enable_signal
 10842 ;;		_dc_motor_move_right
 10843 ;;		_dc_motor_move_left
 10844 ;;		_dc_motor_stop
 10845 ;;		_led_turn_off
 10846 ;;		_relay_turn_off
 10847 ;; This function uses a non-reentrant model
 10848 ;;
 10849                           
 10850                           	psect	text57
 10851   001F56                     __ptext57:
 10852                           	callstack 0
 10853   001F56                     _gpio_pin_write_logic:
 10854                           	callstack 25
 10855   001F56                     
 10856                           ;MCAL_Layer/GPIO/hal_gpio.c: 79:     if(((void*)0)==_pin_config || _pin_config->pin >8 -
      +                          1){
 10857   001F56  500C               	movf	gpio_pin_write_logic@_pin_config^0,w,c
 10858   001F58  100D               	iorwf	(gpio_pin_write_logic@_pin_config+1)^0,w,c
 10859   001F5A  B4D8               	btfsc	status,2,c
 10860   001F5C  EFB2  F00F         	goto	u8191
 10861   001F60  EFB4  F00F         	goto	u8190
 10862   001F64                     u8191:
 10863   001F64  EFC5  F00F         	goto	l9552
 10864   001F68                     u8190:
 10865   001F68  C00C  FFD9         	movff	gpio_pin_write_logic@_pin_config,fsr2l
 10866   001F6C  C00D  FFDA         	movff	gpio_pin_write_logic@_pin_config+1,fsr2h
 10867   001F70  30DF               	rrcf	223,w,c
 10868   001F72  32E8               	rrcf	wreg,f,c
 10869   001F74  32E8               	rrcf	wreg,f,c
 10870   001F76  0B07               	andlw	7
 10871   001F78  6E0F               	movwf	??_gpio_pin_write_logic^0,c
 10872   001F7A  0E07               	movlw	7
 10873   001F7C  640F               	cpfsgt	??_gpio_pin_write_logic^0,c
 10874   001F7E  EFC3  F00F         	goto	u8201
 10875   001F82  EFC5  F00F         	goto	u8200
 10876   001F86                     u8201:
 10877   001F86  EF26  F010         	goto	l9560
 10878   001F8A                     u8200:
 10879   001F8A                     l9552:
 10880                           
 10881                           ;MCAL_Layer/GPIO/hal_gpio.c: 81:     }
 10882   001F8A  EF3B  F010         	goto	l9562
 10883   001F8E                     l9554:
 10884                           
 10885                           ;MCAL_Layer/GPIO/hal_gpio.c: 85:                 (*lat_registers[_pin_config->port] |= (
      +                          (uint8)1<<_pin_config->pin));
 10886   001F8E  C00C  FFD9         	movff	gpio_pin_write_logic@_pin_config,fsr2l
 10887   001F92  C00D  FFDA         	movff	gpio_pin_write_logic@_pin_config+1,fsr2h
 10888   001F96  30DF               	rrcf	223,w,c
 10889   001F98  32E8               	rrcf	wreg,f,c
 10890   001F9A  32E8               	rrcf	wreg,f,c
 10891   001F9C  0B07               	andlw	7
 10892   001F9E  6E0F               	movwf	??_gpio_pin_write_logic^0,c
 10893   001FA0  0E01               	movlw	1
 10894   001FA2  6E10               	movwf	(??_gpio_pin_write_logic+1)^0,c
 10895   001FA4  2A0F               	incf	??_gpio_pin_write_logic^0,f,c
 10896   001FA6  EFD7  F00F         	goto	u8214
 10897   001FAA                     u8215:
 10898   001FAA  90D8               	bcf	status,0,c
 10899   001FAC  3610               	rlcf	(??_gpio_pin_write_logic+1)^0,f,c
 10900   001FAE                     u8214:
 10901   001FAE  2E0F               	decfsz	??_gpio_pin_write_logic^0,f,c
 10902   001FB0  EFD5  F00F         	goto	u8215
 10903   001FB4  C00C  FFD9         	movff	gpio_pin_write_logic@_pin_config,fsr2l
 10904   001FB8  C00D  FFDA         	movff	gpio_pin_write_logic@_pin_config+1,fsr2h
 10905   001FBC  50DF               	movf	223,w,c
 10906   001FBE  0B07               	andlw	7
 10907   001FC0  6E11               	movwf	(??_gpio_pin_write_logic+2)^0,c
 10908   001FC2  5011               	movf	(??_gpio_pin_write_logic+2)^0,w,c
 10909   001FC4  0D02               	mullw	2
 10910   001FC6  0EEB               	movlw	low _lat_registers
 10911   001FC8  24F3               	addwf	243,w,c
 10912   001FCA  6ED9               	movwf	fsr2l,c
 10913   001FCC  0E00               	movlw	high _lat_registers
 10914   001FCE  20F4               	addwfc	prodh,w,c
 10915   001FD0  6EDA               	movwf	fsr2h,c
 10916   001FD2  CFDE F012          	movff	postinc2,??_gpio_pin_write_logic+3
 10917   001FD6  CFDD F013          	movff	postdec2,??_gpio_pin_write_logic+4
 10918   001FDA  C012  FFD9         	movff	??_gpio_pin_write_logic+3,fsr2l
 10919   001FDE  C013  FFDA         	movff	??_gpio_pin_write_logic+4,fsr2h
 10920   001FE2  5010               	movf	(??_gpio_pin_write_logic+1)^0,w,c
 10921   001FE4  12DF               	iorwf	indf2,f,c
 10922                           
 10923                           ;MCAL_Layer/GPIO/hal_gpio.c: 87:                 break;
 10924   001FE6  EF3B  F010         	goto	l9562
 10925   001FEA                     l9556:
 10926                           
 10927                           ;MCAL_Layer/GPIO/hal_gpio.c: 89:                 (*lat_registers[_pin_config->port] &= ~
      +                           ((uint8)1<<_pin_config->pin)) ;
 10928   001FEA  C00C  FFD9         	movff	gpio_pin_write_logic@_pin_config,fsr2l
 10929   001FEE  C00D  FFDA         	movff	gpio_pin_write_logic@_pin_config+1,fsr2h
 10930   001FF2  30DF               	rrcf	223,w,c
 10931   001FF4  32E8               	rrcf	wreg,f,c
 10932   001FF6  32E8               	rrcf	wreg,f,c
 10933   001FF8  0B07               	andlw	7
 10934   001FFA  6E0F               	movwf	??_gpio_pin_write_logic^0,c
 10935   001FFC  0E01               	movlw	1
 10936   001FFE  6E10               	movwf	(??_gpio_pin_write_logic+1)^0,c
 10937   002000  2A0F               	incf	??_gpio_pin_write_logic^0,f,c
 10938   002002  EF05  F010         	goto	u8224
 10939   002006                     u8225:
 10940   002006  90D8               	bcf	status,0,c
 10941   002008  3610               	rlcf	(??_gpio_pin_write_logic+1)^0,f,c
 10942   00200A                     u8224:
 10943   00200A  2E0F               	decfsz	??_gpio_pin_write_logic^0,f,c
 10944   00200C  EF03  F010         	goto	u8225
 10945   002010  5010               	movf	(??_gpio_pin_write_logic+1)^0,w,c
 10946   002012  0AFF               	xorlw	255
 10947   002014  6E11               	movwf	(??_gpio_pin_write_logic+2)^0,c
 10948   002016  C00C  FFD9         	movff	gpio_pin_write_logic@_pin_config,fsr2l
 10949   00201A  C00D  FFDA         	movff	gpio_pin_write_logic@_pin_config+1,fsr2h
 10950   00201E  50DF               	movf	223,w,c
 10951   002020  0B07               	andlw	7
 10952   002022  6E12               	movwf	(??_gpio_pin_write_logic+3)^0,c
 10953   002024  5012               	movf	(??_gpio_pin_write_logic+3)^0,w,c
 10954   002026  0D02               	mullw	2
 10955   002028  0EEB               	movlw	low _lat_registers
 10956   00202A  24F3               	addwf	243,w,c
 10957   00202C  6ED9               	movwf	fsr2l,c
 10958   00202E  0E00               	movlw	high _lat_registers
 10959   002030  20F4               	addwfc	prodh,w,c
 10960   002032  6EDA               	movwf	fsr2h,c
 10961   002034  CFDE F013          	movff	postinc2,??_gpio_pin_write_logic+4
 10962   002038  CFDD F014          	movff	postdec2,??_gpio_pin_write_logic+5
 10963   00203C  C013  FFD9         	movff	??_gpio_pin_write_logic+4,fsr2l
 10964   002040  C014  FFDA         	movff	??_gpio_pin_write_logic+5,fsr2h
 10965   002044  5011               	movf	(??_gpio_pin_write_logic+2)^0,w,c
 10966   002046  16DF               	andwf	indf2,f,c
 10967                           
 10968                           ;MCAL_Layer/GPIO/hal_gpio.c: 91:                 break;
 10969   002048  EF3B  F010         	goto	l9562
 10970   00204C                     l9560:
 10971   00204C  500E               	movf	gpio_pin_write_logic@logic^0,w,c
 10972   00204E  6E0F               	movwf	??_gpio_pin_write_logic^0,c
 10973   002050  6A10               	clrf	(??_gpio_pin_write_logic+1)^0,c
 10974                           
 10975                           ; Switch on 2 bytes has been partitioned into a top level switch of size 1, and 1 sub-sw
      +                          itches
 10976                           ; Switch size 1, requested type "simple"
 10977                           ; Number of cases is 1, Range of values is 0 to 0
 10978                           ; switch strategies available:
 10979                           ; Name         Instructions Cycles
 10980                           ; simple_byte            4     3 (average)
 10981                           ;	Chosen strategy is simple_byte
 10982   002052  5010               	movf	(??_gpio_pin_write_logic+1)^0,w,c
 10983   002054  0A00               	xorlw	0	; case 0
 10984   002056  B4D8               	btfsc	status,2,c
 10985   002058  EF30  F010         	goto	l12010
 10986   00205C  EFC5  F00F         	goto	l9552
 10987   002060                     l12010:
 10988                           
 10989                           ; Switch size 1, requested type "simple"
 10990                           ; Number of cases is 2, Range of values is 0 to 1
 10991                           ; switch strategies available:
 10992                           ; Name         Instructions Cycles
 10993                           ; simple_byte            7     4 (average)
 10994                           ;	Chosen strategy is simple_byte
 10995   002060  500F               	movf	??_gpio_pin_write_logic^0,w,c
 10996   002062  0A00               	xorlw	0	; case 0
 10997   002064  B4D8               	btfsc	status,2,c
 10998   002066  EFF5  F00F         	goto	l9556
 10999   00206A  0A01               	xorlw	1	; case 1
 11000   00206C  B4D8               	btfsc	status,2,c
 11001   00206E  EFC7  F00F         	goto	l9554
 11002   002072  EFC5  F00F         	goto	l9552
 11003   002076                     l9562:
 11004                           
 11005                           ;MCAL_Layer/GPIO/hal_gpio.c: 96:      return ret;
 11006   002076  0E01               	movlw	1
 11007   002078  0012               	return		;funcret
 11008   00207A                     __end_of_gpio_pin_write_logic:
 11009                           	callstack 0
 11010                           
 11011 ;; *************** function _gpio_pin_read_logic *****************
 11012 ;; Defined at:
 11013 ;;		line 109 in file "MCAL_Layer/GPIO/hal_gpio.c"
 11014 ;; Parameters:    Size  Location     Type
 11015 ;;  _pin_config     2   11[COMRAM] PTR const struct .
 11016 ;;		 -> keypad1.keypad_coulmn_pins(4), keypad1(8), 
 11017 ;;  logic           2   13[COMRAM] PTR enum E2968
 11018 ;;		 -> keypad_get_value@coulmn_logic(1), button_read_state@Pin_Logic_Status(1), 
 11019 ;; Auto vars:     Size  Location     Type
 11020 ;;  ret             1    0        unsigned char 
 11021 ;; Return value:  Size  Location     Type
 11022 ;;                  1    wreg      unsigned char 
 11023 ;; Registers used:
 11024 ;;		wreg, fsr2l, fsr2h, status,2, status,0, prodl, prodh
 11025 ;; Tracked objects:
 11026 ;;		On entry : 0/0
 11027 ;;		On exit  : 0/0
 11028 ;;		Unchanged: 0/0
 11029 ;; Data sizes:     COMRAM   BANK0   BANK1   BANK2   BANK3   BANK4   BANK5   BANK6   BANK7   BANK8   BANK9  BANK10  BANK1
      +1  BANK12  BANK13  BANK14  BANK15
 11030 ;;      Params:         4       0       0       0       0       0       0       0       0       0       0       0       
      +0       0       0       0       0
 11031 ;;      Locals:         0       0       0       0       0       0       0       0       0       0       0       0       
      +0       0       0       0       0
 11032 ;;      Temps:          5       0       0       0       0       0       0       0       0       0       0       0       
      +0       0       0       0       0
 11033 ;;      Totals:         9       0       0       0       0       0       0       0       0       0       0       0       
      +0       0       0       0       0
 11034 ;;Total ram usage:        9 bytes
 11035 ;; Hardware stack levels used: 1
 11036 ;; Hardware stack levels required when called: 4
 11037 ;; This function calls:
 11038 ;;		Nothing
 11039 ;; This function is called by:
 11040 ;;		_keypad_get_value
 11041 ;;		_button_read_state
 11042 ;; This function uses a non-reentrant model
 11043 ;;
 11044                           
 11045                           	psect	text58
 11046   002A76                     __ptext58:
 11047                           	callstack 0
 11048   002A76                     _gpio_pin_read_logic:
 11049                           	callstack 25
 11050   002A76                     
 11051                           ;MCAL_Layer/GPIO/hal_gpio.c: 111:     if(((void*)0)==_pin_config || ((void*)0)==logic ||
      +                           _pin_config->pin >8 -1){
 11052   002A76  500C               	movf	gpio_pin_read_logic@_pin_config^0,w,c
 11053   002A78  100D               	iorwf	(gpio_pin_read_logic@_pin_config+1)^0,w,c
 11054   002A7A  B4D8               	btfsc	status,2,c
 11055   002A7C  EF42  F015         	goto	u9131
 11056   002A80  EF44  F015         	goto	u9130
 11057   002A84                     u9131:
 11058   002A84  EF5E  F015         	goto	l10082
 11059   002A88                     u9130:
 11060   002A88  500E               	movf	gpio_pin_read_logic@logic^0,w,c
 11061   002A8A  100F               	iorwf	(gpio_pin_read_logic@logic+1)^0,w,c
 11062   002A8C  B4D8               	btfsc	status,2,c
 11063   002A8E  EF4B  F015         	goto	u9141
 11064   002A92  EF4D  F015         	goto	u9140
 11065   002A96                     u9141:
 11066   002A96  EF5E  F015         	goto	l10082
 11067   002A9A                     u9140:
 11068   002A9A  C00C  FFD9         	movff	gpio_pin_read_logic@_pin_config,fsr2l
 11069   002A9E  C00D  FFDA         	movff	gpio_pin_read_logic@_pin_config+1,fsr2h
 11070   002AA2  30DF               	rrcf	223,w,c
 11071   002AA4  32E8               	rrcf	wreg,f,c
 11072   002AA6  32E8               	rrcf	wreg,f,c
 11073   002AA8  0B07               	andlw	7
 11074   002AAA  6E10               	movwf	??_gpio_pin_read_logic^0,c
 11075   002AAC  0E07               	movlw	7
 11076   002AAE  6410               	cpfsgt	??_gpio_pin_read_logic^0,c
 11077   002AB0  EF5C  F015         	goto	u9151
 11078   002AB4  EF5E  F015         	goto	u9150
 11079   002AB8                     u9151:
 11080   002AB8  EF60  F015         	goto	l10084
 11081   002ABC                     u9150:
 11082   002ABC                     l10082:
 11083                           
 11084                           ;MCAL_Layer/GPIO/hal_gpio.c: 113:     }
 11085   002ABC  EF91  F015         	goto	l10086
 11086   002AC0                     l10084:
 11087                           
 11088                           ;MCAL_Layer/GPIO/hal_gpio.c: 115:         *logic=((*port_registers[_pin_config->port] >>
      +                          _pin_config->pin ) & (uint8)1);
 11089   002AC0  C00C  FFD9         	movff	gpio_pin_read_logic@_pin_config,fsr2l
 11090   002AC4  C00D  FFDA         	movff	gpio_pin_read_logic@_pin_config+1,fsr2h
 11091   002AC8  30DF               	rrcf	223,w,c
 11092   002ACA  32E8               	rrcf	wreg,f,c
 11093   002ACC  32E8               	rrcf	wreg,f,c
 11094   002ACE  0B07               	andlw	7
 11095   002AD0  6E10               	movwf	??_gpio_pin_read_logic^0,c
 11096   002AD2  C00C  FFD9         	movff	gpio_pin_read_logic@_pin_config,fsr2l
 11097   002AD6  C00D  FFDA         	movff	gpio_pin_read_logic@_pin_config+1,fsr2h
 11098   002ADA  50DF               	movf	223,w,c
 11099   002ADC  0B07               	andlw	7
 11100   002ADE  6E11               	movwf	(??_gpio_pin_read_logic+1)^0,c
 11101   002AE0  5011               	movf	(??_gpio_pin_read_logic+1)^0,w,c
 11102   002AE2  0D02               	mullw	2
 11103   002AE4  0E3A               	movlw	low _port_registers
 11104   002AE6  24F3               	addwf	243,w,c
 11105   002AE8  6ED9               	movwf	fsr2l,c
 11106   002AEA  0E01               	movlw	high _port_registers
 11107   002AEC  20F4               	addwfc	prodh,w,c
 11108   002AEE  6EDA               	movwf	fsr2h,c
 11109   002AF0  CFDE F012          	movff	postinc2,??_gpio_pin_read_logic+2
 11110   002AF4  CFDD F013          	movff	postdec2,??_gpio_pin_read_logic+3
 11111   002AF8  C012  FFD9         	movff	??_gpio_pin_read_logic+2,fsr2l
 11112   002AFC  C013  FFDA         	movff	??_gpio_pin_read_logic+3,fsr2h
 11113   002B00  50DF               	movf	indf2,w,c
 11114   002B02  6E14               	movwf	(??_gpio_pin_read_logic+4)^0,c
 11115   002B04  2A10               	incf	??_gpio_pin_read_logic^0,f,c
 11116   002B06  EF87  F015         	goto	u9164
 11117   002B0A                     u9165:
 11118   002B0A  90D8               	bcf	status,0,c
 11119   002B0C  3214               	rrcf	(??_gpio_pin_read_logic+4)^0,f,c
 11120   002B0E                     u9164:
 11121   002B0E  2E10               	decfsz	??_gpio_pin_read_logic^0,f,c
 11122   002B10  EF85  F015         	goto	u9165
 11123   002B14  5014               	movf	(??_gpio_pin_read_logic+4)^0,w,c
 11124   002B16  0B01               	andlw	1
 11125   002B18  C00E  FFD9         	movff	gpio_pin_read_logic@logic,fsr2l
 11126   002B1C  C00F  FFDA         	movff	gpio_pin_read_logic@logic+1,fsr2h
 11127   002B20  6EDF               	movwf	indf2,c
 11128   002B22                     l10086:
 11129                           
 11130                           ;MCAL_Layer/GPIO/hal_gpio.c: 118:      return ret;
 11131   002B22  0E01               	movlw	1
 11132   002B24  0012               	return		;funcret
 11133   002B26                     __end_of_gpio_pin_read_logic:
 11134                           	callstack 0
 11135                           
 11136 ;; *************** function _InterruptManagerHigh *****************
 11137 ;; Defined at:
 11138 ;;		line 88 in file "MCAL_Layer/Interrupt/mcal_interrupt_manager.c"
 11139 ;; Parameters:    Size  Location     Type
 11140 ;;		None
 11141 ;; Auto vars:     Size  Location     Type
 11142 ;;		None
 11143 ;; Return value:  Size  Location     Type
 11144 ;;                  1    wreg      void 
 11145 ;; Registers used:
 11146 ;;		wreg, fsr2l, fsr2h, status,2, status,0, pcl, pclath, pclatu, tosl, cstack
 11147 ;; Tracked objects:
 11148 ;;		On entry : 0/0
 11149 ;;		On exit  : 0/0
 11150 ;;		Unchanged: 0/0
 11151 ;; Data sizes:     COMRAM   BANK0   BANK1   BANK2   BANK3   BANK4   BANK5   BANK6   BANK7   BANK8   BANK9  BANK10  BANK1
      +1  BANK12  BANK13  BANK14  BANK15
 11152 ;;      Params:         0       0       0       0       0       0       0       0       0       0       0       0       
      +0       0       0       0       0
 11153 ;;      Locals:         0       0       0       0       0       0       0       0       0       0       0       0       
      +0       0       0       0       0
 11154 ;;      Temps:          4       0       0       0       0       0       0       0       0       0       0       0       
      +0       0       0       0       0
 11155 ;;      Totals:         4       0       0       0       0       0       0       0       0       0       0       0       
      +0       0       0       0       0
 11156 ;;Total ram usage:        4 bytes
 11157 ;; Hardware stack levels used: 1
 11158 ;; Hardware stack levels required when called: 3
 11159 ;; This function calls:
 11160 ;;		_ADC_ISR
 11161 ;;		_CCP1_ISR
 11162 ;;		_CCP2_ISR
 11163 ;;		_EUSART_Rx_ISR
 11164 ;;		_EUSART_Tx_ISR
 11165 ;;		_INT0_ISR
 11166 ;;		_INT1_ISR
 11167 ;;		_INT2_ISR
 11168 ;;		_MSSP_I2C_BC_ISR
 11169 ;;		_MSSP_I2C_ISR
 11170 ;;		_RB4_ISR
 11171 ;;		_RB5_ISR
 11172 ;;		_RB6_ISR
 11173 ;;		_RB7_ISR
 11174 ;;		_TMR0_ISR
 11175 ;;		_TMR1_ISR
 11176 ;;		_TMR2_ISR
 11177 ;;		_TMR3_ISR
 11178 ;; This function is called by:
 11179 ;;		Interrupt level 2
 11180 ;; This function uses a non-reentrant model
 11181 ;;
 11182                           
 11183                           	psect	intcode
 11184   000008                     __pintcode:
 11185                           	callstack 0
 11186   000008                     _InterruptManagerHigh:
 11187                           	callstack 20
 11188                           
 11189                           ;incstack = 0
 11190   000008  8274               	bsf	int$flags,1,c	;set compiler interrupt flag (level 2)
 11191   00000A  EDD2  F007         	call	int_func,f	;refresh shadow registers
 11192                           
 11193                           	psect	intcode_body
 11194   000FA4                     __pintcode_body:
 11195                           	callstack 20
 11196   000FA4                     int_func:
 11197                           	callstack 20
 11198   000FA4  0006               	pop		; remove dummy address from shadow register refresh
 11199   000FA6  CFFA F008          	movff	pclath,??_InterruptManagerHigh
 11200   000FAA  CFFB F009          	movff	pclatu,??_InterruptManagerHigh+1
 11201   000FAE  CFD9 F00A          	movff	fsr2l,??_InterruptManagerHigh+2
 11202   000FB2  CFDA F00B          	movff	fsr2h,??_InterruptManagerHigh+3
 11203   000FB6                     
 11204                           ;MCAL_Layer/Interrupt/mcal_interrupt_manager.c: 89:     if((1 == INTCONbits.INT0IE) && (
      +                          1 == INTCONbits.INT0IF)){
 11205   000FB6  A8F2               	btfss	242,4,c	;volatile
 11206   000FB8  EFE0  F007         	goto	i2u733_41
 11207   000FBC  EFE2  F007         	goto	i2u733_40
 11208   000FC0                     i2u733_41:
 11209   000FC0  EFEB  F007         	goto	i2l1322
 11210   000FC4                     i2u733_40:
 11211   000FC4  A2F2               	btfss	242,1,c	;volatile
 11212   000FC6  EFE7  F007         	goto	i2u734_41
 11213   000FCA  EFE9  F007         	goto	i2u734_40
 11214   000FCE                     i2u734_41:
 11215   000FCE  EFEB  F007         	goto	i2l1322
 11216   000FD2                     i2u734_40:
 11217   000FD2                     
 11218                           ;MCAL_Layer/Interrupt/mcal_interrupt_manager.c: 90:         INT0_ISR();
 11219   000FD2  EC96  F01D         	call	_INT0_ISR	;wreg free
 11220   000FD6                     i2l1322:
 11221                           
 11222                           ;MCAL_Layer/Interrupt/mcal_interrupt_manager.c: 94:      if((1 == INTCON3bits.INT1IE) &&
      +                           (1 == INTCON3bits.INT1IF)){
 11223   000FD6  A6F0               	btfss	240,3,c	;volatile
 11224   000FD8  EFF0  F007         	goto	i2u735_41
 11225   000FDC  EFF2  F007         	goto	i2u735_40
 11226   000FE0                     i2u735_41:
 11227   000FE0  EFFB  F007         	goto	i2l1324
 11228   000FE4                     i2u735_40:
 11229   000FE4  A0F0               	btfss	240,0,c	;volatile
 11230   000FE6  EFF7  F007         	goto	i2u736_41
 11231   000FEA  EFF9  F007         	goto	i2u736_40
 11232   000FEE                     i2u736_41:
 11233   000FEE  EFFB  F007         	goto	i2l1324
 11234   000FF2                     i2u736_40:
 11235   000FF2                     
 11236                           ;MCAL_Layer/Interrupt/mcal_interrupt_manager.c: 95:         INT1_ISR();
 11237   000FF2  EC94  F01D         	call	_INT1_ISR	;wreg free
 11238   000FF6                     i2l1324:
 11239                           
 11240                           ;MCAL_Layer/Interrupt/mcal_interrupt_manager.c: 99:      if((1 == INTCON3bits.INT2IE) &&
      +                           (1 == INTCON3bits.INT2IF)){
 11241   000FF6  A8F0               	btfss	240,4,c	;volatile
 11242   000FF8  EF00  F008         	goto	i2u737_41
 11243   000FFC  EF02  F008         	goto	i2u737_40
 11244   001000                     i2u737_41:
 11245   001000  EF0B  F008         	goto	i2l1326
 11246   001004                     i2u737_40:
 11247   001004  A2F0               	btfss	240,1,c	;volatile
 11248   001006  EF07  F008         	goto	i2u738_41
 11249   00100A  EF09  F008         	goto	i2u738_40
 11250   00100E                     i2u738_41:
 11251   00100E  EF0B  F008         	goto	i2l1326
 11252   001012                     i2u738_40:
 11253   001012                     
 11254                           ;MCAL_Layer/Interrupt/mcal_interrupt_manager.c: 100:         INT2_ISR();
 11255   001012  EC92  F01D         	call	_INT2_ISR	;wreg free
 11256   001016                     i2l1326:
 11257                           
 11258                           ;MCAL_Layer/Interrupt/mcal_interrupt_manager.c: 104:     if((1 == INTCONbits.RBIE) && (1
      +                           == INTCONbits.RBIF) &&
 11259   001016  A6F2               	btfss	242,3,c	;volatile
 11260   001018  EF10  F008         	goto	i2u739_41
 11261   00101C  EF12  F008         	goto	i2u739_40
 11262   001020                     i2u739_41:
 11263   001020  EF2D  F008         	goto	i2l1328
 11264   001024                     i2u739_40:
 11265   001024  A0F2               	btfss	242,0,c	;volatile
 11266   001026  EF17  F008         	goto	i2u740_41
 11267   00102A  EF19  F008         	goto	i2u740_40
 11268   00102E                     i2u740_41:
 11269   00102E  EF2D  F008         	goto	i2l1328
 11270   001032                     i2u740_40:
 11271   001032  A881               	btfss	129,4,c	;volatile
 11272   001034  EF1E  F008         	goto	i2u741_41
 11273   001038  EF20  F008         	goto	i2u741_40
 11274   00103C                     i2u741_41:
 11275   00103C  EF2D  F008         	goto	i2l1328
 11276   001040                     i2u741_40:
 11277   001040  046E               	decf	_RB4_Flag^0,w,c	;volatile
 11278   001042  A4D8               	btfss	status,2,c
 11279   001044  EF26  F008         	goto	i2u742_41
 11280   001048  EF28  F008         	goto	i2u742_40
 11281   00104C                     i2u742_41:
 11282   00104C  EF2D  F008         	goto	i2l1328
 11283   001050                     i2u742_40:
 11284   001050                     
 11285                           ;MCAL_Layer/Interrupt/mcal_interrupt_manager.c: 105:             (PORTBbits.RB4==GPIO_HI
      +                          GH) && (RB4_Flag==1)){;MCAL_Layer/Interrupt/mcal_interrupt_manager.c: 106:         RB4_F
      +                          lag=0;
 11286   001050  0E00               	movlw	0
 11287   001052  6E6E               	movwf	_RB4_Flag^0,c	;volatile
 11288   001054                     
 11289                           ;MCAL_Layer/Interrupt/mcal_interrupt_manager.c: 107:         RB4_ISR(0);
 11290   001054  0E00               	movlw	0
 11291   001056  EC4D  F01D         	call	_RB4_ISR
 11292   00105A                     i2l1328:
 11293                           
 11294                           ;MCAL_Layer/Interrupt/mcal_interrupt_manager.c: 111:     if((1 == INTCONbits.RBIE) && (1
      +                           == INTCONbits.RBIF) &&
 11295   00105A  A6F2               	btfss	242,3,c	;volatile
 11296   00105C  EF32  F008         	goto	i2u743_41
 11297   001060  EF34  F008         	goto	i2u743_40
 11298   001064                     i2u743_41:
 11299   001064  EF4F  F008         	goto	i2l8958
 11300   001068                     i2u743_40:
 11301   001068  A0F2               	btfss	242,0,c	;volatile
 11302   00106A  EF39  F008         	goto	i2u744_41
 11303   00106E  EF3B  F008         	goto	i2u744_40
 11304   001072                     i2u744_41:
 11305   001072  EF4F  F008         	goto	i2l8958
 11306   001076                     i2u744_40:
 11307   001076  B881               	btfsc	129,4,c	;volatile
 11308   001078  EF40  F008         	goto	i2u745_41
 11309   00107C  EF42  F008         	goto	i2u745_40
 11310   001080                     i2u745_41:
 11311   001080  EF4F  F008         	goto	i2l8958
 11312   001084                     i2u745_40:
 11313   001084  506E               	movf	_RB4_Flag^0,w,c	;volatile
 11314   001086  A4D8               	btfss	status,2,c
 11315   001088  EF48  F008         	goto	i2u746_41
 11316   00108C  EF4A  F008         	goto	i2u746_40
 11317   001090                     i2u746_41:
 11318   001090  EF4F  F008         	goto	i2l8958
 11319   001094                     i2u746_40:
 11320   001094                     
 11321                           ;MCAL_Layer/Interrupt/mcal_interrupt_manager.c: 112:             (PORTBbits.RB4==GPIO_LO
      +                          W) && (RB4_Flag==0)){;MCAL_Layer/Interrupt/mcal_interrupt_manager.c: 113:         RB4_Fl
      +                          ag=1;
 11322   001094  0E01               	movlw	1
 11323   001096  6E6E               	movwf	_RB4_Flag^0,c	;volatile
 11324   001098                     
 11325                           ;MCAL_Layer/Interrupt/mcal_interrupt_manager.c: 114:         RB4_ISR(1);
 11326   001098  0E01               	movlw	1
 11327   00109A  EC4D  F01D         	call	_RB4_ISR
 11328   00109E                     i2l8958:
 11329                           
 11330                           ;MCAL_Layer/Interrupt/mcal_interrupt_manager.c: 116:     if((1 == INTCONbits.RBIE) && (1
      +                           == INTCONbits.RBIF) &&
 11331   00109E  A6F2               	btfss	242,3,c	;volatile
 11332   0010A0  EF54  F008         	goto	i2u747_41
 11333   0010A4  EF56  F008         	goto	i2u747_40
 11334   0010A8                     i2u747_41:
 11335   0010A8  EF71  F008         	goto	i2l1331
 11336   0010AC                     i2u747_40:
 11337   0010AC  A0F2               	btfss	242,0,c	;volatile
 11338   0010AE  EF5B  F008         	goto	i2u748_41
 11339   0010B2  EF5D  F008         	goto	i2u748_40
 11340   0010B6                     i2u748_41:
 11341   0010B6  EF71  F008         	goto	i2l1331
 11342   0010BA                     i2u748_40:
 11343   0010BA  AA81               	btfss	129,5,c	;volatile
 11344   0010BC  EF62  F008         	goto	i2u749_41
 11345   0010C0  EF64  F008         	goto	i2u749_40
 11346   0010C4                     i2u749_41:
 11347   0010C4  EF71  F008         	goto	i2l1331
 11348   0010C8                     i2u749_40:
 11349   0010C8  046D               	decf	_RB5_Flag^0,w,c	;volatile
 11350   0010CA  A4D8               	btfss	status,2,c
 11351   0010CC  EF6A  F008         	goto	i2u750_41
 11352   0010D0  EF6C  F008         	goto	i2u750_40
 11353   0010D4                     i2u750_41:
 11354   0010D4  EF71  F008         	goto	i2l1331
 11355   0010D8                     i2u750_40:
 11356   0010D8                     
 11357                           ;MCAL_Layer/Interrupt/mcal_interrupt_manager.c: 117:             (PORTBbits.RB5==GPIO_HI
      +                          GH) && (RB5_Flag==1)){;MCAL_Layer/Interrupt/mcal_interrupt_manager.c: 118:         RB5_F
      +                          lag=0;
 11358   0010D8  0E00               	movlw	0
 11359   0010DA  6E6D               	movwf	_RB5_Flag^0,c	;volatile
 11360   0010DC                     
 11361                           ;MCAL_Layer/Interrupt/mcal_interrupt_manager.c: 119:         RB5_ISR(0);
 11362   0010DC  0E00               	movlw	0
 11363   0010DE  EC40  F01D         	call	_RB5_ISR
 11364   0010E2                     i2l1331:
 11365                           
 11366                           ;MCAL_Layer/Interrupt/mcal_interrupt_manager.c: 123:     if((1 == INTCONbits.RBIE) && (1
      +                           == INTCONbits.RBIF) &&
 11367   0010E2  A6F2               	btfss	242,3,c	;volatile
 11368   0010E4  EF76  F008         	goto	i2u751_41
 11369   0010E8  EF78  F008         	goto	i2u751_40
 11370   0010EC                     i2u751_41:
 11371   0010EC  EF93  F008         	goto	i2l8980
 11372   0010F0                     i2u751_40:
 11373   0010F0  A0F2               	btfss	242,0,c	;volatile
 11374   0010F2  EF7D  F008         	goto	i2u752_41
 11375   0010F6  EF7F  F008         	goto	i2u752_40
 11376   0010FA                     i2u752_41:
 11377   0010FA  EF93  F008         	goto	i2l8980
 11378   0010FE                     i2u752_40:
 11379   0010FE  BA81               	btfsc	129,5,c	;volatile
 11380   001100  EF84  F008         	goto	i2u753_41
 11381   001104  EF86  F008         	goto	i2u753_40
 11382   001108                     i2u753_41:
 11383   001108  EF93  F008         	goto	i2l8980
 11384   00110C                     i2u753_40:
 11385   00110C  506D               	movf	_RB5_Flag^0,w,c	;volatile
 11386   00110E  A4D8               	btfss	status,2,c
 11387   001110  EF8C  F008         	goto	i2u754_41
 11388   001114  EF8E  F008         	goto	i2u754_40
 11389   001118                     i2u754_41:
 11390   001118  EF93  F008         	goto	i2l8980
 11391   00111C                     i2u754_40:
 11392   00111C                     
 11393                           ;MCAL_Layer/Interrupt/mcal_interrupt_manager.c: 124:             (PORTBbits.RB5==GPIO_LO
      +                          W) && (RB5_Flag==0)){;MCAL_Layer/Interrupt/mcal_interrupt_manager.c: 125:         RB5_Fl
      +                          ag=1;
 11394   00111C  0E01               	movlw	1
 11395   00111E  6E6D               	movwf	_RB5_Flag^0,c	;volatile
 11396   001120                     
 11397                           ;MCAL_Layer/Interrupt/mcal_interrupt_manager.c: 126:         RB5_ISR(1);
 11398   001120  0E01               	movlw	1
 11399   001122  EC40  F01D         	call	_RB5_ISR
 11400   001126                     i2l8980:
 11401                           
 11402                           ;MCAL_Layer/Interrupt/mcal_interrupt_manager.c: 128:     if((1 == INTCONbits.RBIE) && (1
      +                           == INTCONbits.RBIF) &&
 11403   001126  A6F2               	btfss	242,3,c	;volatile
 11404   001128  EF98  F008         	goto	i2u755_41
 11405   00112C  EF9A  F008         	goto	i2u755_40
 11406   001130                     i2u755_41:
 11407   001130  EFB5  F008         	goto	i2l1334
 11408   001134                     i2u755_40:
 11409   001134  A0F2               	btfss	242,0,c	;volatile
 11410   001136  EF9F  F008         	goto	i2u756_41
 11411   00113A  EFA1  F008         	goto	i2u756_40
 11412   00113E                     i2u756_41:
 11413   00113E  EFB5  F008         	goto	i2l1334
 11414   001142                     i2u756_40:
 11415   001142  AC81               	btfss	129,6,c	;volatile
 11416   001144  EFA6  F008         	goto	i2u757_41
 11417   001148  EFA8  F008         	goto	i2u757_40
 11418   00114C                     i2u757_41:
 11419   00114C  EFB5  F008         	goto	i2l1334
 11420   001150                     i2u757_40:
 11421   001150  046C               	decf	_RB6_Flag^0,w,c	;volatile
 11422   001152  A4D8               	btfss	status,2,c
 11423   001154  EFAE  F008         	goto	i2u758_41
 11424   001158  EFB0  F008         	goto	i2u758_40
 11425   00115C                     i2u758_41:
 11426   00115C  EFB5  F008         	goto	i2l1334
 11427   001160                     i2u758_40:
 11428   001160                     
 11429                           ;MCAL_Layer/Interrupt/mcal_interrupt_manager.c: 129:             (PORTBbits.RB6==GPIO_HI
      +                          GH) && (RB6_Flag==1)){;MCAL_Layer/Interrupt/mcal_interrupt_manager.c: 130:         RB6_F
      +                          lag=0;
 11430   001160  0E00               	movlw	0
 11431   001162  6E6C               	movwf	_RB6_Flag^0,c	;volatile
 11432   001164                     
 11433                           ;MCAL_Layer/Interrupt/mcal_interrupt_manager.c: 131:         RB6_ISR(0);
 11434   001164  0E00               	movlw	0
 11435   001166  EC33  F01D         	call	_RB6_ISR
 11436   00116A                     i2l1334:
 11437                           
 11438                           ;MCAL_Layer/Interrupt/mcal_interrupt_manager.c: 135:     if((1 == INTCONbits.RBIE) && (1
      +                           == INTCONbits.RBIF) &&
 11439   00116A  A6F2               	btfss	242,3,c	;volatile
 11440   00116C  EFBA  F008         	goto	i2u759_41
 11441   001170  EFBC  F008         	goto	i2u759_40
 11442   001174                     i2u759_41:
 11443   001174  EFD7  F008         	goto	i2l9002
 11444   001178                     i2u759_40:
 11445   001178  A0F2               	btfss	242,0,c	;volatile
 11446   00117A  EFC1  F008         	goto	i2u760_41
 11447   00117E  EFC3  F008         	goto	i2u760_40
 11448   001182                     i2u760_41:
 11449   001182  EFD7  F008         	goto	i2l9002
 11450   001186                     i2u760_40:
 11451   001186  BC81               	btfsc	129,6,c	;volatile
 11452   001188  EFC8  F008         	goto	i2u761_41
 11453   00118C  EFCA  F008         	goto	i2u761_40
 11454   001190                     i2u761_41:
 11455   001190  EFD7  F008         	goto	i2l9002
 11456   001194                     i2u761_40:
 11457   001194  506C               	movf	_RB6_Flag^0,w,c	;volatile
 11458   001196  A4D8               	btfss	status,2,c
 11459   001198  EFD0  F008         	goto	i2u762_41
 11460   00119C  EFD2  F008         	goto	i2u762_40
 11461   0011A0                     i2u762_41:
 11462   0011A0  EFD7  F008         	goto	i2l9002
 11463   0011A4                     i2u762_40:
 11464   0011A4                     
 11465                           ;MCAL_Layer/Interrupt/mcal_interrupt_manager.c: 136:             (PORTBbits.RB6==GPIO_LO
      +                          W) && (RB6_Flag==0)){;MCAL_Layer/Interrupt/mcal_interrupt_manager.c: 137:         RB6_Fl
      +                          ag=1;
 11466   0011A4  0E01               	movlw	1
 11467   0011A6  6E6C               	movwf	_RB6_Flag^0,c	;volatile
 11468   0011A8                     
 11469                           ;MCAL_Layer/Interrupt/mcal_interrupt_manager.c: 138:         RB6_ISR(1);
 11470   0011A8  0E01               	movlw	1
 11471   0011AA  EC33  F01D         	call	_RB6_ISR
 11472   0011AE                     i2l9002:
 11473                           
 11474                           ;MCAL_Layer/Interrupt/mcal_interrupt_manager.c: 140:     if((1 == INTCONbits.RBIE) && (1
      +                           == INTCONbits.RBIF) &&
 11475   0011AE  A6F2               	btfss	242,3,c	;volatile
 11476   0011B0  EFDC  F008         	goto	i2u763_41
 11477   0011B4  EFDE  F008         	goto	i2u763_40
 11478   0011B8                     i2u763_41:
 11479   0011B8  EFF9  F008         	goto	i2l1337
 11480   0011BC                     i2u763_40:
 11481   0011BC  A0F2               	btfss	242,0,c	;volatile
 11482   0011BE  EFE3  F008         	goto	i2u764_41
 11483   0011C2  EFE5  F008         	goto	i2u764_40
 11484   0011C6                     i2u764_41:
 11485   0011C6  EFF9  F008         	goto	i2l1337
 11486   0011CA                     i2u764_40:
 11487   0011CA  AE81               	btfss	129,7,c	;volatile
 11488   0011CC  EFEA  F008         	goto	i2u765_41
 11489   0011D0  EFEC  F008         	goto	i2u765_40
 11490   0011D4                     i2u765_41:
 11491   0011D4  EFF9  F008         	goto	i2l1337
 11492   0011D8                     i2u765_40:
 11493   0011D8  046B               	decf	_RB7_Flag^0,w,c	;volatile
 11494   0011DA  A4D8               	btfss	status,2,c
 11495   0011DC  EFF2  F008         	goto	i2u766_41
 11496   0011E0  EFF4  F008         	goto	i2u766_40
 11497   0011E4                     i2u766_41:
 11498   0011E4  EFF9  F008         	goto	i2l1337
 11499   0011E8                     i2u766_40:
 11500   0011E8                     
 11501                           ;MCAL_Layer/Interrupt/mcal_interrupt_manager.c: 141:             (PORTBbits.RB7==GPIO_HI
      +                          GH) && (RB7_Flag==1)){;MCAL_Layer/Interrupt/mcal_interrupt_manager.c: 142:         RB7_F
      +                          lag=0;
 11502   0011E8  0E00               	movlw	0
 11503   0011EA  6E6B               	movwf	_RB7_Flag^0,c	;volatile
 11504   0011EC                     
 11505                           ;MCAL_Layer/Interrupt/mcal_interrupt_manager.c: 143:         RB7_ISR(0);
 11506   0011EC  0E00               	movlw	0
 11507   0011EE  EC26  F01D         	call	_RB7_ISR
 11508   0011F2                     i2l1337:
 11509                           
 11510                           ;MCAL_Layer/Interrupt/mcal_interrupt_manager.c: 147:     if((1 == INTCONbits.RBIE) && (1
      +                           == INTCONbits.RBIF) &&
 11511   0011F2  A6F2               	btfss	242,3,c	;volatile
 11512   0011F4  EFFE  F008         	goto	i2u767_41
 11513   0011F8  EF00  F009         	goto	i2u767_40
 11514   0011FC                     i2u767_41:
 11515   0011FC  EF1B  F009         	goto	i2l1339
 11516   001200                     i2u767_40:
 11517   001200  A0F2               	btfss	242,0,c	;volatile
 11518   001202  EF05  F009         	goto	i2u768_41
 11519   001206  EF07  F009         	goto	i2u768_40
 11520   00120A                     i2u768_41:
 11521   00120A  EF1B  F009         	goto	i2l1339
 11522   00120E                     i2u768_40:
 11523   00120E  BE81               	btfsc	129,7,c	;volatile
 11524   001210  EF0C  F009         	goto	i2u769_41
 11525   001214  EF0E  F009         	goto	i2u769_40
 11526   001218                     i2u769_41:
 11527   001218  EF1B  F009         	goto	i2l1339
 11528   00121C                     i2u769_40:
 11529   00121C  506B               	movf	_RB7_Flag^0,w,c	;volatile
 11530   00121E  A4D8               	btfss	status,2,c
 11531   001220  EF14  F009         	goto	i2u770_41
 11532   001224  EF16  F009         	goto	i2u770_40
 11533   001228                     i2u770_41:
 11534   001228  EF1B  F009         	goto	i2l1339
 11535   00122C                     i2u770_40:
 11536   00122C                     
 11537                           ;MCAL_Layer/Interrupt/mcal_interrupt_manager.c: 148:             (PORTBbits.RB7==GPIO_LO
      +                          W) && (RB7_Flag==0)){;MCAL_Layer/Interrupt/mcal_interrupt_manager.c: 149:         RB7_Fl
      +                          ag=1;
 11538   00122C  0E01               	movlw	1
 11539   00122E  6E6B               	movwf	_RB7_Flag^0,c	;volatile
 11540   001230                     
 11541                           ;MCAL_Layer/Interrupt/mcal_interrupt_manager.c: 150:         RB7_ISR(1);
 11542   001230  0E01               	movlw	1
 11543   001232  EC26  F01D         	call	_RB7_ISR
 11544   001236                     i2l1339:
 11545                           
 11546                           ;MCAL_Layer/Interrupt/mcal_interrupt_manager.c: 156:     if((1 == PIE1bits.ADIE) && (1 =
      +                          = PIR1bits.ADIF)){
 11547   001236  AC9D               	btfss	157,6,c	;volatile
 11548   001238  EF20  F009         	goto	i2u771_41
 11549   00123C  EF22  F009         	goto	i2u771_40
 11550   001240                     i2u771_41:
 11551   001240  EF2B  F009         	goto	i2l1341
 11552   001244                     i2u771_40:
 11553   001244  AC9E               	btfss	158,6,c	;volatile
 11554   001246  EF27  F009         	goto	i2u772_41
 11555   00124A  EF29  F009         	goto	i2u772_40
 11556   00124E                     i2u772_41:
 11557   00124E  EF2B  F009         	goto	i2l1341
 11558   001252                     i2u772_40:
 11559   001252                     
 11560                           ;MCAL_Layer/Interrupt/mcal_interrupt_manager.c: 157:         ADC_ISR();
 11561   001252  EC9A  F01D         	call	_ADC_ISR	;wreg free
 11562   001256                     i2l1341:
 11563                           
 11564                           ;MCAL_Layer/Interrupt/mcal_interrupt_manager.c: 163:     if((1 == INTCONbits.TMR0IE) && 
      +                          (1 == INTCONbits.TMR0IF)){
 11565   001256  AAF2               	btfss	242,5,c	;volatile
 11566   001258  EF30  F009         	goto	i2u773_41
 11567   00125C  EF32  F009         	goto	i2u773_40
 11568   001260                     i2u773_41:
 11569   001260  EF3B  F009         	goto	i2l9032
 11570   001264                     i2u773_40:
 11571   001264  A4F2               	btfss	242,2,c	;volatile
 11572   001266  EF37  F009         	goto	i2u774_41
 11573   00126A  EF39  F009         	goto	i2u774_40
 11574   00126E                     i2u774_41:
 11575   00126E  EF3B  F009         	goto	i2l9032
 11576   001272                     i2u774_40:
 11577   001272                     
 11578                           ;MCAL_Layer/Interrupt/mcal_interrupt_manager.c: 164:         TMR0_ISR();
 11579   001272  EC7C  F01D         	call	_TMR0_ISR	;wreg free
 11580   001276                     i2l9032:
 11581                           
 11582                           ;MCAL_Layer/Interrupt/mcal_interrupt_manager.c: 168:     if((1 == PIE1bits.TMR1IE) && (1
      +                           == PIR1bits.TMR1IF)){
 11583   001276  A09D               	btfss	157,0,c	;volatile
 11584   001278  EF40  F009         	goto	i2u775_41
 11585   00127C  EF42  F009         	goto	i2u775_40
 11586   001280                     i2u775_41:
 11587   001280  EF4B  F009         	goto	i2l9038
 11588   001284                     i2u775_40:
 11589   001284  A09E               	btfss	158,0,c	;volatile
 11590   001286  EF47  F009         	goto	i2u776_41
 11591   00128A  EF49  F009         	goto	i2u776_40
 11592   00128E                     i2u776_41:
 11593   00128E  EF4B  F009         	goto	i2l9038
 11594   001292                     i2u776_40:
 11595   001292                     
 11596                           ;MCAL_Layer/Interrupt/mcal_interrupt_manager.c: 169:         TMR1_ISR();
 11597   001292  EC75  F01D         	call	_TMR1_ISR	;wreg free
 11598   001296                     i2l9038:
 11599                           
 11600                           ;MCAL_Layer/Interrupt/mcal_interrupt_manager.c: 173:     if((1 == PIE1bits.TMR2IE) && (1
      +                           == PIR1bits.TMR2IF)){
 11601   001296  A29D               	btfss	157,1,c	;volatile
 11602   001298  EF50  F009         	goto	i2u777_41
 11603   00129C  EF52  F009         	goto	i2u777_40
 11604   0012A0                     i2u777_41:
 11605   0012A0  EF5B  F009         	goto	i2l9044
 11606   0012A4                     i2u777_40:
 11607   0012A4  A29E               	btfss	158,1,c	;volatile
 11608   0012A6  EF57  F009         	goto	i2u778_41
 11609   0012AA  EF59  F009         	goto	i2u778_40
 11610   0012AE                     i2u778_41:
 11611   0012AE  EF5B  F009         	goto	i2l9044
 11612   0012B2                     i2u778_40:
 11613   0012B2                     
 11614                           ;MCAL_Layer/Interrupt/mcal_interrupt_manager.c: 174:         TMR2_ISR();
 11615   0012B2  EC88  F01D         	call	_TMR2_ISR	;wreg free
 11616   0012B6                     i2l9044:
 11617                           
 11618                           ;MCAL_Layer/Interrupt/mcal_interrupt_manager.c: 178:     if((1 == PIE2bits.TMR3IE) && (1
      +                           == PIR2bits.TMR3IF)){
 11619   0012B6  A2A0               	btfss	160,1,c	;volatile
 11620   0012B8  EF60  F009         	goto	i2u779_41
 11621   0012BC  EF62  F009         	goto	i2u779_40
 11622   0012C0                     i2u779_41:
 11623   0012C0  EF6B  F009         	goto	i2l9050
 11624   0012C4                     i2u779_40:
 11625   0012C4  A2A1               	btfss	161,1,c	;volatile
 11626   0012C6  EF67  F009         	goto	i2u780_41
 11627   0012CA  EF69  F009         	goto	i2u780_40
 11628   0012CE                     i2u780_41:
 11629   0012CE  EF6B  F009         	goto	i2l9050
 11630   0012D2                     i2u780_40:
 11631   0012D2                     
 11632                           ;MCAL_Layer/Interrupt/mcal_interrupt_manager.c: 179:         TMR3_ISR();
 11633   0012D2  EC6E  F01D         	call	_TMR3_ISR	;wreg free
 11634   0012D6                     i2l9050:
 11635                           
 11636                           ;MCAL_Layer/Interrupt/mcal_interrupt_manager.c: 183:     if((1 == PIE1bits.CCP1IE) && (1
      +                           == PIR1bits.CCP1IF)){
 11637   0012D6  A49D               	btfss	157,2,c	;volatile
 11638   0012D8  EF70  F009         	goto	i2u781_41
 11639   0012DC  EF72  F009         	goto	i2u781_40
 11640   0012E0                     i2u781_41:
 11641   0012E0  EF7B  F009         	goto	i2l9056
 11642   0012E4                     i2u781_40:
 11643   0012E4  A49E               	btfss	158,2,c	;volatile
 11644   0012E6  EF77  F009         	goto	i2u782_41
 11645   0012EA  EF79  F009         	goto	i2u782_40
 11646   0012EE                     i2u782_41:
 11647   0012EE  EF7B  F009         	goto	i2l9056
 11648   0012F2                     i2u782_40:
 11649   0012F2                     
 11650                           ;MCAL_Layer/Interrupt/mcal_interrupt_manager.c: 184:         CCP1_ISR();
 11651   0012F2  EC5F  F01C         	call	_CCP1_ISR	;wreg free
 11652   0012F6                     i2l9056:
 11653                           
 11654                           ;MCAL_Layer/Interrupt/mcal_interrupt_manager.c: 186:     if((1 == PIE2bits.CCP2IE) && (1
      +                           == PIR2bits.CCP2IF)){
 11655   0012F6  A0A0               	btfss	160,0,c	;volatile
 11656   0012F8  EF80  F009         	goto	i2u783_41
 11657   0012FC  EF82  F009         	goto	i2u783_40
 11658   001300                     i2u783_41:
 11659   001300  EF8B  F009         	goto	i2l9062
 11660   001304                     i2u783_40:
 11661   001304  A0A1               	btfss	161,0,c	;volatile
 11662   001306  EF87  F009         	goto	i2u784_41
 11663   00130A  EF89  F009         	goto	i2u784_40
 11664   00130E                     i2u784_41:
 11665   00130E  EF8B  F009         	goto	i2l9062
 11666   001312                     i2u784_40:
 11667   001312                     
 11668                           ;MCAL_Layer/Interrupt/mcal_interrupt_manager.c: 187:         CCP2_ISR();
 11669   001312  EC47  F01C         	call	_CCP2_ISR	;wreg free
 11670   001316                     i2l9062:
 11671                           
 11672                           ;MCAL_Layer/Interrupt/mcal_interrupt_manager.c: 191:     if((1 == PIE1bits.TXIE) && (1 =
      +                          = PIR1bits.TXIF)){
 11673   001316  A89D               	btfss	157,4,c	;volatile
 11674   001318  EF90  F009         	goto	i2u785_41
 11675   00131C  EF92  F009         	goto	i2u785_40
 11676   001320                     i2u785_41:
 11677   001320  EF9B  F009         	goto	i2l9068
 11678   001324                     i2u785_40:
 11679   001324  A89E               	btfss	158,4,c	;volatile
 11680   001326  EF97  F009         	goto	i2u786_41
 11681   00132A  EF99  F009         	goto	i2u786_40
 11682   00132E                     i2u786_41:
 11683   00132E  EF9B  F009         	goto	i2l9068
 11684   001332                     i2u786_40:
 11685   001332                     
 11686                           ;MCAL_Layer/Interrupt/mcal_interrupt_manager.c: 192:         EUSART_Tx_ISR();
 11687   001332  EC98  F01D         	call	_EUSART_Tx_ISR	;wreg free
 11688   001336                     i2l9068:
 11689                           
 11690                           ;MCAL_Layer/Interrupt/mcal_interrupt_manager.c: 194:     if((1 == PIE1bits.RCIE) && (1 =
      +                          = PIR1bits.RCIF)){
 11691   001336  AA9D               	btfss	157,5,c	;volatile
 11692   001338  EFA0  F009         	goto	i2u787_41
 11693   00133C  EFA2  F009         	goto	i2u787_40
 11694   001340                     i2u787_41:
 11695   001340  EFAB  F009         	goto	i2l9074
 11696   001344                     i2u787_40:
 11697   001344  AA9E               	btfss	158,5,c	;volatile
 11698   001346  EFA7  F009         	goto	i2u788_41
 11699   00134A  EFA9  F009         	goto	i2u788_40
 11700   00134E                     i2u788_41:
 11701   00134E  EFAB  F009         	goto	i2l9074
 11702   001352                     i2u788_40:
 11703   001352                     
 11704                           ;MCAL_Layer/Interrupt/mcal_interrupt_manager.c: 195:         EUSART_Rx_ISR();
 11705   001352  EC9E  F01D         	call	_EUSART_Rx_ISR	;wreg free
 11706   001356                     i2l9074:
 11707                           
 11708                           ;MCAL_Layer/Interrupt/mcal_interrupt_manager.c: 200:     if((1 == PIE1bits.SSPIE) && (1 
      +                          == PIR1bits.SSPIF)){
 11709   001356  A69D               	btfss	157,3,c	;volatile
 11710   001358  EFB0  F009         	goto	i2u789_41
 11711   00135C  EFB2  F009         	goto	i2u789_40
 11712   001360                     i2u789_41:
 11713   001360  EFBB  F009         	goto	i2l9080
 11714   001364                     i2u789_40:
 11715   001364  A69E               	btfss	158,3,c	;volatile
 11716   001366  EFB7  F009         	goto	i2u790_41
 11717   00136A  EFB9  F009         	goto	i2u790_40
 11718   00136E                     i2u790_41:
 11719   00136E  EFBB  F009         	goto	i2l9080
 11720   001372                     i2u790_40:
 11721   001372                     
 11722                           ;MCAL_Layer/Interrupt/mcal_interrupt_manager.c: 201:         MSSP_I2C_ISR();
 11723   001372  EC9C  F01D         	call	_MSSP_I2C_ISR	;wreg free
 11724   001376                     i2l9080:
 11725                           
 11726                           ;MCAL_Layer/Interrupt/mcal_interrupt_manager.c: 203:     if((1 == PIE2bits.BCLIE) && (1 
      +                          == PIR2bits.BCLIF)){
 11727   001376  A6A0               	btfss	160,3,c	;volatile
 11728   001378  EFC0  F009         	goto	i2u791_41
 11729   00137C  EFC2  F009         	goto	i2u791_40
 11730   001380                     i2u791_41:
 11731   001380  EFCB  F009         	goto	i2l1352
 11732   001384                     i2u791_40:
 11733   001384  A6A1               	btfss	161,3,c	;volatile
 11734   001386  EFC7  F009         	goto	i2u792_41
 11735   00138A  EFC9  F009         	goto	i2u792_40
 11736   00138E                     i2u792_41:
 11737   00138E  EFCB  F009         	goto	i2l1352
 11738   001392                     i2u792_40:
 11739   001392                     
 11740                           ;MCAL_Layer/Interrupt/mcal_interrupt_manager.c: 204:         MSSP_I2C_BC_ISR();
 11741   001392  EC9D  F01D         	call	_MSSP_I2C_BC_ISR	;wreg free
 11742   001396                     i2l1352:
 11743   001396  C00B  FFDA         	movff	??_InterruptManagerHigh+3,fsr2h
 11744   00139A  C00A  FFD9         	movff	??_InterruptManagerHigh+2,fsr2l
 11745   00139E  C009  FFFB         	movff	??_InterruptManagerHigh+1,pclatu
 11746   0013A2  C008  FFFA         	movff	??_InterruptManagerHigh,pclath
 11747   0013A6  9274               	bcf	int$flags,1,c	;clear compiler interrupt flag (level 2)
 11748   0013A8  0011               	retfie		f
 11749   0013AA                     __end_of_InterruptManagerHigh:
 11750                           	callstack 0
 11751                           
 11752 ;; *************** function _TMR3_ISR *****************
 11753 ;; Defined at:
 11754 ;;		line 125 in file "MCAL_Layer/Timer3/hal_timer3.c"
 11755 ;; Parameters:    Size  Location     Type
 11756 ;;		None
 11757 ;; Auto vars:     Size  Location     Type
 11758 ;;		None
 11759 ;; Return value:  Size  Location     Type
 11760 ;;                  1    wreg      void 
 11761 ;; Registers used:
 11762 ;;		wreg, status,2
 11763 ;; Tracked objects:
 11764 ;;		On entry : 0/0
 11765 ;;		On exit  : 0/0
 11766 ;;		Unchanged: 0/0
 11767 ;; Data sizes:     COMRAM   BANK0   BANK1   BANK2   BANK3   BANK4   BANK5   BANK6   BANK7   BANK8   BANK9  BANK10  BANK1
      +1  BANK12  BANK13  BANK14  BANK15
 11768 ;;      Params:         0       0       0       0       0       0       0       0       0       0       0       0       
      +0       0       0       0       0
 11769 ;;      Locals:         0       0       0       0       0       0       0       0       0       0       0       0       
      +0       0       0       0       0
 11770 ;;      Temps:          0       0       0       0       0       0       0       0       0       0       0       0       
      +0       0       0       0       0
 11771 ;;      Totals:         0       0       0       0       0       0       0       0       0       0       0       0       
      +0       0       0       0       0
 11772 ;;Total ram usage:        0 bytes
 11773 ;; Hardware stack levels used: 1
 11774 ;; This function calls:
 11775 ;;		Nothing
 11776 ;; This function is called by:
 11777 ;;		_InterruptManagerHigh
 11778 ;; This function uses a non-reentrant model
 11779 ;;
 11780                           
 11781                           	psect	text60
 11782   003ADC                     __ptext60:
 11783                           	callstack 0
 11784   003ADC                     _TMR3_ISR:
 11785                           	callstack 22
 11786   003ADC                     
 11787                           ;MCAL_Layer/Timer3/hal_timer3.c: 126:     (PIR2bits.TMR3IF=0) ;
 11788   003ADC  92A1               	bcf	161,1,c	;volatile
 11789   003ADE                     
 11790                           ;MCAL_Layer/Timer3/hal_timer3.c: 127:     TMR3H=(timer3_preload) >> 8;
 11791   003ADE  0100               	movlb	0	; () banked
 11792   003AE0  518F               	movf	(_timer3_preload+1)& (0+255),w,b
 11793   003AE2  6EB3               	movwf	179,c	;volatile
 11794   003AE4                     
 11795                           ; BSR set to: 0
 11796                           ;MCAL_Layer/Timer3/hal_timer3.c: 128:     TMR3L=(uint8)(timer3_preload);
 11797   003AE4  C08E  FFB2         	movff	_timer3_preload,4018	;volatile
 11798   003AE8                     
 11799                           ; BSR set to: 0
 11800   003AE8  0012               	return		;funcret
 11801   003AEA                     __end_of_TMR3_ISR:
 11802                           	callstack 0
 11803                           
 11804 ;; *************** function _TMR2_ISR *****************
 11805 ;; Defined at:
 11806 ;;		line 106 in file "MCAL_Layer/Timer2/hal_timer2.c"
 11807 ;; Parameters:    Size  Location     Type
 11808 ;;		None
 11809 ;; Auto vars:     Size  Location     Type
 11810 ;;		None
 11811 ;; Return value:  Size  Location     Type
 11812 ;;                  1    wreg      void 
 11813 ;; Registers used:
 11814 ;;		None
 11815 ;; Tracked objects:
 11816 ;;		On entry : 0/0
 11817 ;;		On exit  : 0/0
 11818 ;;		Unchanged: 0/0
 11819 ;; Data sizes:     COMRAM   BANK0   BANK1   BANK2   BANK3   BANK4   BANK5   BANK6   BANK7   BANK8   BANK9  BANK10  BANK1
      +1  BANK12  BANK13  BANK14  BANK15
 11820 ;;      Params:         0       0       0       0       0       0       0       0       0       0       0       0       
      +0       0       0       0       0
 11821 ;;      Locals:         0       0       0       0       0       0       0       0       0       0       0       0       
      +0       0       0       0       0
 11822 ;;      Temps:          0       0       0       0       0       0       0       0       0       0       0       0       
      +0       0       0       0       0
 11823 ;;      Totals:         0       0       0       0       0       0       0       0       0       0       0       0       
      +0       0       0       0       0
 11824 ;;Total ram usage:        0 bytes
 11825 ;; Hardware stack levels used: 1
 11826 ;; This function calls:
 11827 ;;		Nothing
 11828 ;; This function is called by:
 11829 ;;		_InterruptManagerHigh
 11830 ;; This function uses a non-reentrant model
 11831 ;;
 11832                           
 11833                           	psect	text61
 11834   003B10                     __ptext61:
 11835                           	callstack 0
 11836   003B10                     _TMR2_ISR:
 11837                           	callstack 22
 11838   003B10                     
 11839                           ;MCAL_Layer/Timer2/hal_timer2.c: 107:     (PIR1bits.TMR2IF=0) ;
 11840   003B10  929E               	bcf	158,1,c	;volatile
 11841                           
 11842                           ;MCAL_Layer/Timer2/hal_timer2.c: 108:     TMR2=timer2_preload;
 11843   003B12  C05A  FFCC         	movff	_timer2_preload,4044	;volatile
 11844   003B16  0012               	return		;funcret
 11845   003B18                     __end_of_TMR2_ISR:
 11846                           	callstack 0
 11847                           
 11848 ;; *************** function _TMR1_ISR *****************
 11849 ;; Defined at:
 11850 ;;		line 108 in file "MCAL_Layer/Timer1/hal_timer1.c"
 11851 ;; Parameters:    Size  Location     Type
 11852 ;;		None
 11853 ;; Auto vars:     Size  Location     Type
 11854 ;;		None
 11855 ;; Return value:  Size  Location     Type
 11856 ;;                  1    wreg      void 
 11857 ;; Registers used:
 11858 ;;		wreg, status,2
 11859 ;; Tracked objects:
 11860 ;;		On entry : 0/0
 11861 ;;		On exit  : 0/0
 11862 ;;		Unchanged: 0/0
 11863 ;; Data sizes:     COMRAM   BANK0   BANK1   BANK2   BANK3   BANK4   BANK5   BANK6   BANK7   BANK8   BANK9  BANK10  BANK1
      +1  BANK12  BANK13  BANK14  BANK15
 11864 ;;      Params:         0       0       0       0       0       0       0       0       0       0       0       0       
      +0       0       0       0       0
 11865 ;;      Locals:         0       0       0       0       0       0       0       0       0       0       0       0       
      +0       0       0       0       0
 11866 ;;      Temps:          0       0       0       0       0       0       0       0       0       0       0       0       
      +0       0       0       0       0
 11867 ;;      Totals:         0       0       0       0       0       0       0       0       0       0       0       0       
      +0       0       0       0       0
 11868 ;;Total ram usage:        0 bytes
 11869 ;; Hardware stack levels used: 1
 11870 ;; This function calls:
 11871 ;;		Nothing
 11872 ;; This function is called by:
 11873 ;;		_InterruptManagerHigh
 11874 ;; This function uses a non-reentrant model
 11875 ;;
 11876                           
 11877                           	psect	text62
 11878   003AEA                     __ptext62:
 11879                           	callstack 0
 11880   003AEA                     _TMR1_ISR:
 11881                           	callstack 22
 11882   003AEA                     
 11883                           ;MCAL_Layer/Timer1/hal_timer1.c: 109:     (PIR1bits.TMR1IF=0) ;
 11884   003AEA  909E               	bcf	158,0,c	;volatile
 11885   003AEC                     
 11886                           ;MCAL_Layer/Timer1/hal_timer1.c: 110:     TMR1H=(timer1_preload) >> 8;
 11887   003AEC  0100               	movlb	0	; () banked
 11888   003AEE  5195               	movf	(_timer1_preload+1)& (0+255),w,b
 11889   003AF0  6ECF               	movwf	207,c	;volatile
 11890   003AF2                     
 11891                           ; BSR set to: 0
 11892                           ;MCAL_Layer/Timer1/hal_timer1.c: 111:     TMR1L=(uint8)(timer1_preload);
 11893   003AF2  C094  FFCE         	movff	_timer1_preload,4046	;volatile
 11894   003AF6                     
 11895                           ; BSR set to: 0
 11896   003AF6  0012               	return		;funcret
 11897   003AF8                     __end_of_TMR1_ISR:
 11898                           	callstack 0
 11899                           
 11900 ;; *************** function _TMR0_ISR *****************
 11901 ;; Defined at:
 11902 ;;		line 105 in file "MCAL_Layer/Timer0/hal_timer0.c"
 11903 ;; Parameters:    Size  Location     Type
 11904 ;;		None
 11905 ;; Auto vars:     Size  Location     Type
 11906 ;;		None
 11907 ;; Return value:  Size  Location     Type
 11908 ;;                  1    wreg      void 
 11909 ;; Registers used:
 11910 ;;		wreg, status,2
 11911 ;; Tracked objects:
 11912 ;;		On entry : 0/0
 11913 ;;		On exit  : 0/0
 11914 ;;		Unchanged: 0/0
 11915 ;; Data sizes:     COMRAM   BANK0   BANK1   BANK2   BANK3   BANK4   BANK5   BANK6   BANK7   BANK8   BANK9  BANK10  BANK1
      +1  BANK12  BANK13  BANK14  BANK15
 11916 ;;      Params:         0       0       0       0       0       0       0       0       0       0       0       0       
      +0       0       0       0       0
 11917 ;;      Locals:         0       0       0       0       0       0       0       0       0       0       0       0       
      +0       0       0       0       0
 11918 ;;      Temps:          0       0       0       0       0       0       0       0       0       0       0       0       
      +0       0       0       0       0
 11919 ;;      Totals:         0       0       0       0       0       0       0       0       0       0       0       0       
      +0       0       0       0       0
 11920 ;;Total ram usage:        0 bytes
 11921 ;; Hardware stack levels used: 1
 11922 ;; This function calls:
 11923 ;;		Nothing
 11924 ;; This function is called by:
 11925 ;;		_InterruptManagerHigh
 11926 ;; This function uses a non-reentrant model
 11927 ;;
 11928                           
 11929                           	psect	text63
 11930   003AF8                     __ptext63:
 11931                           	callstack 0
 11932   003AF8                     _TMR0_ISR:
 11933                           	callstack 22
 11934   003AF8                     
 11935                           ;MCAL_Layer/Timer0/hal_timer0.c: 106:     (INTCONbits.TMR0IF=0) ;
 11936   003AF8  94F2               	bcf	242,2,c	;volatile
 11937   003AFA                     
 11938                           ;MCAL_Layer/Timer0/hal_timer0.c: 107:     TMR0H=(timer0_preload) >> 8;
 11939   003AFA  0100               	movlb	0	; () banked
 11940   003AFC  5199               	movf	(_timer0_preload+1)& (0+255),w,b
 11941   003AFE  6ED7               	movwf	215,c	;volatile
 11942   003B00                     
 11943                           ; BSR set to: 0
 11944                           ;MCAL_Layer/Timer0/hal_timer0.c: 108:     TMR0L=(uint8)(timer0_preload);
 11945   003B00  C098  FFD6         	movff	_timer0_preload,4054	;volatile
 11946   003B04                     
 11947                           ; BSR set to: 0
 11948   003B04  0012               	return		;funcret
 11949   003B06                     __end_of_TMR0_ISR:
 11950                           	callstack 0
 11951                           
 11952 ;; *************** function _RB7_ISR *****************
 11953 ;; Defined at:
 11954 ;;		line 128 in file "MCAL_Layer/Interrupt/mcal_external_interrupt.c"
 11955 ;; Parameters:    Size  Location     Type
 11956 ;;  RB7_source      1    wreg     unsigned char 
 11957 ;; Auto vars:     Size  Location     Type
 11958 ;;  RB7_source      1    0[COMRAM] unsigned char 
 11959 ;; Return value:  Size  Location     Type
 11960 ;;                  1    wreg      void 
 11961 ;; Registers used:
 11962 ;;		wreg, status,2, status,0
 11963 ;; Tracked objects:
 11964 ;;		On entry : 0/0
 11965 ;;		On exit  : 0/0
 11966 ;;		Unchanged: 0/0
 11967 ;; Data sizes:     COMRAM   BANK0   BANK1   BANK2   BANK3   BANK4   BANK5   BANK6   BANK7   BANK8   BANK9  BANK10  BANK1
      +1  BANK12  BANK13  BANK14  BANK15
 11968 ;;      Params:         0       0       0       0       0       0       0       0       0       0       0       0       
      +0       0       0       0       0
 11969 ;;      Locals:         1       0       0       0       0       0       0       0       0       0       0       0       
      +0       0       0       0       0
 11970 ;;      Temps:          0       0       0       0       0       0       0       0       0       0       0       0       
      +0       0       0       0       0
 11971 ;;      Totals:         1       0       0       0       0       0       0       0       0       0       0       0       
      +0       0       0       0       0
 11972 ;;Total ram usage:        1 bytes
 11973 ;; Hardware stack levels used: 1
 11974 ;; This function calls:
 11975 ;;		Nothing
 11976 ;; This function is called by:
 11977 ;;		_InterruptManagerHigh
 11978 ;; This function uses a non-reentrant model
 11979 ;;
 11980                           
 11981                           	psect	text64
 11982   003A4C                     __ptext64:
 11983                           	callstack 0
 11984   003A4C                     _RB7_ISR:
 11985                           	callstack 22
 11986                           
 11987                           ; BSR set to: 0
 11988                           ;incstack = 0
 11989                           ;RB7_ISR@RB7_source stored from wreg
 11990   003A4C  6E01               	movwf	RB7_ISR@RB7_source^0,c
 11991   003A4E                     
 11992                           ;MCAL_Layer/Interrupt/mcal_external_interrupt.c: 130:     (INTCONbits.RBIF=0) ;
 11993   003A4E  90F2               	bcf	242,0,c	;volatile
 11994   003A50                     
 11995                           ;MCAL_Layer/Interrupt/mcal_external_interrupt.c: 132:     if (0 == RB7_source){
 11996   003A50  5001               	movf	RB7_ISR@RB7_source^0,w,c
 11997   003A52  A4D8               	btfss	status,2,c
 11998   003A54  EF2E  F01D         	goto	i2u649_41
 11999   003A58  EF30  F01D         	goto	i2u649_40
 12000   003A5C                     i2u649_41:
 12001   003A5C  EF32  F01D         	goto	i2l8044
 12002   003A60                     i2u649_40:
 12003   003A60  EF32  F01D         	goto	i2l1119
 12004   003A64                     i2l8044:
 12005   003A64                     i2l1119:
 12006   003A64  0012               	return		;funcret
 12007   003A66                     __end_of_RB7_ISR:
 12008                           	callstack 0
 12009                           
 12010 ;; *************** function _RB6_ISR *****************
 12011 ;; Defined at:
 12012 ;;		line 110 in file "MCAL_Layer/Interrupt/mcal_external_interrupt.c"
 12013 ;; Parameters:    Size  Location     Type
 12014 ;;  RB6_source      1    wreg     unsigned char 
 12015 ;; Auto vars:     Size  Location     Type
 12016 ;;  RB6_source      1    0[COMRAM] unsigned char 
 12017 ;; Return value:  Size  Location     Type
 12018 ;;                  1    wreg      void 
 12019 ;; Registers used:
 12020 ;;		wreg, status,2, status,0
 12021 ;; Tracked objects:
 12022 ;;		On entry : 0/0
 12023 ;;		On exit  : 0/0
 12024 ;;		Unchanged: 0/0
 12025 ;; Data sizes:     COMRAM   BANK0   BANK1   BANK2   BANK3   BANK4   BANK5   BANK6   BANK7   BANK8   BANK9  BANK10  BANK1
      +1  BANK12  BANK13  BANK14  BANK15
 12026 ;;      Params:         0       0       0       0       0       0       0       0       0       0       0       0       
      +0       0       0       0       0
 12027 ;;      Locals:         1       0       0       0       0       0       0       0       0       0       0       0       
      +0       0       0       0       0
 12028 ;;      Temps:          0       0       0       0       0       0       0       0       0       0       0       0       
      +0       0       0       0       0
 12029 ;;      Totals:         1       0       0       0       0       0       0       0       0       0       0       0       
      +0       0       0       0       0
 12030 ;;Total ram usage:        1 bytes
 12031 ;; Hardware stack levels used: 1
 12032 ;; This function calls:
 12033 ;;		Nothing
 12034 ;; This function is called by:
 12035 ;;		_InterruptManagerHigh
 12036 ;; This function uses a non-reentrant model
 12037 ;;
 12038                           
 12039                           	psect	text65
 12040   003A66                     __ptext65:
 12041                           	callstack 0
 12042   003A66                     _RB6_ISR:
 12043                           	callstack 22
 12044                           
 12045                           ;incstack = 0
 12046                           ;RB6_ISR@RB6_source stored from wreg
 12047   003A66  6E01               	movwf	RB6_ISR@RB6_source^0,c
 12048   003A68                     
 12049                           ;MCAL_Layer/Interrupt/mcal_external_interrupt.c: 112:     (INTCONbits.RBIF=0) ;
 12050   003A68  90F2               	bcf	242,0,c	;volatile
 12051   003A6A                     
 12052                           ;MCAL_Layer/Interrupt/mcal_external_interrupt.c: 114:     if (0 == RB6_source){
 12053   003A6A  5001               	movf	RB6_ISR@RB6_source^0,w,c
 12054   003A6C  A4D8               	btfss	status,2,c
 12055   003A6E  EF3B  F01D         	goto	i2u648_41
 12056   003A72  EF3D  F01D         	goto	i2u648_40
 12057   003A76                     i2u648_41:
 12058   003A76  EF3F  F01D         	goto	i2l8030
 12059   003A7A                     i2u648_40:
 12060   003A7A  EF3F  F01D         	goto	i2l1108
 12061   003A7E                     i2l8030:
 12062   003A7E                     i2l1108:
 12063   003A7E  0012               	return		;funcret
 12064   003A80                     __end_of_RB6_ISR:
 12065                           	callstack 0
 12066                           
 12067 ;; *************** function _RB5_ISR *****************
 12068 ;; Defined at:
 12069 ;;		line 92 in file "MCAL_Layer/Interrupt/mcal_external_interrupt.c"
 12070 ;; Parameters:    Size  Location     Type
 12071 ;;  RB5_source      1    wreg     unsigned char 
 12072 ;; Auto vars:     Size  Location     Type
 12073 ;;  RB5_source      1    0[COMRAM] unsigned char 
 12074 ;; Return value:  Size  Location     Type
 12075 ;;                  1    wreg      void 
 12076 ;; Registers used:
 12077 ;;		wreg, status,2, status,0
 12078 ;; Tracked objects:
 12079 ;;		On entry : 0/0
 12080 ;;		On exit  : 0/0
 12081 ;;		Unchanged: 0/0
 12082 ;; Data sizes:     COMRAM   BANK0   BANK1   BANK2   BANK3   BANK4   BANK5   BANK6   BANK7   BANK8   BANK9  BANK10  BANK1
      +1  BANK12  BANK13  BANK14  BANK15
 12083 ;;      Params:         0       0       0       0       0       0       0       0       0       0       0       0       
      +0       0       0       0       0
 12084 ;;      Locals:         1       0       0       0       0       0       0       0       0       0       0       0       
      +0       0       0       0       0
 12085 ;;      Temps:          0       0       0       0       0       0       0       0       0       0       0       0       
      +0       0       0       0       0
 12086 ;;      Totals:         1       0       0       0       0       0       0       0       0       0       0       0       
      +0       0       0       0       0
 12087 ;;Total ram usage:        1 bytes
 12088 ;; Hardware stack levels used: 1
 12089 ;; This function calls:
 12090 ;;		Nothing
 12091 ;; This function is called by:
 12092 ;;		_InterruptManagerHigh
 12093 ;; This function uses a non-reentrant model
 12094 ;;
 12095                           
 12096                           	psect	text66
 12097   003A80                     __ptext66:
 12098                           	callstack 0
 12099   003A80                     _RB5_ISR:
 12100                           	callstack 22
 12101                           
 12102                           ;incstack = 0
 12103                           ;RB5_ISR@RB5_source stored from wreg
 12104   003A80  6E01               	movwf	RB5_ISR@RB5_source^0,c
 12105   003A82                     
 12106                           ;MCAL_Layer/Interrupt/mcal_external_interrupt.c: 94:     (INTCONbits.RBIF=0) ;
 12107   003A82  90F2               	bcf	242,0,c	;volatile
 12108   003A84                     
 12109                           ;MCAL_Layer/Interrupt/mcal_external_interrupt.c: 96:     if (0 == RB5_source){
 12110   003A84  5001               	movf	RB5_ISR@RB5_source^0,w,c
 12111   003A86  A4D8               	btfss	status,2,c
 12112   003A88  EF48  F01D         	goto	i2u647_41
 12113   003A8C  EF4A  F01D         	goto	i2u647_40
 12114   003A90                     i2u647_41:
 12115   003A90  EF4C  F01D         	goto	i2l8016
 12116   003A94                     i2u647_40:
 12117   003A94  EF4C  F01D         	goto	i2l1097
 12118   003A98                     i2l8016:
 12119   003A98                     i2l1097:
 12120   003A98  0012               	return		;funcret
 12121   003A9A                     __end_of_RB5_ISR:
 12122                           	callstack 0
 12123                           
 12124 ;; *************** function _RB4_ISR *****************
 12125 ;; Defined at:
 12126 ;;		line 74 in file "MCAL_Layer/Interrupt/mcal_external_interrupt.c"
 12127 ;; Parameters:    Size  Location     Type
 12128 ;;  RB4_source      1    wreg     unsigned char 
 12129 ;; Auto vars:     Size  Location     Type
 12130 ;;  RB4_source      1    0[COMRAM] unsigned char 
 12131 ;; Return value:  Size  Location     Type
 12132 ;;                  1    wreg      void 
 12133 ;; Registers used:
 12134 ;;		wreg, status,2, status,0
 12135 ;; Tracked objects:
 12136 ;;		On entry : 0/0
 12137 ;;		On exit  : 0/0
 12138 ;;		Unchanged: 0/0
 12139 ;; Data sizes:     COMRAM   BANK0   BANK1   BANK2   BANK3   BANK4   BANK5   BANK6   BANK7   BANK8   BANK9  BANK10  BANK1
      +1  BANK12  BANK13  BANK14  BANK15
 12140 ;;      Params:         0       0       0       0       0       0       0       0       0       0       0       0       
      +0       0       0       0       0
 12141 ;;      Locals:         1       0       0       0       0       0       0       0       0       0       0       0       
      +0       0       0       0       0
 12142 ;;      Temps:          0       0       0       0       0       0       0       0       0       0       0       0       
      +0       0       0       0       0
 12143 ;;      Totals:         1       0       0       0       0       0       0       0       0       0       0       0       
      +0       0       0       0       0
 12144 ;;Total ram usage:        1 bytes
 12145 ;; Hardware stack levels used: 1
 12146 ;; This function calls:
 12147 ;;		Nothing
 12148 ;; This function is called by:
 12149 ;;		_InterruptManagerHigh
 12150 ;; This function uses a non-reentrant model
 12151 ;;
 12152                           
 12153                           	psect	text67
 12154   003A9A                     __ptext67:
 12155                           	callstack 0
 12156   003A9A                     _RB4_ISR:
 12157                           	callstack 22
 12158                           
 12159                           ;incstack = 0
 12160                           ;RB4_ISR@RB4_source stored from wreg
 12161   003A9A  6E01               	movwf	RB4_ISR@RB4_source^0,c
 12162   003A9C                     
 12163                           ;MCAL_Layer/Interrupt/mcal_external_interrupt.c: 76:     (INTCONbits.RBIF=0) ;
 12164   003A9C  90F2               	bcf	242,0,c	;volatile
 12165   003A9E                     
 12166                           ;MCAL_Layer/Interrupt/mcal_external_interrupt.c: 78:     if (0 == RB4_source){
 12167   003A9E  5001               	movf	RB4_ISR@RB4_source^0,w,c
 12168   003AA0  A4D8               	btfss	status,2,c
 12169   003AA2  EF55  F01D         	goto	i2u646_41
 12170   003AA6  EF57  F01D         	goto	i2u646_40
 12171   003AAA                     i2u646_41:
 12172   003AAA  EF59  F01D         	goto	i2l8002
 12173   003AAE                     i2u646_40:
 12174   003AAE  EF59  F01D         	goto	i2l1086
 12175   003AB2                     i2l8002:
 12176   003AB2                     i2l1086:
 12177   003AB2  0012               	return		;funcret
 12178   003AB4                     __end_of_RB4_ISR:
 12179                           	callstack 0
 12180                           
 12181 ;; *************** function _MSSP_I2C_ISR *****************
 12182 ;; Defined at:
 12183 ;;		line 270 in file "MCAL_Layer/I2C/hal_i2c.c"
 12184 ;; Parameters:    Size  Location     Type
 12185 ;;		None
 12186 ;; Auto vars:     Size  Location     Type
 12187 ;;		None
 12188 ;; Return value:  Size  Location     Type
 12189 ;;                  1    wreg      void 
 12190 ;; Registers used:
 12191 ;;		None
 12192 ;; Tracked objects:
 12193 ;;		On entry : 0/0
 12194 ;;		On exit  : 0/0
 12195 ;;		Unchanged: 0/0
 12196 ;; Data sizes:     COMRAM   BANK0   BANK1   BANK2   BANK3   BANK4   BANK5   BANK6   BANK7   BANK8   BANK9  BANK10  BANK1
      +1  BANK12  BANK13  BANK14  BANK15
 12197 ;;      Params:         0       0       0       0       0       0       0       0       0       0       0       0       
      +0       0       0       0       0
 12198 ;;      Locals:         0       0       0       0       0       0       0       0       0       0       0       0       
      +0       0       0       0       0
 12199 ;;      Temps:          0       0       0       0       0       0       0       0       0       0       0       0       
      +0       0       0       0       0
 12200 ;;      Totals:         0       0       0       0       0       0       0       0       0       0       0       0       
      +0       0       0       0       0
 12201 ;;Total ram usage:        0 bytes
 12202 ;; Hardware stack levels used: 1
 12203 ;; This function calls:
 12204 ;;		Nothing
 12205 ;; This function is called by:
 12206 ;;		_InterruptManagerHigh
 12207 ;; This function uses a non-reentrant model
 12208 ;;
 12209                           
 12210                           	psect	text68
 12211   003B38                     __ptext68:
 12212                           	callstack 0
 12213   003B38                     _MSSP_I2C_ISR:
 12214                           	callstack 22
 12215   003B38  0012               	return		;funcret
 12216   003B3A                     __end_of_MSSP_I2C_ISR:
 12217                           	callstack 0
 12218                           
 12219 ;; *************** function _MSSP_I2C_BC_ISR *****************
 12220 ;; Defined at:
 12221 ;;		line 279 in file "MCAL_Layer/I2C/hal_i2c.c"
 12222 ;; Parameters:    Size  Location     Type
 12223 ;;		None
 12224 ;; Auto vars:     Size  Location     Type
 12225 ;;		None
 12226 ;; Return value:  Size  Location     Type
 12227 ;;                  1    wreg      void 
 12228 ;; Registers used:
 12229 ;;		None
 12230 ;; Tracked objects:
 12231 ;;		On entry : 0/0
 12232 ;;		On exit  : 0/0
 12233 ;;		Unchanged: 0/0
 12234 ;; Data sizes:     COMRAM   BANK0   BANK1   BANK2   BANK3   BANK4   BANK5   BANK6   BANK7   BANK8   BANK9  BANK10  BANK1
      +1  BANK12  BANK13  BANK14  BANK15
 12235 ;;      Params:         0       0       0       0       0       0       0       0       0       0       0       0       
      +0       0       0       0       0
 12236 ;;      Locals:         0       0       0       0       0       0       0       0       0       0       0       0       
      +0       0       0       0       0
 12237 ;;      Temps:          0       0       0       0       0       0       0       0       0       0       0       0       
      +0       0       0       0       0
 12238 ;;      Totals:         0       0       0       0       0       0       0       0       0       0       0       0       
      +0       0       0       0       0
 12239 ;;Total ram usage:        0 bytes
 12240 ;; Hardware stack levels used: 1
 12241 ;; This function calls:
 12242 ;;		Nothing
 12243 ;; This function is called by:
 12244 ;;		_InterruptManagerHigh
 12245 ;; This function uses a non-reentrant model
 12246 ;;
 12247                           
 12248                           	psect	text69
 12249   003B3A                     __ptext69:
 12250                           	callstack 0
 12251   003B3A                     _MSSP_I2C_BC_ISR:
 12252                           	callstack 22
 12253   003B3A  0012               	return		;funcret
 12254   003B3C                     __end_of_MSSP_I2C_BC_ISR:
 12255                           	callstack 0
 12256                           
 12257 ;; *************** function _INT2_ISR *****************
 12258 ;; Defined at:
 12259 ;;		line 64 in file "MCAL_Layer/Interrupt/mcal_external_interrupt.c"
 12260 ;; Parameters:    Size  Location     Type
 12261 ;;		None
 12262 ;; Auto vars:     Size  Location     Type
 12263 ;;		None
 12264 ;; Return value:  Size  Location     Type
 12265 ;;                  1    wreg      void 
 12266 ;; Registers used:
 12267 ;;		None
 12268 ;; Tracked objects:
 12269 ;;		On entry : 0/0
 12270 ;;		On exit  : 0/0
 12271 ;;		Unchanged: 0/0
 12272 ;; Data sizes:     COMRAM   BANK0   BANK1   BANK2   BANK3   BANK4   BANK5   BANK6   BANK7   BANK8   BANK9  BANK10  BANK1
      +1  BANK12  BANK13  BANK14  BANK15
 12273 ;;      Params:         0       0       0       0       0       0       0       0       0       0       0       0       
      +0       0       0       0       0
 12274 ;;      Locals:         0       0       0       0       0       0       0       0       0       0       0       0       
      +0       0       0       0       0
 12275 ;;      Temps:          0       0       0       0       0       0       0       0       0       0       0       0       
      +0       0       0       0       0
 12276 ;;      Totals:         0       0       0       0       0       0       0       0       0       0       0       0       
      +0       0       0       0       0
 12277 ;;Total ram usage:        0 bytes
 12278 ;; Hardware stack levels used: 1
 12279 ;; This function calls:
 12280 ;;		Nothing
 12281 ;; This function is called by:
 12282 ;;		_InterruptManagerHigh
 12283 ;; This function uses a non-reentrant model
 12284 ;;
 12285                           
 12286                           	psect	text70
 12287   003B24                     __ptext70:
 12288                           	callstack 0
 12289   003B24                     _INT2_ISR:
 12290                           	callstack 22
 12291   003B24                     
 12292                           ;MCAL_Layer/Interrupt/mcal_external_interrupt.c: 66:     (INTCON3bits.INT2IF=0) ;
 12293   003B24  92F0               	bcf	240,1,c	;volatile
 12294   003B26  0012               	return		;funcret
 12295   003B28                     __end_of_INT2_ISR:
 12296                           	callstack 0
 12297                           
 12298 ;; *************** function _INT1_ISR *****************
 12299 ;; Defined at:
 12300 ;;		line 54 in file "MCAL_Layer/Interrupt/mcal_external_interrupt.c"
 12301 ;; Parameters:    Size  Location     Type
 12302 ;;		None
 12303 ;; Auto vars:     Size  Location     Type
 12304 ;;		None
 12305 ;; Return value:  Size  Location     Type
 12306 ;;                  1    wreg      void 
 12307 ;; Registers used:
 12308 ;;		None
 12309 ;; Tracked objects:
 12310 ;;		On entry : 0/0
 12311 ;;		On exit  : 0/0
 12312 ;;		Unchanged: 0/0
 12313 ;; Data sizes:     COMRAM   BANK0   BANK1   BANK2   BANK3   BANK4   BANK5   BANK6   BANK7   BANK8   BANK9  BANK10  BANK1
      +1  BANK12  BANK13  BANK14  BANK15
 12314 ;;      Params:         0       0       0       0       0       0       0       0       0       0       0       0       
      +0       0       0       0       0
 12315 ;;      Locals:         0       0       0       0       0       0       0       0       0       0       0       0       
      +0       0       0       0       0
 12316 ;;      Temps:          0       0       0       0       0       0       0       0       0       0       0       0       
      +0       0       0       0       0
 12317 ;;      Totals:         0       0       0       0       0       0       0       0       0       0       0       0       
      +0       0       0       0       0
 12318 ;;Total ram usage:        0 bytes
 12319 ;; Hardware stack levels used: 1
 12320 ;; This function calls:
 12321 ;;		Nothing
 12322 ;; This function is called by:
 12323 ;;		_InterruptManagerHigh
 12324 ;; This function uses a non-reentrant model
 12325 ;;
 12326                           
 12327                           	psect	text71
 12328   003B28                     __ptext71:
 12329                           	callstack 0
 12330   003B28                     _INT1_ISR:
 12331                           	callstack 22
 12332   003B28                     
 12333                           ;MCAL_Layer/Interrupt/mcal_external_interrupt.c: 56:     (INTCON3bits.INT1IF=0) ;
 12334   003B28  90F0               	bcf	240,0,c	;volatile
 12335   003B2A  0012               	return		;funcret
 12336   003B2C                     __end_of_INT1_ISR:
 12337                           	callstack 0
 12338                           
 12339 ;; *************** function _INT0_ISR *****************
 12340 ;; Defined at:
 12341 ;;		line 44 in file "MCAL_Layer/Interrupt/mcal_external_interrupt.c"
 12342 ;; Parameters:    Size  Location     Type
 12343 ;;		None
 12344 ;; Auto vars:     Size  Location     Type
 12345 ;;		None
 12346 ;; Return value:  Size  Location     Type
 12347 ;;                  1    wreg      void 
 12348 ;; Registers used:
 12349 ;;		None
 12350 ;; Tracked objects:
 12351 ;;		On entry : 0/0
 12352 ;;		On exit  : 0/0
 12353 ;;		Unchanged: 0/0
 12354 ;; Data sizes:     COMRAM   BANK0   BANK1   BANK2   BANK3   BANK4   BANK5   BANK6   BANK7   BANK8   BANK9  BANK10  BANK1
      +1  BANK12  BANK13  BANK14  BANK15
 12355 ;;      Params:         0       0       0       0       0       0       0       0       0       0       0       0       
      +0       0       0       0       0
 12356 ;;      Locals:         0       0       0       0       0       0       0       0       0       0       0       0       
      +0       0       0       0       0
 12357 ;;      Temps:          0       0       0       0       0       0       0       0       0       0       0       0       
      +0       0       0       0       0
 12358 ;;      Totals:         0       0       0       0       0       0       0       0       0       0       0       0       
      +0       0       0       0       0
 12359 ;;Total ram usage:        0 bytes
 12360 ;; Hardware stack levels used: 1
 12361 ;; This function calls:
 12362 ;;		Nothing
 12363 ;; This function is called by:
 12364 ;;		_InterruptManagerHigh
 12365 ;; This function uses a non-reentrant model
 12366 ;;
 12367                           
 12368                           	psect	text72
 12369   003B2C                     __ptext72:
 12370                           	callstack 0
 12371   003B2C                     _INT0_ISR:
 12372                           	callstack 22
 12373   003B2C                     
 12374                           ;MCAL_Layer/Interrupt/mcal_external_interrupt.c: 46:     (INTCONbits.INT0IF=0) ;
 12375   003B2C  92F2               	bcf	242,1,c	;volatile
 12376   003B2E  0012               	return		;funcret
 12377   003B30                     __end_of_INT0_ISR:
 12378                           	callstack 0
 12379                           
 12380 ;; *************** function _EUSART_Tx_ISR *****************
 12381 ;; Defined at:
 12382 ;;		line 262 in file "MCAL_Layer/USART/hal_usart.c"
 12383 ;; Parameters:    Size  Location     Type
 12384 ;;		None
 12385 ;; Auto vars:     Size  Location     Type
 12386 ;;		None
 12387 ;; Return value:  Size  Location     Type
 12388 ;;                  1    wreg      void 
 12389 ;; Registers used:
 12390 ;;		None
 12391 ;; Tracked objects:
 12392 ;;		On entry : 0/0
 12393 ;;		On exit  : 0/0
 12394 ;;		Unchanged: 0/0
 12395 ;; Data sizes:     COMRAM   BANK0   BANK1   BANK2   BANK3   BANK4   BANK5   BANK6   BANK7   BANK8   BANK9  BANK10  BANK1
      +1  BANK12  BANK13  BANK14  BANK15
 12396 ;;      Params:         0       0       0       0       0       0       0       0       0       0       0       0       
      +0       0       0       0       0
 12397 ;;      Locals:         0       0       0       0       0       0       0       0       0       0       0       0       
      +0       0       0       0       0
 12398 ;;      Temps:          0       0       0       0       0       0       0       0       0       0       0       0       
      +0       0       0       0       0
 12399 ;;      Totals:         0       0       0       0       0       0       0       0       0       0       0       0       
      +0       0       0       0       0
 12400 ;;Total ram usage:        0 bytes
 12401 ;; Hardware stack levels used: 1
 12402 ;; This function calls:
 12403 ;;		Nothing
 12404 ;; This function is called by:
 12405 ;;		_InterruptManagerHigh
 12406 ;; This function uses a non-reentrant model
 12407 ;;
 12408                           
 12409                           	psect	text73
 12410   003B30                     __ptext73:
 12411                           	callstack 0
 12412   003B30                     _EUSART_Tx_ISR:
 12413                           	callstack 22
 12414   003B30                     
 12415                           ;MCAL_Layer/USART/hal_usart.c: 263:     (PIE1bits.TXIE=0);
 12416   003B30  989D               	bcf	157,4,c	;volatile
 12417   003B32  0012               	return		;funcret
 12418   003B34                     __end_of_EUSART_Tx_ISR:
 12419                           	callstack 0
 12420                           
 12421 ;; *************** function _EUSART_Rx_ISR *****************
 12422 ;; Defined at:
 12423 ;;		line 269 in file "MCAL_Layer/USART/hal_usart.c"
 12424 ;; Parameters:    Size  Location     Type
 12425 ;;		None
 12426 ;; Auto vars:     Size  Location     Type
 12427 ;;		None
 12428 ;; Return value:  Size  Location     Type
 12429 ;;                  1    wreg      void 
 12430 ;; Registers used:
 12431 ;;		wreg, status,2, status,0
 12432 ;; Tracked objects:
 12433 ;;		On entry : 0/0
 12434 ;;		On exit  : 0/0
 12435 ;;		Unchanged: 0/0
 12436 ;; Data sizes:     COMRAM   BANK0   BANK1   BANK2   BANK3   BANK4   BANK5   BANK6   BANK7   BANK8   BANK9  BANK10  BANK1
      +1  BANK12  BANK13  BANK14  BANK15
 12437 ;;      Params:         0       0       0       0       0       0       0       0       0       0       0       0       
      +0       0       0       0       0
 12438 ;;      Locals:         0       0       0       0       0       0       0       0       0       0       0       0       
      +0       0       0       0       0
 12439 ;;      Temps:          0       0       0       0       0       0       0       0       0       0       0       0       
      +0       0       0       0       0
 12440 ;;      Totals:         0       0       0       0       0       0       0       0       0       0       0       0       
      +0       0       0       0       0
 12441 ;;Total ram usage:        0 bytes
 12442 ;; Hardware stack levels used: 1
 12443 ;; This function calls:
 12444 ;;		Nothing
 12445 ;; This function is called by:
 12446 ;;		_InterruptManagerHigh
 12447 ;; This function uses a non-reentrant model
 12448 ;;
 12449                           
 12450                           	psect	text74
 12451   003B3C                     __ptext74:
 12452                           	callstack 0
 12453   003B3C                     _EUSART_Rx_ISR:
 12454                           	callstack 22
 12455   003B3C  0012               	return		;funcret
 12456   003B3E                     __end_of_EUSART_Rx_ISR:
 12457                           	callstack 0
 12458                           
 12459 ;; *************** function _CCP2_ISR *****************
 12460 ;; Defined at:
 12461 ;;		line 20 in file "MCAL_Layer/CCP1/hal_ccp1.c"
 12462 ;; Parameters:    Size  Location     Type
 12463 ;;		None
 12464 ;; Auto vars:     Size  Location     Type
 12465 ;;		None
 12466 ;; Return value:  Size  Location     Type
 12467 ;;                  1    wreg      void 
 12468 ;; Registers used:
 12469 ;;		wreg, fsr2l, fsr2h, status,2, status,0, pcl, pclath, pclatu, tosl, cstack
 12470 ;; Tracked objects:
 12471 ;;		On entry : 0/0
 12472 ;;		On exit  : 0/0
 12473 ;;		Unchanged: 0/0
 12474 ;; Data sizes:     COMRAM   BANK0   BANK1   BANK2   BANK3   BANK4   BANK5   BANK6   BANK7   BANK8   BANK9  BANK10  BANK1
      +1  BANK12  BANK13  BANK14  BANK15
 12475 ;;      Params:         0       0       0       0       0       0       0       0       0       0       0       0       
      +0       0       0       0       0
 12476 ;;      Locals:         0       0       0       0       0       0       0       0       0       0       0       0       
      +0       0       0       0       0
 12477 ;;      Temps:          0       0       0       0       0       0       0       0       0       0       0       0       
      +0       0       0       0       0
 12478 ;;      Totals:         0       0       0       0       0       0       0       0       0       0       0       0       
      +0       0       0       0       0
 12479 ;;Total ram usage:        0 bytes
 12480 ;; Hardware stack levels used: 1
 12481 ;; Hardware stack levels required when called: 2
 12482 ;; This function calls:
 12483 ;;		NULL
 12484 ;;		_CCP2_DefaultInterruptHandler
 12485 ;; This function is called by:
 12486 ;;		_InterruptManagerHigh
 12487 ;; This function uses a non-reentrant model
 12488 ;;
 12489                           
 12490                           	psect	text75
 12491   00388E                     __ptext75:
 12492                           	callstack 0
 12493   00388E                     _CCP2_ISR:
 12494                           	callstack 20
 12495   00388E                     
 12496                           ;MCAL_Layer/CCP1/hal_ccp1.c: 21:     (PIR2bits.CCP2IF=0) ;
 12497   00388E  90A1               	bcf	161,0,c	;volatile
 12498   003890                     
 12499                           ;MCAL_Layer/CCP1/hal_ccp1.c: 22:     if(CCP2_Interrupt_Handler){
 12500   003890  0100               	movlb	0	; () banked
 12501   003892  51B4               	movf	_CCP2_Interrupt_Handler& (0+255),w,b
 12502   003894  11B5               	iorwf	(_CCP2_Interrupt_Handler+1)& (0+255),w,b
 12503   003896  B4D8               	btfsc	status,2,c
 12504   003898  EF50  F01C         	goto	i2u642_41
 12505   00389C  EF52  F01C         	goto	i2u642_40
 12506   0038A0                     i2u642_41:
 12507   0038A0  EF5E  F01C         	goto	i2l644
 12508   0038A4                     i2u642_40:
 12509   0038A4                     
 12510                           ; BSR set to: 0
 12511                           ;MCAL_Layer/CCP1/hal_ccp1.c: 23:         CCP2_Interrupt_Handler();
 12512   0038A4  D802               	call	i2u643_48
 12513   0038A6  EF5E  F01C         	goto	i2u643_49
 12514   0038AA                     i2u643_48:
 12515   0038AA  0005               	push	
 12516   0038AC  6EFA               	movwf	pclath,c
 12517   0038AE  51B4               	movf	_CCP2_Interrupt_Handler& (0+255),w,b
 12518   0038B0  6EFD               	movwf	tosl,c
 12519   0038B2  51B5               	movf	(_CCP2_Interrupt_Handler+1)& (0+255),w,b
 12520   0038B4  6EFE               	movwf	tosh,c
 12521   0038B6  6AFF               	clrf	tosu,c
 12522   0038B8  50FA               	movf	pclath,w,c
 12523   0038BA  0012               	return		;indir
 12524   0038BC                     i2u643_49:
 12525   0038BC                     i2l644:
 12526   0038BC  0012               	return		;funcret
 12527   0038BE                     __end_of_CCP2_ISR:
 12528                           	callstack 0
 12529                           
 12530 ;; *************** function _CCP2_DefaultInterruptHandler *****************
 12531 ;; Defined at:
 12532 ;;		line 181 in file "ECU_Layer/ecu_layer_init.c"
 12533 ;; Parameters:    Size  Location     Type
 12534 ;;		None
 12535 ;; Auto vars:     Size  Location     Type
 12536 ;;		None
 12537 ;; Return value:  Size  Location     Type
 12538 ;;                  1    wreg      void 
 12539 ;; Registers used:
 12540 ;;		wreg, fsr2l, fsr2h, status,2, status,0, cstack
 12541 ;; Tracked objects:
 12542 ;;		On entry : 0/0
 12543 ;;		On exit  : 0/0
 12544 ;;		Unchanged: 0/0
 12545 ;; Data sizes:     COMRAM   BANK0   BANK1   BANK2   BANK3   BANK4   BANK5   BANK6   BANK7   BANK8   BANK9  BANK10  BANK1
      +1  BANK12  BANK13  BANK14  BANK15
 12546 ;;      Params:         0       0       0       0       0       0       0       0       0       0       0       0       
      +0       0       0       0       0
 12547 ;;      Locals:         0       0       0       0       0       0       0       0       0       0       0       0       
      +0       0       0       0       0
 12548 ;;      Temps:          0       0       0       0       0       0       0       0       0       0       0       0       
      +0       0       0       0       0
 12549 ;;      Totals:         0       0       0       0       0       0       0       0       0       0       0       0       
      +0       0       0       0       0
 12550 ;;Total ram usage:        0 bytes
 12551 ;; Hardware stack levels used: 1
 12552 ;; Hardware stack levels required when called: 1
 12553 ;; This function calls:
 12554 ;;		_Timer3_Write_value
 12555 ;;		i2_CCP_Compare_Mode_Set_Value
 12556 ;; This function is called by:
 12557 ;;		_CCP2_SET_Duty
 12558 ;;		_CCP2_ISR
 12559 ;; This function uses a non-reentrant model
 12560 ;;
 12561                           
 12562                           	psect	text76
 12563   002FD4                     __ptext76:
 12564                           	callstack 0
 12565   002FD4                     _CCP2_DefaultInterruptHandler:
 12566                           	callstack 20
 12567   002FD4                     
 12568                           ;ECU_Layer/ecu_layer_init.c: 182:     compare2_flag++;
 12569   002FD4  2A5B               	incf	_compare2_flag^0,f,c	;volatile
 12570   002FD6                     
 12571                           ;ECU_Layer/ecu_layer_init.c: 183:     ret=Timer3_Write_value(&timer_obj,0);
 12572   002FD6  0EE4               	movlw	low _timer_obj
 12573   002FD8  6E01               	movwf	Timer3_Write_value@_timer^0,c
 12574   002FDA  0E00               	movlw	high _timer_obj
 12575   002FDC  6E02               	movwf	(Timer3_Write_value@_timer+1)^0,c
 12576   002FDE  0E00               	movlw	0
 12577   002FE0  6E04               	movwf	(Timer3_Write_value@_value+1)^0,c
 12578   002FE2  0E00               	movlw	0
 12579   002FE4  6E03               	movwf	Timer3_Write_value@_value^0,c
 12580   002FE6  EC15  F01D         	call	_Timer3_Write_value	;wreg free
 12581   002FEA  6E6F               	movwf	_ret^0,c
 12582   002FEC                     
 12583                           ;ECU_Layer/ecu_layer_init.c: 184:     if (1== compare2_flag){
 12584   002FEC  045B               	decf	_compare2_flag^0,w,c	;volatile
 12585   002FEE  A4D8               	btfss	status,2,c
 12586   002FF0  EFFC  F017         	goto	i2u623_41
 12587   002FF4  EFFE  F017         	goto	i2u623_40
 12588   002FF8                     i2u623_41:
 12589   002FF8  EF0F  F018         	goto	i2l7624
 12590   002FFC                     i2u623_40:
 12591   002FFC                     
 12592                           ;ECU_Layer/ecu_layer_init.c: 185:       ret=CCP_Compare_Mode_Set_Value(&ccp2_obj ,2400);
 12593   002FFC  0E24               	movlw	low _ccp2_obj
 12594   002FFE  6E01               	movwf	i2CCP_Compare_Mode_Set_Value@_ccp_obj^0,c
 12595   003000  0E01               	movlw	high _ccp2_obj
 12596   003002  6E02               	movwf	(i2CCP_Compare_Mode_Set_Value@_ccp_obj+1)^0,c
 12597   003004  0E09               	movlw	9
 12598   003006  6E04               	movwf	(i2CCP_Compare_Mode_Set_Value@compare_value+1)^0,c
 12599   003008  0E60               	movlw	96
 12600   00300A  6E03               	movwf	i2CCP_Compare_Mode_Set_Value@compare_value^0,c
 12601   00300C  EC49  F01A         	call	i2_CCP_Compare_Mode_Set_Value	;wreg free
 12602   003010  6E6F               	movwf	_ret^0,c
 12603   003012                     
 12604                           ;ECU_Layer/ecu_layer_init.c: 186:       (CCP2CONbits.CCP2M = ((uint8)0x09));
 12605   003012  50BA               	movf	186,w,c	;volatile
 12606   003014  0BF0               	andlw	-16
 12607   003016  0909               	iorlw	9
 12608   003018  6EBA               	movwf	186,c	;volatile
 12609                           
 12610                           ;ECU_Layer/ecu_layer_init.c: 187:     }
 12611   00301A  EF29  F018         	goto	i2l448
 12612   00301E                     i2l7624:
 12613   00301E  0E02               	movlw	2
 12614   003020  185B               	xorwf	_compare2_flag^0,w,c	;volatile
 12615   003022  A4D8               	btfss	status,2,c
 12616   003024  EF16  F018         	goto	i2u624_41
 12617   003028  EF18  F018         	goto	i2u624_40
 12618   00302C                     i2u624_41:
 12619   00302C  EF29  F018         	goto	i2l448
 12620   003030                     i2u624_40:
 12621   003030                     
 12622                           ;ECU_Layer/ecu_layer_init.c: 189:       ret=CCP_Compare_Mode_Set_Value(&ccp2_obj ,17600)
      +                          ;
 12623   003030  0E24               	movlw	low _ccp2_obj
 12624   003032  6E01               	movwf	i2CCP_Compare_Mode_Set_Value@_ccp_obj^0,c
 12625   003034  0E01               	movlw	high _ccp2_obj
 12626   003036  6E02               	movwf	(i2CCP_Compare_Mode_Set_Value@_ccp_obj+1)^0,c
 12627   003038  0E44               	movlw	68
 12628   00303A  6E04               	movwf	(i2CCP_Compare_Mode_Set_Value@compare_value+1)^0,c
 12629   00303C  0EC0               	movlw	192
 12630   00303E  6E03               	movwf	i2CCP_Compare_Mode_Set_Value@compare_value^0,c
 12631   003040  EC49  F01A         	call	i2_CCP_Compare_Mode_Set_Value	;wreg free
 12632   003044  6E6F               	movwf	_ret^0,c
 12633   003046                     
 12634                           ;ECU_Layer/ecu_layer_init.c: 190:       (CCP2CONbits.CCP2M = ((uint8)0x08));
 12635   003046  50BA               	movf	186,w,c	;volatile
 12636   003048  0BF0               	andlw	-16
 12637   00304A  0908               	iorlw	8
 12638   00304C  6EBA               	movwf	186,c	;volatile
 12639   00304E                     
 12640                           ;ECU_Layer/ecu_layer_init.c: 191:       compare2_flag=0;
 12641   00304E  0E00               	movlw	0
 12642   003050  6E5B               	movwf	_compare2_flag^0,c	;volatile
 12643   003052                     i2l448:
 12644   003052  0012               	return		;funcret
 12645   003054                     __end_of_CCP2_DefaultInterruptHandler:
 12646                           	callstack 0
 12647                           
 12648 ;; *************** function _CCP1_ISR *****************
 12649 ;; Defined at:
 12650 ;;		line 27 in file "MCAL_Layer/CCP1/hal_ccp1.c"
 12651 ;; Parameters:    Size  Location     Type
 12652 ;;		None
 12653 ;; Auto vars:     Size  Location     Type
 12654 ;;		None
 12655 ;; Return value:  Size  Location     Type
 12656 ;;                  1    wreg      void 
 12657 ;; Registers used:
 12658 ;;		wreg, fsr2l, fsr2h, status,2, status,0, pcl, pclath, pclatu, tosl, cstack
 12659 ;; Tracked objects:
 12660 ;;		On entry : 0/0
 12661 ;;		On exit  : 0/0
 12662 ;;		Unchanged: 0/0
 12663 ;; Data sizes:     COMRAM   BANK0   BANK1   BANK2   BANK3   BANK4   BANK5   BANK6   BANK7   BANK8   BANK9  BANK10  BANK1
      +1  BANK12  BANK13  BANK14  BANK15
 12664 ;;      Params:         0       0       0       0       0       0       0       0       0       0       0       0       
      +0       0       0       0       0
 12665 ;;      Locals:         0       0       0       0       0       0       0       0       0       0       0       0       
      +0       0       0       0       0
 12666 ;;      Temps:          0       0       0       0       0       0       0       0       0       0       0       0       
      +0       0       0       0       0
 12667 ;;      Totals:         0       0       0       0       0       0       0       0       0       0       0       0       
      +0       0       0       0       0
 12668 ;;Total ram usage:        0 bytes
 12669 ;; Hardware stack levels used: 1
 12670 ;; Hardware stack levels required when called: 2
 12671 ;; This function calls:
 12672 ;;		NULL
 12673 ;;		_CCP1_DefaultInterruptHandler
 12674 ;; This function is called by:
 12675 ;;		_InterruptManagerHigh
 12676 ;; This function uses a non-reentrant model
 12677 ;;
 12678                           
 12679                           	psect	text77
 12680   0038BE                     __ptext77:
 12681                           	callstack 0
 12682   0038BE                     _CCP1_ISR:
 12683                           	callstack 20
 12684   0038BE                     
 12685                           ;MCAL_Layer/CCP1/hal_ccp1.c: 28:     (PIR1bits.CCP1IF=0) ;
 12686   0038BE  949E               	bcf	158,2,c	;volatile
 12687   0038C0                     
 12688                           ;MCAL_Layer/CCP1/hal_ccp1.c: 29:     if(CCP1_Interrupt_Handler){
 12689   0038C0  0100               	movlb	0	; () banked
 12690   0038C2  51B6               	movf	_CCP1_Interrupt_Handler& (0+255),w,b
 12691   0038C4  11B7               	iorwf	(_CCP1_Interrupt_Handler+1)& (0+255),w,b
 12692   0038C6  B4D8               	btfsc	status,2,c
 12693   0038C8  EF68  F01C         	goto	i2u644_41
 12694   0038CC  EF6A  F01C         	goto	i2u644_40
 12695   0038D0                     i2u644_41:
 12696   0038D0  EF76  F01C         	goto	i2l649
 12697   0038D4                     i2u644_40:
 12698   0038D4                     
 12699                           ; BSR set to: 0
 12700                           ;MCAL_Layer/CCP1/hal_ccp1.c: 30:         CCP1_Interrupt_Handler();
 12701   0038D4  D802               	call	i2u645_48
 12702   0038D6  EF76  F01C         	goto	i2u645_49
 12703   0038DA                     i2u645_48:
 12704   0038DA  0005               	push	
 12705   0038DC  6EFA               	movwf	pclath,c
 12706   0038DE  51B6               	movf	_CCP1_Interrupt_Handler& (0+255),w,b
 12707   0038E0  6EFD               	movwf	tosl,c
 12708   0038E2  51B7               	movf	(_CCP1_Interrupt_Handler+1)& (0+255),w,b
 12709   0038E4  6EFE               	movwf	tosh,c
 12710   0038E6  6AFF               	clrf	tosu,c
 12711   0038E8  50FA               	movf	pclath,w,c
 12712   0038EA  0012               	return		;indir
 12713   0038EC                     i2u645_49:
 12714   0038EC                     i2l649:
 12715   0038EC  0012               	return		;funcret
 12716   0038EE                     __end_of_CCP1_ISR:
 12717                           	callstack 0
 12718                           
 12719 ;; *************** function _CCP1_DefaultInterruptHandler *****************
 12720 ;; Defined at:
 12721 ;;		line 168 in file "ECU_Layer/ecu_layer_init.c"
 12722 ;; Parameters:    Size  Location     Type
 12723 ;;		None
 12724 ;; Auto vars:     Size  Location     Type
 12725 ;;		None
 12726 ;; Return value:  Size  Location     Type
 12727 ;;                  1    wreg      void 
 12728 ;; Registers used:
 12729 ;;		wreg, fsr2l, fsr2h, status,2, status,0, cstack
 12730 ;; Tracked objects:
 12731 ;;		On entry : 0/0
 12732 ;;		On exit  : 0/0
 12733 ;;		Unchanged: 0/0
 12734 ;; Data sizes:     COMRAM   BANK0   BANK1   BANK2   BANK3   BANK4   BANK5   BANK6   BANK7   BANK8   BANK9  BANK10  BANK1
      +1  BANK12  BANK13  BANK14  BANK15
 12735 ;;      Params:         0       0       0       0       0       0       0       0       0       0       0       0       
      +0       0       0       0       0
 12736 ;;      Locals:         0       0       0       0       0       0       0       0       0       0       0       0       
      +0       0       0       0       0
 12737 ;;      Temps:          0       0       0       0       0       0       0       0       0       0       0       0       
      +0       0       0       0       0
 12738 ;;      Totals:         0       0       0       0       0       0       0       0       0       0       0       0       
      +0       0       0       0       0
 12739 ;;Total ram usage:        0 bytes
 12740 ;; Hardware stack levels used: 1
 12741 ;; Hardware stack levels required when called: 1
 12742 ;; This function calls:
 12743 ;;		_Timer3_Write_value
 12744 ;;		i2_CCP_Compare_Mode_Set_Value
 12745 ;; This function is called by:
 12746 ;;		_CCP1_SET_Duty
 12747 ;;		_CCP1_ISR
 12748 ;; This function uses a non-reentrant model
 12749 ;;
 12750                           
 12751                           	psect	text78
 12752   003054                     __ptext78:
 12753                           	callstack 0
 12754   003054                     _CCP1_DefaultInterruptHandler:
 12755                           	callstack 20
 12756   003054                     
 12757                           ;ECU_Layer/ecu_layer_init.c: 169:     compare_flag++;
 12758   003054  2A5C               	incf	_compare_flag^0,f,c	;volatile
 12759   003056                     
 12760                           ;ECU_Layer/ecu_layer_init.c: 170:     ret=Timer3_Write_value(&timer_obj,0);
 12761   003056  0EE4               	movlw	low _timer_obj
 12762   003058  6E01               	movwf	Timer3_Write_value@_timer^0,c
 12763   00305A  0E00               	movlw	high _timer_obj
 12764   00305C  6E02               	movwf	(Timer3_Write_value@_timer+1)^0,c
 12765   00305E  0E00               	movlw	0
 12766   003060  6E04               	movwf	(Timer3_Write_value@_value+1)^0,c
 12767   003062  0E00               	movlw	0
 12768   003064  6E03               	movwf	Timer3_Write_value@_value^0,c
 12769   003066  EC15  F01D         	call	_Timer3_Write_value	;wreg free
 12770   00306A  6E6F               	movwf	_ret^0,c
 12771   00306C                     
 12772                           ;ECU_Layer/ecu_layer_init.c: 171:     if (1== compare_flag){
 12773   00306C  045C               	decf	_compare_flag^0,w,c	;volatile
 12774   00306E  A4D8               	btfss	status,2,c
 12775   003070  EF3C  F018         	goto	i2u618_41
 12776   003074  EF3E  F018         	goto	i2u618_40
 12777   003078                     i2u618_41:
 12778   003078  EF4F  F018         	goto	i2l7586
 12779   00307C                     i2u618_40:
 12780   00307C                     
 12781                           ;ECU_Layer/ecu_layer_init.c: 172:       ret=CCP_Compare_Mode_Set_Value(&ccp1_obj ,2400);
 12782   00307C  0E2F               	movlw	low _ccp1_obj
 12783   00307E  6E01               	movwf	i2CCP_Compare_Mode_Set_Value@_ccp_obj^0,c
 12784   003080  0E01               	movlw	high _ccp1_obj
 12785   003082  6E02               	movwf	(i2CCP_Compare_Mode_Set_Value@_ccp_obj+1)^0,c
 12786   003084  0E09               	movlw	9
 12787   003086  6E04               	movwf	(i2CCP_Compare_Mode_Set_Value@compare_value+1)^0,c
 12788   003088  0E60               	movlw	96
 12789   00308A  6E03               	movwf	i2CCP_Compare_Mode_Set_Value@compare_value^0,c
 12790   00308C  EC49  F01A         	call	i2_CCP_Compare_Mode_Set_Value	;wreg free
 12791   003090  6E6F               	movwf	_ret^0,c
 12792   003092                     
 12793                           ;ECU_Layer/ecu_layer_init.c: 173:       (CCP1CONbits.CCP1M = ((uint8)0x09));
 12794   003092  50BD               	movf	189,w,c	;volatile
 12795   003094  0BF0               	andlw	-16
 12796   003096  0909               	iorlw	9
 12797   003098  6EBD               	movwf	189,c	;volatile
 12798                           
 12799                           ;ECU_Layer/ecu_layer_init.c: 174:     }
 12800   00309A  EF69  F018         	goto	i2l442
 12801   00309E                     i2l7586:
 12802   00309E  0E02               	movlw	2
 12803   0030A0  185C               	xorwf	_compare_flag^0,w,c	;volatile
 12804   0030A2  A4D8               	btfss	status,2,c
 12805   0030A4  EF56  F018         	goto	i2u619_41
 12806   0030A8  EF58  F018         	goto	i2u619_40
 12807   0030AC                     i2u619_41:
 12808   0030AC  EF69  F018         	goto	i2l442
 12809   0030B0                     i2u619_40:
 12810   0030B0                     
 12811                           ;ECU_Layer/ecu_layer_init.c: 176:       ret=CCP_Compare_Mode_Set_Value(&ccp1_obj ,17600)
      +                          ;
 12812   0030B0  0E2F               	movlw	low _ccp1_obj
 12813   0030B2  6E01               	movwf	i2CCP_Compare_Mode_Set_Value@_ccp_obj^0,c
 12814   0030B4  0E01               	movlw	high _ccp1_obj
 12815   0030B6  6E02               	movwf	(i2CCP_Compare_Mode_Set_Value@_ccp_obj+1)^0,c
 12816   0030B8  0E44               	movlw	68
 12817   0030BA  6E04               	movwf	(i2CCP_Compare_Mode_Set_Value@compare_value+1)^0,c
 12818   0030BC  0EC0               	movlw	192
 12819   0030BE  6E03               	movwf	i2CCP_Compare_Mode_Set_Value@compare_value^0,c
 12820   0030C0  EC49  F01A         	call	i2_CCP_Compare_Mode_Set_Value	;wreg free
 12821   0030C4  6E6F               	movwf	_ret^0,c
 12822   0030C6                     
 12823                           ;ECU_Layer/ecu_layer_init.c: 177:       (CCP1CONbits.CCP1M = ((uint8)0x08));
 12824   0030C6  50BD               	movf	189,w,c	;volatile
 12825   0030C8  0BF0               	andlw	-16
 12826   0030CA  0908               	iorlw	8
 12827   0030CC  6EBD               	movwf	189,c	;volatile
 12828   0030CE                     
 12829                           ;ECU_Layer/ecu_layer_init.c: 178:       compare_flag=0;
 12830   0030CE  0E00               	movlw	0
 12831   0030D0  6E5C               	movwf	_compare_flag^0,c	;volatile
 12832   0030D2                     i2l442:
 12833   0030D2  0012               	return		;funcret
 12834   0030D4                     __end_of_CCP1_DefaultInterruptHandler:
 12835                           	callstack 0
 12836                           
 12837 ;; *************** function i2_CCP_Compare_Mode_Set_Value *****************
 12838 ;; Defined at:
 12839 ;;		line 195 in file "MCAL_Layer/CCP1/hal_ccp1.c"
 12840 ;; Parameters:    Size  Location     Type
 12841 ;;  _ccp_obj        2    0[COMRAM] PTR const struct .
 12842 ;;		 -> ccp2_obj(11), ccp1_obj(11), 
 12843 ;;  compare_valu    2    2[COMRAM] unsigned short 
 12844 ;; Auto vars:     Size  Location     Type
 12845 ;;  capture_temp    2    5[COMRAM] struct .
 12846 ;;  ret             1    0        unsigned char 
 12847 ;; Return value:  Size  Location     Type
 12848 ;;                  1    wreg      unsigned char 
 12849 ;; Registers used:
 12850 ;;		wreg, fsr2l, fsr2h, status,2, status,0
 12851 ;; Tracked objects:
 12852 ;;		On entry : 0/0
 12853 ;;		On exit  : 0/0
 12854 ;;		Unchanged: 0/0
 12855 ;; Data sizes:     COMRAM   BANK0   BANK1   BANK2   BANK3   BANK4   BANK5   BANK6   BANK7   BANK8   BANK9  BANK10  BANK1
      +1  BANK12  BANK13  BANK14  BANK15
 12856 ;;      Params:         4       0       0       0       0       0       0       0       0       0       0       0       
      +0       0       0       0       0
 12857 ;;      Locals:         2       0       0       0       0       0       0       0       0       0       0       0       
      +0       0       0       0       0
 12858 ;;      Temps:          1       0       0       0       0       0       0       0       0       0       0       0       
      +0       0       0       0       0
 12859 ;;      Totals:         7       0       0       0       0       0       0       0       0       0       0       0       
      +0       0       0       0       0
 12860 ;;Total ram usage:        7 bytes
 12861 ;; Hardware stack levels used: 1
 12862 ;; This function calls:
 12863 ;;		Nothing
 12864 ;; This function is called by:
 12865 ;;		_CCP1_DefaultInterruptHandler
 12866 ;;		_CCP2_DefaultInterruptHandler
 12867 ;; This function uses a non-reentrant model
 12868 ;;
 12869                           
 12870                           	psect	text79
 12871   003492                     __ptext79:
 12872                           	callstack 0
 12873   003492                     i2_CCP_Compare_Mode_Set_Value:
 12874                           	callstack 20
 12875   003492                     
 12876                           ;MCAL_Layer/CCP1/hal_ccp1.c: 198:     if (((void*)0) == _ccp_obj){
 12877   003492  5001               	movf	i2CCP_Compare_Mode_Set_Value@_ccp_obj^0,w,c
 12878   003494  1002               	iorwf	(i2CCP_Compare_Mode_Set_Value@_ccp_obj+1)^0,w,c
 12879   003496  A4D8               	btfss	status,2,c
 12880   003498  EF50  F01A         	goto	i2u614_41
 12881   00349C  EF52  F01A         	goto	i2u614_40
 12882   0034A0                     i2u614_41:
 12883   0034A0  EF54  F01A         	goto	i2l690
 12884   0034A4                     i2u614_40:
 12885   0034A4                     i2l7500:
 12886                           
 12887                           ;MCAL_Layer/CCP1/hal_ccp1.c: 200:     }
 12888   0034A4  EF80  F01A         	goto	i2l691
 12889   0034A8                     i2l690:
 12890                           
 12891                           ;MCAL_Layer/CCP1/hal_ccp1.c: 203:         capture_temp_value.ccpr_16Bit = compare_value;
 12892   0034A8  C003  F006         	movff	i2CCP_Compare_Mode_Set_Value@compare_value,i2CCP_Compare_Mode_Set_Value@capture_t
      +                          emp_value
 12893   0034AC  C004  F007         	movff	i2CCP_Compare_Mode_Set_Value@compare_value+1,i2CCP_Compare_Mode_Set_Value@capture
      +                          _temp_value+1
 12894   0034B0                     
 12895                           ;MCAL_Layer/CCP1/hal_ccp1.c: 204:         if( CCP1_INST == _ccp_obj->ccp_inst){
 12896   0034B0  EE20 F003          	lfsr	2,3
 12897   0034B4  5001               	movf	i2CCP_Compare_Mode_Set_Value@_ccp_obj^0,w,c
 12898   0034B6  26D9               	addwf	fsr2l,f,c
 12899   0034B8  5002               	movf	(i2CCP_Compare_Mode_Set_Value@_ccp_obj+1)^0,w,c
 12900   0034BA  22DA               	addwfc	fsr2h,f,c
 12901   0034BC  50DF               	movf	indf2,w,c
 12902   0034BE  A4D8               	btfss	status,2,c
 12903   0034C0  EF64  F01A         	goto	i2u615_41
 12904   0034C4  EF66  F01A         	goto	i2u615_40
 12905   0034C8                     i2u615_41:
 12906   0034C8  EF6C  F01A         	goto	i2l7506
 12907   0034CC                     i2u615_40:
 12908   0034CC                     
 12909                           ;MCAL_Layer/CCP1/hal_ccp1.c: 205:             CCPR1L = capture_temp_value.ccpr_low;
 12910   0034CC  C006  FFBE         	movff	i2CCP_Compare_Mode_Set_Value@capture_temp_value,4030	;volatile
 12911                           
 12912                           ;MCAL_Layer/CCP1/hal_ccp1.c: 206:             CCPR1H = capture_temp_value.ccpr_high;
 12913   0034D0  C007  FFBF         	movff	i2CCP_Compare_Mode_Set_Value@capture_temp_value+1,4031	;volatile
 12914                           
 12915                           ;MCAL_Layer/CCP1/hal_ccp1.c: 207:         }
 12916   0034D4  EF52  F01A         	goto	i2l7500
 12917   0034D8                     i2l7506:
 12918   0034D8  EE20 F003          	lfsr	2,3
 12919   0034DC  5001               	movf	i2CCP_Compare_Mode_Set_Value@_ccp_obj^0,w,c
 12920   0034DE  26D9               	addwf	fsr2l,f,c
 12921   0034E0  5002               	movf	(i2CCP_Compare_Mode_Set_Value@_ccp_obj+1)^0,w,c
 12922   0034E2  22DA               	addwfc	fsr2h,f,c
 12923   0034E4  04DE               	decf	postinc2,w,c
 12924   0034E6  A4D8               	btfss	status,2,c
 12925   0034E8  EF78  F01A         	goto	i2u616_41
 12926   0034EC  EF7A  F01A         	goto	i2u616_40
 12927   0034F0                     i2u616_41:
 12928   0034F0  EF52  F01A         	goto	i2l7500
 12929   0034F4                     i2u616_40:
 12930   0034F4                     
 12931                           ;MCAL_Layer/CCP1/hal_ccp1.c: 209:             CCPR2L = capture_temp_value.ccpr_low;
 12932   0034F4  C006  FFBB         	movff	i2CCP_Compare_Mode_Set_Value@capture_temp_value,4027	;volatile
 12933                           
 12934                           ;MCAL_Layer/CCP1/hal_ccp1.c: 210:             CCPR2H = capture_temp_value.ccpr_high;
 12935   0034F8  C007  FFBC         	movff	i2CCP_Compare_Mode_Set_Value@capture_temp_value+1,4028	;volatile
 12936   0034FC  EF52  F01A         	goto	i2l7500
 12937   003500                     i2l691:
 12938                           
 12939                           ;MCAL_Layer/CCP1/hal_ccp1.c: 216:     return ret;
 12940   003500  0E01               	movlw	1
 12941   003502  0012               	return		;funcret
 12942   003504                     __end_ofi2_CCP_Compare_Mode_Set_Value:
 12943                           	callstack 0
 12944                           
 12945 ;; *************** function _Timer3_Write_value *****************
 12946 ;; Defined at:
 12947 ;;		line 74 in file "MCAL_Layer/Timer3/hal_timer3.c"
 12948 ;; Parameters:    Size  Location     Type
 12949 ;;  _timer          2    0[COMRAM] PTR const struct .
 12950 ;;		 -> timer_obj(7), 
 12951 ;;  _value          2    2[COMRAM] unsigned short 
 12952 ;; Auto vars:     Size  Location     Type
 12953 ;;  ret             1    0        unsigned char 
 12954 ;; Return value:  Size  Location     Type
 12955 ;;                  1    wreg      unsigned char 
 12956 ;; Registers used:
 12957 ;;		wreg, status,2, status,0
 12958 ;; Tracked objects:
 12959 ;;		On entry : 0/0
 12960 ;;		On exit  : 0/0
 12961 ;;		Unchanged: 0/0
 12962 ;; Data sizes:     COMRAM   BANK0   BANK1   BANK2   BANK3   BANK4   BANK5   BANK6   BANK7   BANK8   BANK9  BANK10  BANK1
      +1  BANK12  BANK13  BANK14  BANK15
 12963 ;;      Params:         4       0       0       0       0       0       0       0       0       0       0       0       
      +0       0       0       0       0
 12964 ;;      Locals:         0       0       0       0       0       0       0       0       0       0       0       0       
      +0       0       0       0       0
 12965 ;;      Temps:          0       0       0       0       0       0       0       0       0       0       0       0       
      +0       0       0       0       0
 12966 ;;      Totals:         4       0       0       0       0       0       0       0       0       0       0       0       
      +0       0       0       0       0
 12967 ;;Total ram usage:        4 bytes
 12968 ;; Hardware stack levels used: 1
 12969 ;; This function calls:
 12970 ;;		Nothing
 12971 ;; This function is called by:
 12972 ;;		_CCP1_DefaultInterruptHandler
 12973 ;;		_CCP2_DefaultInterruptHandler
 12974 ;; This function uses a non-reentrant model
 12975 ;;
 12976                           
 12977                           	psect	text80
 12978   003A2A                     __ptext80:
 12979                           	callstack 0
 12980   003A2A                     _Timer3_Write_value:
 12981                           	callstack 20
 12982   003A2A                     
 12983                           ;MCAL_Layer/Timer3/hal_timer3.c: 77:     if(((void*)0) == _timer){
 12984   003A2A  5001               	movf	Timer3_Write_value@_timer^0,w,c
 12985   003A2C  1002               	iorwf	(Timer3_Write_value@_timer+1)^0,w,c
 12986   003A2E  A4D8               	btfss	status,2,c
 12987   003A30  EF1C  F01D         	goto	i2u597_41
 12988   003A34  EF1E  F01D         	goto	i2u597_40
 12989   003A38                     i2u597_41:
 12990   003A38  EF20  F01D         	goto	i2l7242
 12991   003A3C                     i2u597_40:
 12992   003A3C                     
 12993                           ;MCAL_Layer/Timer3/hal_timer3.c: 79:     }
 12994   003A3C  EF24  F01D         	goto	i2l1551
 12995   003A40                     i2l7242:
 12996                           
 12997                           ;MCAL_Layer/Timer3/hal_timer3.c: 81:         TMR3H=(_value) >> 8;
 12998   003A40  5004               	movf	(Timer3_Write_value@_value+1)^0,w,c
 12999   003A42  6EB3               	movwf	179,c	;volatile
 13000   003A44                     
 13001                           ;MCAL_Layer/Timer3/hal_timer3.c: 82:         TMR3L=(uint8)(_value);
 13002   003A44  C003  FFB2         	movff	Timer3_Write_value@_value,4018	;volatile
 13003   003A48                     i2l1551:
 13004                           
 13005                           ;MCAL_Layer/Timer3/hal_timer3.c: 87:     return ret;
 13006   003A48  0E01               	movlw	1
 13007   003A4A  0012               	return		;funcret
 13008   003A4C                     __end_of_Timer3_Write_value:
 13009                           	callstack 0
 13010                           
 13011 ;; *************** function _ADC_ISR *****************
 13012 ;; Defined at:
 13013 ;;		line 295 in file "MCAL_Layer/ADC/hal_adc.c"
 13014 ;; Parameters:    Size  Location     Type
 13015 ;;		None
 13016 ;; Auto vars:     Size  Location     Type
 13017 ;;		None
 13018 ;; Return value:  Size  Location     Type
 13019 ;;                  1    wreg      void 
 13020 ;; Registers used:
 13021 ;;		None
 13022 ;; Tracked objects:
 13023 ;;		On entry : 0/0
 13024 ;;		On exit  : 0/0
 13025 ;;		Unchanged: 0/0
 13026 ;; Data sizes:     COMRAM   BANK0   BANK1   BANK2   BANK3   BANK4   BANK5   BANK6   BANK7   BANK8   BANK9  BANK10  BANK1
      +1  BANK12  BANK13  BANK14  BANK15
 13027 ;;      Params:         0       0       0       0       0       0       0       0       0       0       0       0       
      +0       0       0       0       0
 13028 ;;      Locals:         0       0       0       0       0       0       0       0       0       0       0       0       
      +0       0       0       0       0
 13029 ;;      Temps:          0       0       0       0       0       0       0       0       0       0       0       0       
      +0       0       0       0       0
 13030 ;;      Totals:         0       0       0       0       0       0       0       0       0       0       0       0       
      +0       0       0       0       0
 13031 ;;Total ram usage:        0 bytes
 13032 ;; Hardware stack levels used: 1
 13033 ;; This function calls:
 13034 ;;		Nothing
 13035 ;; This function is called by:
 13036 ;;		_InterruptManagerHigh
 13037 ;; This function uses a non-reentrant model
 13038 ;;
 13039                           
 13040                           	psect	text81
 13041   003B34                     __ptext81:
 13042                           	callstack 0
 13043   003B34                     _ADC_ISR:
 13044                           	callstack 22
 13045   003B34                     
 13046                           ;MCAL_Layer/ADC/hal_adc.c: 296:     (PIR1bits.ADIF=0);
 13047   003B34  9C9E               	bcf	158,6,c	;volatile
 13048   003B36  0012               	return		;funcret
 13049   003B38                     __end_of_ADC_ISR:
 13050                           	callstack 0
 13051                           
 13052                           	psect	text82
 13053   000000                     __ptext82:
 13054                           	callstack 0
 13055   000000                     
 13056                           	psect	rparam
 13057   000000                     
 13058                           	psect	temp
 13059   000074                     btemp:
 13060                           	callstack 0
 13061   000074                     	ds	1
 13062   000000                     int$flags	set	btemp
 13063   000000                     wtemp8	set	btemp+1
 13064   000000                     ttemp5	set	btemp+1
 13065   000000                     ttemp6	set	btemp+4
 13066   000000                     ttemp7	set	btemp+8
 13067                           
 13068                           	psect	config
 13069                           
 13070                           ; Padding undefined space
 13071   300000                     	org	3145728
 13072   300000  FF                 	db	255
 13073                           
 13074                           ;Config register CONFIG1H @ 0x300001
 13075                           ;	Oscillator Selection bits
 13076                           ;	OSC = HS, HS oscillator
 13077                           ;	Fail-Safe Clock Monitor Enable bit
 13078                           ;	FCMEN = OFF, Fail-Safe Clock Monitor disabled
 13079                           ;	Internal/External Oscillator Switchover bit
 13080                           ;	IESO = OFF, Oscillator Switchover mode disabled
 13081   300001                     	org	3145729
 13082   300001  02                 	db	2
 13083                           
 13084                           ;Config register CONFIG2L @ 0x300002
 13085                           ;	Power-up Timer Enable bit
 13086                           ;	PWRT = OFF, PWRT disabled
 13087                           ;	Brown-out Reset Enable bits
 13088                           ;	BOREN = OFF, Brown-out Reset disabled in hardware and software
 13089                           ;	Brown Out Reset Voltage bits
 13090                           ;	BORV = 1, 
 13091   300002                     	org	3145730
 13092   300002  09                 	db	9
 13093                           
 13094                           ;Config register CONFIG2H @ 0x300003
 13095                           ;	Watchdog Timer Enable bit
 13096                           ;	WDT = OFF, WDT disabled (control is placed on the SWDTEN bit)
 13097                           ;	Watchdog Timer Postscale Select bits
 13098                           ;	WDTPS = 32768, 1:32768
 13099   300003                     	org	3145731
 13100   300003  1E                 	db	30
 13101                           
 13102                           ; Padding undefined space
 13103   300004                     	org	3145732
 13104   300004  FF                 	db	255
 13105                           
 13106                           ;Config register CONFIG3H @ 0x300005
 13107                           ;	CCP2 MUX bit
 13108                           ;	CCP2MX = PORTC, CCP2 input/output is multiplexed with RC1
 13109                           ;	PORTB A/D Enable bit
 13110                           ;	PBADEN = OFF, PORTB<4:0> pins are configured as digital I/O on Reset
 13111                           ;	Low-Power Timer1 Oscillator Enable bit
 13112                           ;	LPT1OSC = OFF, Timer1 configured for higher power operation
 13113                           ;	MCLR Pin Enable bit
 13114                           ;	MCLRE = ON, MCLR pin enabled; RE3 input pin disabled
 13115   300005                     	org	3145733
 13116   300005  81                 	db	129
 13117                           
 13118                           ;Config register CONFIG4L @ 0x300006
 13119                           ;	Stack Full/Underflow Reset Enable bit
 13120                           ;	STVREN = ON, Stack full/underflow will cause Reset
 13121                           ;	Single-Supply ICSP Enable bit
 13122                           ;	LVP = OFF, Single-Supply ICSP disabled
 13123                           ;	Extended Instruction Set Enable bit
 13124                           ;	XINST = OFF, Instruction set extension and Indexed Addressing mode disabled (Legacy mo
      +                          de)
 13125                           ;	Background Debugger Enable bit
 13126                           ;	DEBUG = 0x1, unprogrammed default
 13127   300006                     	org	3145734
 13128   300006  81                 	db	129
 13129                           
 13130                           ; Padding undefined space
 13131   300007                     	org	3145735
 13132   300007  FF                 	db	255
 13133                           
 13134                           ;Config register CONFIG5L @ 0x300008
 13135                           ;	Code Protection bit
 13136                           ;	CP0 = OFF, Block 0 (000800-003FFFh) not code-protected
 13137                           ;	Code Protection bit
 13138                           ;	CP1 = OFF, Block 1 (004000-007FFFh) not code-protected
 13139                           ;	Code Protection bit
 13140                           ;	CP2 = OFF, Block 2 (008000-00BFFFh) not code-protected
 13141                           ;	Code Protection bit
 13142                           ;	CP3 = OFF, Block 3 (00C000-00FFFFh) not code-protected
 13143   300008                     	org	3145736
 13144   300008  0F                 	db	15
 13145                           
 13146                           ;Config register CONFIG5H @ 0x300009
 13147                           ;	Boot Block Code Protection bit
 13148                           ;	CPB = OFF, Boot block (000000-0007FFh) not code-protected
 13149                           ;	Data EEPROM Code Protection bit
 13150                           ;	CPD = OFF, Data EEPROM not code-protected
 13151   300009                     	org	3145737
 13152   300009  C0                 	db	192
 13153                           
 13154                           ;Config register CONFIG6L @ 0x30000A
 13155                           ;	Write Protection bit
 13156                           ;	WRT0 = OFF, Block 0 (000800-003FFFh) not write-protected
 13157                           ;	Write Protection bit
 13158                           ;	WRT1 = OFF, Block 1 (004000-007FFFh) not write-protected
 13159                           ;	Write Protection bit
 13160                           ;	WRT2 = OFF, Block 2 (008000-00BFFFh) not write-protected
 13161                           ;	Write Protection bit
 13162                           ;	WRT3 = OFF, Block 3 (00C000-00FFFFh) not write-protected
 13163   30000A                     	org	3145738
 13164   30000A  0F                 	db	15
 13165                           
 13166                           ;Config register CONFIG6H @ 0x30000B
 13167                           ;	Configuration Register Write Protection bit
 13168                           ;	WRTC = OFF, Configuration registers (300000-3000FFh) not write-protected
 13169                           ;	Boot Block Write Protection bit
 13170                           ;	WRTB = OFF, Boot Block (000000-0007FFh) not write-protected
 13171                           ;	Data EEPROM Write Protection bit
 13172                           ;	WRTD = OFF, Data EEPROM not write-protected
 13173   30000B                     	org	3145739
 13174   30000B  E0                 	db	224
 13175                           
 13176                           ;Config register CONFIG7L @ 0x30000C
 13177                           ;	Table Read Protection bit
 13178                           ;	EBTR0 = OFF, Block 0 (000800-003FFFh) not protected from table reads executed in other
      +                           blocks
 13179                           ;	Table Read Protection bit
 13180                           ;	EBTR1 = OFF, Block 1 (004000-007FFFh) not protected from table reads executed in other
      +                           blocks
 13181                           ;	Table Read Protection bit
 13182                           ;	EBTR2 = OFF, Block 2 (008000-00BFFFh) not protected from table reads executed in other
      +                           blocks
 13183                           ;	Table Read Protection bit
 13184                           ;	EBTR3 = OFF, Block 3 (00C000-00FFFFh) not protected from table reads executed in other
      +                           blocks
 13185   30000C                     	org	3145740
 13186   30000C  0F                 	db	15
 13187                           
 13188                           ;Config register CONFIG7H @ 0x30000D
 13189                           ;	Boot Block Table Read Protection bit
 13190                           ;	EBTRB = OFF, Boot Block (000000-0007FFh) not protected from table reads executed in ot
      +                          her blocks
 13191   30000D                     	org	3145741
 13192   30000D  40                 	db	64
 13193                           tosu	equ	0xFFF
 13194                           tosh	equ	0xFFE
 13195                           tosl	equ	0xFFD
 13196                           stkptr	equ	0xFFC
 13197                           pclatu	equ	0xFFB
 13198                           pclath	equ	0xFFA
 13199                           pcl	equ	0xFF9
 13200                           tblptru	equ	0xFF8
 13201                           tblptrh	equ	0xFF7
 13202                           tblptrl	equ	0xFF6
 13203                           tablat	equ	0xFF5
 13204                           prodh	equ	0xFF4
 13205                           prodl	equ	0xFF3
 13206                           indf0	equ	0xFEF
 13207                           postinc0	equ	0xFEE
 13208                           postdec0	equ	0xFED
 13209                           preinc0	equ	0xFEC
 13210                           plusw0	equ	0xFEB
 13211                           fsr0h	equ	0xFEA
 13212                           fsr0l	equ	0xFE9
 13213                           wreg	equ	0xFE8
 13214                           indf1	equ	0xFE7
 13215                           postinc1	equ	0xFE6
 13216                           postdec1	equ	0xFE5
 13217                           preinc1	equ	0xFE4
 13218                           plusw1	equ	0xFE3
 13219                           fsr1h	equ	0xFE2
 13220                           fsr1l	equ	0xFE1
 13221                           bsr	equ	0xFE0
 13222                           indf2	equ	0xFDF
 13223                           postinc2	equ	0xFDE
 13224                           postdec2	equ	0xFDD
 13225                           preinc2	equ	0xFDC
 13226                           plusw2	equ	0xFDB
 13227                           fsr2h	equ	0xFDA
 13228                           fsr2l	equ	0xFD9
 13229                           status	equ	0xFD8

Data Sizes:
    Strings     315
    Constant    16
    Data        68
    BSS         188
    Persistent  0
    Stack       0

Auto Spaces:
    Space          Size  Autos    Used
    COMRAM          126     83     115
    BANK0           128      0     127
    BANK1           256     12     109
    BANK2           256      0       0
    BANK3           256      0       0
    BANK4           256      0       0
    BANK5           256      0       0
    BANK6           256      0       0
    BANK7           256      0       0
    BANK8           256      0       0
    BANK9           256      0       0
    BANK10          256      0       0
    BANK11          256      0       0
    BANK12          256      0       0
    BANK13          256      0       0
    BANK14          256      0       0
    BANK15          128      0       0

Pointer List with Targets:

    vfprintf$2	PTR PTR void  size(2) Largest target is 2
		 -> sprintf@ap(COMRAM[2]), 

    vfprintf$1	PTR const unsigned char  size(2) Largest target is 3
		 -> STR_3(CODE[3]), STR_2(CODE[3]), STR_1(CODE[3]), 

    vfprintf$0	PTR struct _IO_FILE size(2) Largest target is 12
		 -> sprintf@f(COMRAM[12]), 

    S4966$source	PTR const unsigned char  size(2) Largest target is 0

    f...source	PTR const unsigned char  size(2) Largest target is 0

    S4966$buffer	PTR unsigned char  size(2) Largest target is 0

    f...buffer	PTR unsigned char  size(2) Largest target is 0

    EUSART_OverrunErrorHandler	PTR FTN()void  size(2) Largest target is 1
		 -> NULL(), NULL(NULL[0]), 

    EUSART_FramingErrorHandler	PTR FTN()void  size(2) Largest target is 1
		 -> NULL(), NULL(NULL[0]), 

    EUSART_RxInterruptHandler	PTR FTN()void  size(2) Largest target is 1
		 -> NULL(), NULL(NULL[0]), 

    EUSART_ASYNC_RX_Init@_eusart.EUSART_OverrunErrorHandler	PTR FTN()void  size(2) Largest target is 0
		 -> NULL(NULL[0]), 

    EUSART_ASYNC_RX_Init@_eusart.EUSART_FramingErrorHandler	PTR FTN()void  size(2) Largest target is 0
		 -> NULL(NULL[0]), 

    EUSART_ASYNC_RX_Init@_eusart.EUSART_RxDefaultInterruptHandler	PTR FTN()void  size(2) Largest target is 0
		 -> NULL(NULL[0]), 

    EUSART_ASYNC_RX_Init@_eusart.EUSART_TxDefaultInterruptHandler	PTR FTN()void  size(2) Largest target is 0
		 -> NULL(NULL[0]), 

    EUSART_ASYNC_RX_Init@_eusart	PTR const struct . size(2) Largest target is 16
		 -> usart_obj(BANK0[16]), 

    EUSART_TxInterruptHandler	PTR FTN()void  size(2) Largest target is 1
		 -> NULL(), NULL(NULL[0]), 

    EUSART_ASYNC_TX_Init@_eusart.EUSART_OverrunErrorHandler	PTR FTN()void  size(2) Largest target is 0
		 -> NULL(NULL[0]), 

    EUSART_ASYNC_TX_Init@_eusart.EUSART_FramingErrorHandler	PTR FTN()void  size(2) Largest target is 0
		 -> NULL(NULL[0]), 

    EUSART_ASYNC_TX_Init@_eusart.EUSART_RxDefaultInterruptHandler	PTR FTN()void  size(2) Largest target is 0
		 -> NULL(NULL[0]), 

    EUSART_ASYNC_TX_Init@_eusart.EUSART_TxDefaultInterruptHandler	PTR FTN()void  size(2) Largest target is 0
		 -> NULL(NULL[0]), 

    EUSART_ASYNC_TX_Init@_eusart	PTR const struct . size(2) Largest target is 16
		 -> usart_obj(BANK0[16]), 

    EUSART_Baud_Rate_Calculation@_eusart.EUSART_OverrunErrorHandler	PTR FTN()void  size(2) Largest target is 0
		 -> NULL(NULL[0]), 

    EUSART_Baud_Rate_Calculation@_eusart.EUSART_FramingErrorHandler	PTR FTN()void  size(2) Largest target is 0
		 -> NULL(NULL[0]), 

    EUSART_Baud_Rate_Calculation@_eusart.EUSART_RxDefaultInterruptHandler	PTR FTN()void  size(2) Largest target is 0
		 -> NULL(NULL[0]), 

    EUSART_Baud_Rate_Calculation@_eusart.EUSART_TxDefaultInterruptHandler	PTR FTN()void  size(2) Largest target is 0
		 -> NULL(NULL[0]), 

    EUSART_Baud_Rate_Calculation@_eusart	PTR const struct . size(2) Largest target is 16
		 -> usart_obj(BANK0[16]), 

    EUSART_ASYNC_Init@_eusart	PTR const struct . size(2) Largest target is 16
		 -> usart_obj(BANK0[16]), 

    Timer3_Mode_Select@_timer.TMR3_InterruptHandler	PTR FTN()void  size(2) Largest target is 0
		 -> NULL(NULL[0]), 

    Timer3_Mode_Select@_timer	PTR const struct . size(2) Largest target is 7
		 -> timer_obj(BANK0[7]), 

    Timer3_Write_value@_timer	PTR const struct . size(2) Largest target is 7
		 -> timer_obj(BANK0[7]), 

    TMR3_Interrupt_Handler	PTR FTN()void  size(2) Largest target is 1
		 -> NULL(), NULL(NULL[0]), 

    Timer3_Init@_timer.TMR3_InterruptHandler	PTR FTN()void  size(2) Largest target is 0
		 -> NULL(NULL[0]), 

    Timer3_Init@_timer	PTR const struct . size(2) Largest target is 7
		 -> timer_obj(BANK0[7]), 

    TMR2_Interrupt_Handler	PTR FTN()void  size(2) Largest target is 1
		 -> NULL(), 

    S3606$TMR2_InterruptHandler	PTR FTN()void  size(2) Largest target is 0

    Timer2_Init@_timer.TMR2_InterruptHandler	PTR FTN()void  size(2) Largest target is 0

    Timer1_Mode_Select@_timer.TMR1_InterruptHandler	PTR FTN()void  size(2) Largest target is 0
		 -> NULL(NULL[0]), 

    Timer1_Mode_Select@_timer	PTR const struct . size(2) Largest target is 7
		 -> timer1_obj(BANK0[7]), 

    TMR1_Interrupt_Handler	PTR FTN()void  size(2) Largest target is 1
		 -> NULL(), NULL(NULL[0]), 

    Timer1_Init@_timer.TMR1_InterruptHandler	PTR FTN()void  size(2) Largest target is 0
		 -> NULL(NULL[0]), 

    Timer1_Init@_timer	PTR const struct . size(2) Largest target is 7
		 -> timer1_obj(BANK0[7]), 

    Timer0_Register_Size_Config@_timer.TMR0_InterruptHandler	PTR FTN()void  size(2) Largest target is 0

    Timer0_Mode_Select@_timer.TMR0_InterruptHandler	PTR FTN()void  size(2) Largest target is 0

    Timer0_Prescaler_Config@_timer.TMR0_InterruptHandler	PTR FTN()void  size(2) Largest target is 0

    TMR0_Interrupt_Handler	PTR FTN()void  size(2) Largest target is 1
		 -> NULL(), 

    S3247$TMR0_InterruptHandler	PTR FTN()void  size(2) Largest target is 0

    Timer0_Init@_timer.TMR0_InterruptHandler	PTR FTN()void  size(2) Largest target is 0

    Interrupt_RBx_SetInterruptHandler@int_obj.EXT_InterruptHandler_LOW	PTR FTN()void  size(2) Largest target is 0

    Interrupt_RBx_SetInterruptHandler@int_obj.EXT_InterruptHandler_HIGH	PTR FTN()void  size(2) Largest target is 0

    S2715$EXT_InterruptHandler_LOW	PTR FTN()void  size(2) Largest target is 0

    Interrupt_RBx_Pin_Init@int_obj.EXT_InterruptHandler_LOW	PTR FTN()void  size(2) Largest target is 0

    S2715$EXT_InterruptHandler_HIGH	PTR FTN()void  size(2) Largest target is 0

    Interrupt_RBx_Pin_Init@int_obj.EXT_InterruptHandler_HIGH	PTR FTN()void  size(2) Largest target is 0

    Interrupt_INTx_SetInterruptHandler@int_obj.EXT_InterruptHandler	PTR FTN()void  size(2) Largest target is 0

    Interrupt_INTx_Clear_Flag@int_obj.EXT_InterruptHandler	PTR FTN()void  size(2) Largest target is 0

    Interrupt_INTx_Pin_Init@int_obj.EXT_InterruptHandler	PTR FTN()void  size(2) Largest target is 0

    Interrupt_INTx_Edge_Init@int_obj.EXT_InterruptHandler	PTR FTN()void  size(2) Largest target is 0

    Interrupt_INTx_Disable@int_obj.EXT_InterruptHandler	PTR FTN()void  size(2) Largest target is 0

    S2677$EXT_InterruptHandler	PTR FTN()void  size(2) Largest target is 0

    Interrupt_INTx_Enable@int_obj.EXT_InterruptHandler	PTR FTN()void  size(2) Largest target is 0

    RB7_InterruptHandler_LOW	PTR FTN()void  size(2) Largest target is 1
		 -> NULL(), 

    RB7_InterruptHandler_HIGH	PTR FTN()void  size(2) Largest target is 1
		 -> NULL(), 

    RB6_InterruptHandler_LOW	PTR FTN()void  size(2) Largest target is 1
		 -> NULL(), 

    RB6_InterruptHandler_HIGH	PTR FTN()void  size(2) Largest target is 1
		 -> NULL(), 

    RB5_InterruptHandler_LOW	PTR FTN()void  size(2) Largest target is 1
		 -> NULL(), 

    RB5_InterruptHandler_HIGH	PTR FTN()void  size(2) Largest target is 1
		 -> NULL(), 

    RB4_InterruptHandler_LOW	PTR FTN()void  size(2) Largest target is 1
		 -> NULL(), 

    RB4_InterruptHandler_HIGH	PTR FTN()void  size(2) Largest target is 1
		 -> NULL(), 

    INT2_InterruptHandler	PTR FTN()void  size(2) Largest target is 1
		 -> NULL(), 

    INT1_InterruptHandler	PTR FTN()void  size(2) Largest target is 1
		 -> NULL(), 

    INT0_InterruptHandler	PTR FTN()void  size(2) Largest target is 1
		 -> NULL(), 

    MSSP_I2C_Master_Mode_Clock_CFG@i2c_obj	PTR const struct . size(2) Largest target is 5
		 -> i2c_obj(COMRAM[5]), 

    MSSP_I2C_Master_Read_Blocking@i2c_data	PTR unsigned char  size(2) Largest target is 1
		 -> EEPROM_24C02C_Read_Byte@data_read(COMRAM[1]), I2C_Read_Register@read_Value(COMRAM[1]), Read_RealTimeClockDS1307@data_read(COMRAM[1]), 

    MSSP_I2C_Master_Read_Blocking@i2c_obj	PTR const struct . size(2) Largest target is 5
		 -> I2C_Read_Register@i2c_obj(COMRAM[2]), i2c_obj(COMRAM[5]), 

    MSSP_I2C_Master_Write_Blocking@ack	PTR unsigned char  size(2) Largest target is 1
		 -> EEPROM_24C02C_Read_Byte@slave_ack(COMRAM[1]), EEPROM_24C02C_Write_Byte@slave_ack(COMRAM[1]), I2C_Write_Register@slave_ack(COMRAM[1]), I2C_Read_Register@slave_ack(COMRAM[1]), 
		 -> Read_RealTimeClockDS1307@slave_ack(COMRAM[1]), 

    MSSP_I2C_Master_Write_Blocking@i2c_obj	PTR const struct . size(2) Largest target is 5
		 -> I2C_Write_Register@i2c_obj(COMRAM[2]), I2C_Read_Register@i2c_obj(COMRAM[2]), i2c_obj(COMRAM[5]), 

    MSSP_I2C_Master_Send_Stop@i2c_obj	PTR const struct . size(2) Largest target is 5
		 -> I2C_Write_Register@i2c_obj(COMRAM[2]), I2C_Read_Register@i2c_obj(COMRAM[2]), i2c_obj(COMRAM[5]), 

    MSSP_I2C_Master_Send_Repeated_Start@i2c_obj	PTR const struct . size(2) Largest target is 5
		 -> I2C_Read_Register@i2c_obj(COMRAM[2]), i2c_obj(COMRAM[5]), 

    MSSP_I2C_Master_Send_Start@i2c_obj	PTR const struct . size(2) Largest target is 5
		 -> I2C_Write_Register@i2c_obj(COMRAM[2]), I2C_Read_Register@i2c_obj(COMRAM[2]), i2c_obj(COMRAM[5]), 

    MSSP_I2C_Init@i2c_obj	PTR const struct . size(2) Largest target is 5
		 -> i2c_obj(COMRAM[5]), 

    gpio_pin_intialize@_pin_config	PTR const struct . size(2) Largest target is 11
		 -> ccp2_obj(BANK1[11]), ccp1_obj(BANK1[11]), keypad1.keypad_row_pins(BANK1[4]), keypad1(BANK1[8]), 
		 -> lcd_2.lcd_data(BANK0[8]), relay_initialize@pin_obj(COMRAM[1]), lcd_2(BANK0[10]), led_initialize@pin_obj(COMRAM[1]), 

    gpio_pin_read_logic@logic	PTR enum E2968 size(2) Largest target is 1
		 -> keypad_get_value@coulmn_logic(COMRAM[1]), button_read_state@Pin_Logic_Status(COMRAM[1]), 

    gpio_pin_read_logic@_pin_config	PTR const struct . size(2) Largest target is 8
		 -> keypad1.keypad_coulmn_pins(BANK1[4]), keypad1(BANK1[8]), 

    gpio_pin_write_logic@_pin_config	PTR const struct . size(2) Largest target is 11
		 -> ccp2_obj(BANK1[11]), ccp1_obj(BANK1[11]), keypad1.keypad_row_pins(BANK1[4]), keypad1(BANK1[8]), 
		 -> lcd_2.lcd_data(BANK0[8]), relay_turn_off@pin_obj(COMRAM[1]), relay_turn_on@pin_obj(COMRAM[1]), relay_initialize@pin_obj(COMRAM[1]), 
		 -> lcd_2(BANK0[10]), led_turn_off@pin_obj(COMRAM[1]), led_turn_on@pin_obj(COMRAM[1]), led_initialize@pin_obj(COMRAM[1]), 

    gpio_pin_direction_intialize@_pin_config	PTR const struct . size(2) Largest target is 11
		 -> ccp2_obj(BANK1[11]), ccp1_obj(BANK1[11]), keypad1.keypad_coulmn_pins(BANK1[4]), keypad1.keypad_row_pins(BANK1[4]), 
		 -> keypad1(BANK1[8]), lcd_2.lcd_data(BANK0[8]), relay_initialize@pin_obj(COMRAM[1]), lcd_2(BANK0[10]), 
		 -> led_initialize@pin_obj(COMRAM[1]), 

    port_registers	PTR volatile unsigned char [5] size(2) Largest target is 1
		 -> PORTE(BITBIGSFRlllll[1]), PORTD(BITBIGSFRlllll[1]), PORTC(BITBIGSFRlllll[1]), PORTB(BITBIGSFRlllll[1]), 
		 -> PORTA(BITBIGSFRlllll[1]), 

    lat_registers	PTR volatile unsigned char [5] size(2) Largest target is 1
		 -> LATE(BITBIGSFRllllh[1]), LATD(BITBIGSFRllllh[1]), LATC(BITBIGSFRllllh[1]), LATB(BITBIGSFRllllh[1]), 
		 -> LATA(BITBIGSFRlllll[1]), 

    tris_registers	PTR volatile unsigned char [5] size(2) Largest target is 1
		 -> TRISD(ABS[1]), TRISC(ABS[1]), TRISB(ABS[1]), TRISE(ABS[1]), 
		 -> TRISA(BITBIGSFRlllll[1]), 

    CCP_Compare_Mode_Config@_ccp_obj.CCP2_InterruptHandler	PTR FTN()void  size(2) Largest target is 1
		 -> CCP2_DefaultInterruptHandler(), 

    CCP_Compare_Mode_Config@_ccp_obj.CCP1_InterruptHandler	PTR FTN()void  size(2) Largest target is 1
		 -> CCP1_DefaultInterruptHandler(), 

    CCP_Compare_Mode_Config@_ccp_obj	PTR const struct . size(2) Largest target is 11
		 -> ccp2_obj(BANK1[11]), ccp1_obj(BANK1[11]), 

    CCP_Capture_Mode_Config@_ccp_obj.CCP2_InterruptHandler	PTR FTN()void  size(2) Largest target is 1
		 -> CCP2_DefaultInterruptHandler(), 

    CCP_Capture_Mode_Config@_ccp_obj.CCP1_InterruptHandler	PTR FTN()void  size(2) Largest target is 1
		 -> CCP1_DefaultInterruptHandler(), 

    CCP_Capture_Mode_Config@_ccp_obj	PTR const struct . size(2) Largest target is 11
		 -> ccp2_obj(BANK1[11]), ccp1_obj(BANK1[11]), 

    CCP_Mode_Timer_Select@_ccp_obj.CCP2_InterruptHandler	PTR FTN()void  size(2) Largest target is 1
		 -> CCP2_DefaultInterruptHandler(), 

    CCP_Mode_Timer_Select@_ccp_obj.CCP1_InterruptHandler	PTR FTN()void  size(2) Largest target is 1
		 -> CCP1_DefaultInterruptHandler(), 

    CCP_Mode_Timer_Select@_ccp_obj	PTR const struct . size(2) Largest target is 11
		 -> ccp2_obj(BANK1[11]), ccp1_obj(BANK1[11]), 

    CCP_Interrupt_Config@_ccp_obj.CCP2_InterruptHandler	PTR FTN()void  size(2) Largest target is 1
		 -> CCP2_DefaultInterruptHandler(), 

    CCP_Interrupt_Config@_ccp_obj.CCP1_InterruptHandler	PTR FTN()void  size(2) Largest target is 1
		 -> CCP1_DefaultInterruptHandler(), 

    CCP_Interrupt_Config@_ccp_obj	PTR const struct . size(2) Largest target is 11
		 -> ccp2_obj(BANK1[11]), ccp1_obj(BANK1[11]), 

    CCP_Compare_Mode_Set_Value@_ccp_obj.CCP2_InterruptHandler	PTR FTN()void  size(2) Largest target is 1
		 -> CCP2_DefaultInterruptHandler(), 

    CCP_Compare_Mode_Set_Value@_ccp_obj.CCP1_InterruptHandler	PTR FTN()void  size(2) Largest target is 1
		 -> CCP1_DefaultInterruptHandler(), 

    CCP_Compare_Mode_Set_Value@_ccp_obj	PTR const struct . size(2) Largest target is 11
		 -> ccp2_obj(BANK1[11]), ccp1_obj(BANK1[11]), 

    CCP_IsCompareComplete@_ccp_obj.CCP2_InterruptHandler	PTR FTN()void  size(2) Largest target is 1
		 -> CCP2_DefaultInterruptHandler(), 

    CCP_IsCompareComplete@_ccp_obj.CCP1_InterruptHandler	PTR FTN()void  size(2) Largest target is 1
		 -> CCP1_DefaultInterruptHandler(), 

    CCP1_DeInit@_ccp_obj.CCP2_InterruptHandler	PTR FTN()void  size(2) Largest target is 1
		 -> CCP2_DefaultInterruptHandler(), 

    CCP1_DeInit@_ccp_obj.CCP1_InterruptHandler	PTR FTN()void  size(2) Largest target is 1
		 -> CCP1_DefaultInterruptHandler(), 

    CCP_Init@_ccp_obj.CCP2_InterruptHandler	PTR FTN()void  size(2) Largest target is 1
		 -> CCP2_DefaultInterruptHandler(), 

    CCP_Init@_ccp_obj.CCP1_InterruptHandler	PTR FTN()void  size(2) Largest target is 1
		 -> CCP1_DefaultInterruptHandler(), 

    CCP_Init@_ccp_obj	PTR const struct . size(2) Largest target is 11
		 -> ccp2_obj(BANK1[11]), ccp1_obj(BANK1[11]), 

    CCP1_Interrupt_Handler	PTR FTN()void  size(2) Largest target is 1
		 -> NULL(), CCP1_DefaultInterruptHandler(), 

    CCP2_Interrupt_Handler	PTR FTN()void  size(2) Largest target is 1
		 -> NULL(), CCP2_DefaultInterruptHandler(), 

    configure_voltage_reference@_adc.ADC_InterruptHandler	PTR FTN()void  size(2) Largest target is 0

    select_result_format@_adc.ADC_InterruptHandler	PTR FTN()void  size(2) Largest target is 0

    ADC_GetConversionResult@_adc.ADC_InterruptHandler	PTR FTN()void  size(2) Largest target is 0

    ADC_Interrupt_Handler	PTR FTN()void  size(2) Largest target is 1
		 -> NULL(), 

    S1177$ADC_InterruptHandler	PTR FTN()void  size(2) Largest target is 0

    ADC_Init@_adc.ADC_InterruptHandler	PTR FTN()void  size(2) Largest target is 0

    ccp2_obj.CCP2_InterruptHandler	PTR FTN()void  size(2) Largest target is 1
		 -> CCP2_DefaultInterruptHandler(), 

    ccp2_obj.CCP1_InterruptHandler	PTR FTN()void  size(2) Largest target is 1
		 -> CCP1_DefaultInterruptHandler(), 

    S836$CCP2_InterruptHandler	PTR FTN()void  size(2) Largest target is 1
		 -> CCP2_DefaultInterruptHandler(), 

    ccp1_obj.CCP2_InterruptHandler	PTR FTN()void  size(2) Largest target is 1
		 -> CCP2_DefaultInterruptHandler(), 

    S836$CCP1_InterruptHandler	PTR FTN()void  size(2) Largest target is 1
		 -> CCP1_DefaultInterruptHandler(), 

    ccp1_obj.CCP1_InterruptHandler	PTR FTN()void  size(2) Largest target is 1
		 -> CCP1_DefaultInterruptHandler(), 

    S808$TMR1_InterruptHandler	PTR FTN()void  size(2) Largest target is 0
		 -> NULL(NULL[0]), 

    timer1_obj.TMR1_InterruptHandler	PTR FTN()void  size(2) Largest target is 0
		 -> NULL(NULL[0]), 

    S793$TMR3_InterruptHandler	PTR FTN()void  size(2) Largest target is 0
		 -> NULL(NULL[0]), 

    timer_obj.TMR3_InterruptHandler	PTR FTN()void  size(2) Largest target is 0
		 -> NULL(NULL[0]), 

    S777$EUSART_OverrunErrorHandler	PTR FTN()void  size(2) Largest target is 0
		 -> NULL(NULL[0]), 

    usart_obj.EUSART_OverrunErrorHandler	PTR FTN()void  size(2) Largest target is 0
		 -> NULL(NULL[0]), 

    S777$EUSART_FramingErrorHandler	PTR FTN()void  size(2) Largest target is 0
		 -> NULL(NULL[0]), 

    usart_obj.EUSART_FramingErrorHandler	PTR FTN()void  size(2) Largest target is 0
		 -> NULL(NULL[0]), 

    S777$EUSART_RxDefaultInterruptHandler	PTR FTN()void  size(2) Largest target is 0
		 -> NULL(NULL[0]), 

    usart_obj.EUSART_RxDefaultInterruptHandler	PTR FTN()void  size(2) Largest target is 0
		 -> NULL(NULL[0]), 

    S777$EUSART_TxDefaultInterruptHandler	PTR FTN()void  size(2) Largest target is 0
		 -> NULL(NULL[0]), 

    usart_obj.EUSART_TxDefaultInterruptHandler	PTR FTN()void  size(2) Largest target is 0
		 -> NULL(NULL[0]), 

    relay_turn_on@_relay	PTR const struct . size(2) Largest target is 1
		 -> relay2(COMRAM[1]), relay1(COMRAM[1]), 

    relay_initialize@_relay	PTR const struct . size(2) Largest target is 1
		 -> relay2(COMRAM[1]), relay1(COMRAM[1]), 

    led_turn_on@led	PTR const struct . size(2) Largest target is 1
		 -> led2(COMRAM[1]), led1(COMRAM[1]), 

    led_initialize@led	PTR const struct . size(2) Largest target is 1
		 -> led2(COMRAM[1]), led1(COMRAM[1]), 

    keypad_get_value@value	PTR unsigned char  size(2) Largest target is 1
		 -> keypadvalue(COMRAM[1]), 

    keypad_get_value@_keypad_obj	PTR const struct . size(2) Largest target is 8
		 -> keypad1(BANK1[8]), 

    keypad_initialize@_keypad_obj	PTR const struct . size(2) Largest target is 8
		 -> keypad1(BANK1[8]), 

    lcd_8bit_set_cursor@lcd	PTR const struct . size(2) Largest target is 10
		 -> lcd_2(BANK0[10]), 

    lcd_8bit_send_enable_signal@lcd	PTR const struct . size(2) Largest target is 10
		 -> lcd_2(BANK0[10]), 

    sp__memset	PTR void  size(2) Largest target is 0

    lcd_8bit_send_string_pos@str	PTR unsigned char  size(2) Largest target is 20
		 -> STR_29(CODE[19]), STR_28(CODE[10]), STR_27(CODE[17]), STR_26(CODE[2]), 
		 -> STR_25(CODE[12]), STR_24(CODE[10]), STR_23(CODE[18]), STR_22(CODE[20]), 
		 -> STR_21(CODE[15]), STR_20(CODE[13]), STR_19(CODE[15]), STR_18(CODE[15]), 
		 -> STR_17(CODE[18]), STR_16(CODE[20]), STR_15(CODE[15]), STR_14(CODE[13]), 
		 -> STR_13(CODE[15]), STR_12(CODE[15]), STR_11(CODE[9]), STR_10(CODE[19]), 
		 -> STR_9(CODE[12]), STR_8(CODE[12]), STR_7(CODE[8]), STR_6(CODE[19]), 
		 -> STR_5(CODE[8]), STR_4(CODE[8]), RealTimeClockDS1307_Time(BANK0[9]), RealTimeClockDS1307_Data(BANK0[9]), 

    lcd_8bit_send_string_pos@lcd	PTR const struct . size(2) Largest target is 10
		 -> lcd_2(BANK0[10]), 

    lcd_8bit_send_char_data@lcd	PTR const struct . size(2) Largest target is 10
		 -> lcd_2(BANK0[10]), 

    lcd_8bit_send_command@lcd	PTR const struct . size(2) Largest target is 10
		 -> lcd_2(BANK0[10]), 

    lcd_8bit_initialize@lcd	PTR const struct . size(2) Largest target is 10
		 -> lcd_2(BANK0[10]), 


Critical Paths under _main in COMRAM

    _relay_turn_on->_gpio_pin_write_logic
    _led_turn_on->_gpio_pin_write_logic
    _ecu_layer_intialize->_MSSP_I2C_Init
    _relay_initialize->_gpio_pin_intialize
    _led_initialize->_gpio_pin_intialize
    _lcd_8bit_initialize->_lcd_8bit_send_command
    _keypad_initialize->_gpio_pin_intialize
    _MSSP_I2C_Init->_MSSP_I2C_Master_Mode_Clock_CFG
    _MSSP_I2C_Master_Mode_Clock_CFG->___fltol
    _EUSART_ASYNC_Init->_EUSART_Baud_Rate_Calculation
    _EUSART_Baud_Rate_Calculation->___fltol
    ___fltol->___fladd
    ___fldiv->___xxtofl
    ___fladd->___fldiv
    _RealTimeClockDS1307_Get_Date_Time->_Read_RealTimeClockDS1307
    _Read_RealTimeClockDS1307->_MSSP_I2C_Master_Read_Blocking
    _Read_RealTimeClockDS1307->_MSSP_I2C_Master_Write_Blocking
    _Print_RealTimeClockDS1307->_lcd_8bit_send_string_pos
    _EEPROM_24C02C_Write_Byte->_MSSP_I2C_Master_Write_Blocking
    _Door2_Open->_CCP_Init
    _timer3_timer_init->_Timer3_Init
    _Timer3_Init->_Timer3_Mode_Select
    _Door1_Open->_CCP_Init
    _timer1_timer_init->_Timer1_Init
    _Timer1_Init->_Timer1_Mode_Select
    _CCP_Init->_gpio_pin_intialize
    _gpio_pin_intialize->_gpio_pin_write_logic
    _CCP_Compare_Mode_Config->_CCP_Mode_Timer_Select
    _CCP_Capture_Mode_Config->_CCP_Mode_Timer_Select
    _Check_Password->_Read_Password
    _Read_Password->_lcd_8bit_send_string_pos
    _lcd_8bit_send_string_pos->_lcd_8bit_set_cursor
    _lcd_8bit_set_cursor->_lcd_8bit_send_command
    _lcd_8bit_send_command->_lcd_8bit_send_enable_signal
    _lcd_8bit_send_char_data->_lcd_8bit_send_enable_signal
    _lcd_8bit_send_enable_signal->_gpio_pin_write_logic
    _keypad_get_value->_gpio_pin_read_logic
    _keypad_get_value->_gpio_pin_write_logic

Critical Paths under _InterruptManagerHigh in COMRAM

    _CCP2_DefaultInterruptHandler->i2_CCP_Compare_Mode_Set_Value
    _CCP1_DefaultInterruptHandler->i2_CCP_Compare_Mode_Set_Value

Critical Paths under _main in BANK0

    None.

Critical Paths under _InterruptManagerHigh in BANK0

    None.

Critical Paths under _main in BANK1

    _EUSART_ASYNC_Init->_EUSART_Baud_Rate_Calculation

Critical Paths under _InterruptManagerHigh in BANK1

    None.

Critical Paths under _main in BANK2

    None.

Critical Paths under _InterruptManagerHigh in BANK2

    None.

Critical Paths under _main in BANK3

    None.

Critical Paths under _InterruptManagerHigh in BANK3

    None.

Critical Paths under _main in BANK4

    None.

Critical Paths under _InterruptManagerHigh in BANK4

    None.

Critical Paths under _main in BANK5

    None.

Critical Paths under _InterruptManagerHigh in BANK5

    None.

Critical Paths under _main in BANK6

    None.

Critical Paths under _InterruptManagerHigh in BANK6

    None.

Critical Paths under _main in BANK7

    None.

Critical Paths under _InterruptManagerHigh in BANK7

    None.

Critical Paths under _main in BANK8

    None.

Critical Paths under _InterruptManagerHigh in BANK8

    None.

Critical Paths under _main in BANK9

    None.

Critical Paths under _InterruptManagerHigh in BANK9

    None.

Critical Paths under _main in BANK10

    None.

Critical Paths under _InterruptManagerHigh in BANK10

    None.

Critical Paths under _main in BANK11

    None.

Critical Paths under _InterruptManagerHigh in BANK11

    None.

Critical Paths under _main in BANK12

    None.

Critical Paths under _InterruptManagerHigh in BANK12

    None.

Critical Paths under _main in BANK13

    None.

Critical Paths under _InterruptManagerHigh in BANK13

    None.

Critical Paths under _main in BANK14

    None.

Critical Paths under _InterruptManagerHigh in BANK14

    None.

Critical Paths under _main in BANK15

    None.

Critical Paths under _InterruptManagerHigh in BANK15

    None.

Call Graph Tables:

 ---------------------------------------------------------------------------------
 (Depth) Function   	        Calls       Base Space   Used Autos Params    Refs
 ---------------------------------------------------------------------------------
 (0) _main                                                 4     4      0  365428
                                              8 BANK1      4     4      0
                     _Check_Password
                         _Door1_Open
                         _Door2_Open
           _EEPROM_24C02C_Write_Byte
          _Print_RealTimeClockDS1307
  _RealTimeClockDS1307_Get_Date_Time
              _application_intialize
                   _keypad_get_value
              _lcd_8bit_send_command
           _lcd_8bit_send_string_pos
                        _led_turn_on
                      _relay_turn_on
 ---------------------------------------------------------------------------------
 (1) _relay_turn_on                                        5     3      2    6239
                                             20 COMRAM     4     2      2
               _gpio_pin_write_logic
 ---------------------------------------------------------------------------------
 (1) _led_turn_on                                          5     3      2    6239
                                             20 COMRAM     4     2      2
               _gpio_pin_write_logic
 ---------------------------------------------------------------------------------
 (1) _application_intialize                                0     0      0   74016
                _ecu_layer_intialize
 ---------------------------------------------------------------------------------
 (2) _ecu_layer_intialize                                  1     1      0   74016
                  _EUSART_ASYNC_Init
                        _I2C_Obj_CFG
                      _MSSP_I2C_Init
                  _keypad_initialize
                _lcd_8bit_initialize
                     _led_initialize
                   _relay_initialize
                   _usart_model_init
 ---------------------------------------------------------------------------------
 (3) _usart_model_init                                     0     0      0       0
 ---------------------------------------------------------------------------------
 (3) _relay_initialize                                     5     3      2    8608
                                             24 COMRAM     4     2      2
                 _gpio_pin_intialize
 ---------------------------------------------------------------------------------
 (3) _led_initialize                                       5     3      2    8608
                                             24 COMRAM     4     2      2
                 _gpio_pin_intialize
 ---------------------------------------------------------------------------------
 (3) _lcd_8bit_initialize                                  6     4      2   27440
                                             32 COMRAM     6     4      2
                 _gpio_pin_intialize
              _lcd_8bit_send_command
 ---------------------------------------------------------------------------------
 (3) _keypad_initialize                                    7     5      2    9319
                                             24 COMRAM     7     5      2
       _gpio_pin_direction_intialize
                 _gpio_pin_intialize
 ---------------------------------------------------------------------------------
 (3) _MSSP_I2C_Init                                        4     2      2    9572
                                             80 COMRAM     3     1      2
             _MSSP_I2C_MODE_GPIO_CFG
     _MSSP_I2C_Master_Mode_Clock_CFG
 ---------------------------------------------------------------------------------
 (4) _MSSP_I2C_Master_Mode_Clock_CFG                       4     2      2    9070
                                             76 COMRAM     4     2      2
                            ___fladd
                            ___fldiv
                            ___fltol
                           ___xxtofl
 ---------------------------------------------------------------------------------
 (4) _MSSP_I2C_MODE_GPIO_CFG                               0     0      0       0
 ---------------------------------------------------------------------------------
 (3) _I2C_Obj_CFG                                          0     0      0       0
 ---------------------------------------------------------------------------------
 (3) _EUSART_ASYNC_Init                                    3     1      2   10442
                                             80 COMRAM     2     0      2
               _EUSART_ASYNC_RX_Init
               _EUSART_ASYNC_TX_Init
       _EUSART_Baud_Rate_Calculation
 ---------------------------------------------------------------------------------
 (4) _EUSART_Baud_Rate_Calculation                        12    10      2    9512
                                             76 COMRAM     4     2      2
                                              0 BANK1      8     8      0
                            ___fladd
                            ___fldiv
                            ___fltol
                           ___xxtofl
 ---------------------------------------------------------------------------------
 (5) ___xxtofl                                            14    10      4     896
                                             11 COMRAM    14    10      4
 ---------------------------------------------------------------------------------
 (5) ___fltol                                             10     6      4     577
                                             66 COMRAM    10     6      4
                            ___fladd (ARG)
                            ___fldiv (ARG)
                           ___xxtofl (ARG)
 ---------------------------------------------------------------------------------
 (5) ___fldiv                                             25    17      8    3383
                                             25 COMRAM    25    17      8
                           ___xxtofl (ARG)
 ---------------------------------------------------------------------------------
 (5) ___fladd                                             16     8      8    4062
                                             50 COMRAM    16     8      8
                            ___fldiv (ARG)
                           ___xxtofl (ARG)
 ---------------------------------------------------------------------------------
 (4) _EUSART_ASYNC_TX_Init                                 2     0      2     307
                                             11 COMRAM     2     0      2
 ---------------------------------------------------------------------------------
 (4) _EUSART_ASYNC_RX_Init                                 2     0      2     369
                                             11 COMRAM     2     0      2
 ---------------------------------------------------------------------------------
 (1) _RealTimeClockDS1307_Get_Date_Time                    8     2      6    6573
                                             20 COMRAM     6     0      6
           _Read_RealTimeClockDS1307
 ---------------------------------------------------------------------------------
 (2) _Read_RealTimeClockDS1307                             4     4      0    6573
                                             16 COMRAM     4     4      0
      _MSSP_I2C_Master_Read_Blocking
_MSSP_I2C_Master_Send_Repeated_Start
         _MSSP_I2C_Master_Send_Start
          _MSSP_I2C_Master_Send_Stop
     _MSSP_I2C_Master_Write_Blocking
 ---------------------------------------------------------------------------------
 (3) _MSSP_I2C_Master_Send_Repeated_Start                  3     1      2     341
                                             11 COMRAM     2     0      2
 ---------------------------------------------------------------------------------
 (3) _MSSP_I2C_Master_Read_Blocking                        6     1      5    1005
                                             11 COMRAM     5     0      5
 ---------------------------------------------------------------------------------
 (1) _Print_RealTimeClockDS1307                            0     0      0   42811
           _lcd_8bit_send_string_pos
 ---------------------------------------------------------------------------------
 (1) _EEPROM_24C02C_Write_Byte                             6     4      2    5581
                                             16 COMRAM     5     3      2
         _MSSP_I2C_Master_Send_Start
          _MSSP_I2C_Master_Send_Stop
     _MSSP_I2C_Master_Write_Blocking
 ---------------------------------------------------------------------------------
 (3) _MSSP_I2C_Master_Write_Blocking                       6     1      5    3975
                                             11 COMRAM     5     0      5
 ---------------------------------------------------------------------------------
 (3) _MSSP_I2C_Master_Send_Stop                            3     1      2     524
                                             11 COMRAM     2     0      2
 ---------------------------------------------------------------------------------
 (3) _MSSP_I2C_Master_Send_Start                           3     1      2     524
                                             11 COMRAM     2     0      2
 ---------------------------------------------------------------------------------
 (1) _Door2_Open                                           0     0      0   11650
                      _CCP2_SET_Duty
         _CCP_Compare_Mode_Set_Value
                           _CCP_Init
                  _timer3_timer_init
 ---------------------------------------------------------------------------------
 (2) _timer3_timer_init                                    0     0      0     561
                        _Timer3_Init
 ---------------------------------------------------------------------------------
 (3) _Timer3_Init                                          5     3      2     561
                                             13 COMRAM     4     2      2
                 _Timer3_Mode_Select
 ---------------------------------------------------------------------------------
 (4) _Timer3_Mode_Select                                   2     0      2     214
                                             11 COMRAM     2     0      2
 ---------------------------------------------------------------------------------
 (2) _CCP2_SET_Duty                                        0     0      0       0
 ---------------------------------------------------------------------------------
 (1) _Door1_Open                                           0     0      0   11650
                      _CCP1_SET_Duty
         _CCP_Compare_Mode_Set_Value
                           _CCP_Init
                  _timer1_timer_init
 ---------------------------------------------------------------------------------
 (2) _timer1_timer_init                                    0     0      0     561
                        _Timer1_Init
 ---------------------------------------------------------------------------------
 (3) _Timer1_Init                                          5     3      2     561
                                             13 COMRAM     4     2      2
                 _Timer1_Mode_Select
 ---------------------------------------------------------------------------------
 (4) _Timer1_Mode_Select                                   2     0      2     214
                                             11 COMRAM     2     0      2
 ---------------------------------------------------------------------------------
 (2) _CCP_Init                                             4     2      2    9989
                                             24 COMRAM     3     1      2
            _CCP_Capture_Mode_Config
            _CCP_Compare_Mode_Config
               _CCP_Interrupt_Config
                 _gpio_pin_intialize
 ---------------------------------------------------------------------------------
 (4) _gpio_pin_intialize                                   4     2      2    8182
                                             20 COMRAM     4     2      2
       _gpio_pin_direction_intialize
               _gpio_pin_write_logic
 ---------------------------------------------------------------------------------
 (5) _gpio_pin_direction_intialize                         9     7      2     707
                                             11 COMRAM     8     6      2
 ---------------------------------------------------------------------------------
 (3) _CCP_Interrupt_Config                                 2     0      2     152
                                             11 COMRAM     2     0      2
 ---------------------------------------------------------------------------------
 (3) _CCP_Compare_Mode_Config                              5     3      2     558
                                             14 COMRAM     4     2      2
              _CCP_Mode_Timer_Select
 ---------------------------------------------------------------------------------
 (3) _CCP_Capture_Mode_Config                              5     3      2     558
                                             14 COMRAM     4     2      2
              _CCP_Mode_Timer_Select
 ---------------------------------------------------------------------------------
 (4) _CCP_Mode_Timer_Select                                3     1      2     273
                                             11 COMRAM     3     1      2
 ---------------------------------------------------------------------------------
 (2) _CCP_Compare_Mode_Set_Value                           8     4      4    1100
                                             11 COMRAM     7     3      4
 ---------------------------------------------------------------------------------
 (2) _CCP1_SET_Duty                                        0     0      0       0
 ---------------------------------------------------------------------------------
 (1) _Check_Password                                       2     2      0  130970
                                             47 COMRAM     2     2      0
                      _Read_Password
              _lcd_8bit_send_command
           _lcd_8bit_send_string_pos
 ---------------------------------------------------------------------------------
 (2) _Read_Password                                        2     2      0   69569
                                             45 COMRAM     2     2      0
                   _keypad_get_value
              _lcd_8bit_send_command
           _lcd_8bit_send_string_pos
 ---------------------------------------------------------------------------------
 (1) _lcd_8bit_send_string_pos                             7     1      6   42811
                                             38 COMRAM     7     1      6
            _lcd_8bit_send_char_data
                _lcd_8bit_set_cursor
 ---------------------------------------------------------------------------------
 (2) _lcd_8bit_set_cursor                                  7     3      4   19427
                                             32 COMRAM     6     2      4
              _lcd_8bit_send_command
 ---------------------------------------------------------------------------------
 (3) _lcd_8bit_send_command                                9     6      3   18590
                                             23 COMRAM     9     6      3
               _gpio_pin_write_logic
        _lcd_8bit_send_enable_signal
 ---------------------------------------------------------------------------------
 (2) _lcd_8bit_send_char_data                              9     6      3   13010
                                             23 COMRAM     9     6      3
               _gpio_pin_write_logic
        _lcd_8bit_send_enable_signal
 ---------------------------------------------------------------------------------
 (4) _lcd_8bit_send_enable_signal                          3     1      2    6119
                                             20 COMRAM     3     1      2
               _gpio_pin_write_logic
 ---------------------------------------------------------------------------------
 (1) _keypad_get_value                                    11     7      4    8168
                                             20 COMRAM    11     7      4
                _gpio_pin_read_logic
               _gpio_pin_write_logic
 ---------------------------------------------------------------------------------
 (2) _gpio_pin_write_logic                                10     7      3    5837
                                             11 COMRAM     9     6      3
 ---------------------------------------------------------------------------------
 (2) _gpio_pin_read_logic                                 10     6      4     583
                                             11 COMRAM     9     5      4
 ---------------------------------------------------------------------------------
 Estimated maximum stack depth 5
 ---------------------------------------------------------------------------------
 (Depth) Function   	        Calls       Base Space   Used Autos Params    Refs
 ---------------------------------------------------------------------------------
 (8) _InterruptManagerHigh                                 4     4      0    1792
                                              7 COMRAM     4     4      0
                            _ADC_ISR
                           _CCP1_ISR
                           _CCP2_ISR
                      _EUSART_Rx_ISR
                      _EUSART_Tx_ISR
                           _INT0_ISR
                           _INT1_ISR
                           _INT2_ISR
                    _MSSP_I2C_BC_ISR
                       _MSSP_I2C_ISR
                            _RB4_ISR
                            _RB5_ISR
                            _RB6_ISR
                            _RB7_ISR
                           _TMR0_ISR
                           _TMR1_ISR
                           _TMR2_ISR
                           _TMR3_ISR
 ---------------------------------------------------------------------------------
 (9) _TMR3_ISR                                             0     0      0       0
 ---------------------------------------------------------------------------------
 (9) _TMR2_ISR                                             0     0      0       0
 ---------------------------------------------------------------------------------
 (9) _TMR1_ISR                                             0     0      0       0
 ---------------------------------------------------------------------------------
 (9) _TMR0_ISR                                             0     0      0       0
 ---------------------------------------------------------------------------------
 (9) _RB7_ISR                                              1     1      0      44
                                              0 COMRAM     1     1      0
 ---------------------------------------------------------------------------------
 (9) _RB6_ISR                                              1     1      0      44
                                              0 COMRAM     1     1      0
 ---------------------------------------------------------------------------------
 (9) _RB5_ISR                                              1     1      0      44
                                              0 COMRAM     1     1      0
 ---------------------------------------------------------------------------------
 (9) _RB4_ISR                                              1     1      0      44
                                              0 COMRAM     1     1      0
 ---------------------------------------------------------------------------------
 (9) _MSSP_I2C_ISR                                         0     0      0       0
 ---------------------------------------------------------------------------------
 (9) _MSSP_I2C_BC_ISR                                      0     0      0       0
 ---------------------------------------------------------------------------------
 (9) _INT2_ISR                                             0     0      0       0
 ---------------------------------------------------------------------------------
 (9) _INT1_ISR                                             0     0      0       0
 ---------------------------------------------------------------------------------
 (9) _INT0_ISR                                             0     0      0       0
 ---------------------------------------------------------------------------------
 (9) _EUSART_Tx_ISR                                        0     0      0       0
 ---------------------------------------------------------------------------------
 (9) _EUSART_Rx_ISR                                        0     0      0       0
 ---------------------------------------------------------------------------------
 (9) _CCP2_ISR                                             0     0      0     808
                                NULL *
       _CCP2_DefaultInterruptHandler *
 ---------------------------------------------------------------------------------
 (10) _CCP2_DefaultInterruptHandler                        0     0      0     808
                 _Timer3_Write_value
       i2_CCP_Compare_Mode_Set_Value
 ---------------------------------------------------------------------------------
 (9) _CCP1_ISR                                             0     0      0     808
                                NULL *
       _CCP1_DefaultInterruptHandler *
 ---------------------------------------------------------------------------------
 (10) _CCP1_DefaultInterruptHandler                        0     0      0     808
                 _Timer3_Write_value
       i2_CCP_Compare_Mode_Set_Value
 ---------------------------------------------------------------------------------
 (11) i2_CCP_Compare_Mode_Set_Value                        8     4      4     413
                                              0 COMRAM     7     3      4
 ---------------------------------------------------------------------------------
 (11) _Timer3_Write_value                                  5     1      4     395
                                              0 COMRAM     4     0      4
 ---------------------------------------------------------------------------------
 (10) NULL(Fake)                                           0     0      0       0
 ---------------------------------------------------------------------------------
 (9) _ADC_ISR                                              0     0      0       0
 ---------------------------------------------------------------------------------
 Estimated maximum stack depth 11
 ---------------------------------------------------------------------------------

 Call Graph Graphs:

 _main (ROOT)
   _Check_Password
     _Read_Password
       _keypad_get_value
         _gpio_pin_read_logic
         _gpio_pin_write_logic
       _lcd_8bit_send_command
         _gpio_pin_write_logic
         _lcd_8bit_send_enable_signal
           _gpio_pin_write_logic
       _lcd_8bit_send_string_pos
         _lcd_8bit_send_char_data
           _gpio_pin_write_logic
           _lcd_8bit_send_enable_signal
         _lcd_8bit_set_cursor
           _lcd_8bit_send_command
     _lcd_8bit_send_command
     _lcd_8bit_send_string_pos
   _Door1_Open
     _CCP1_SET_Duty
     _CCP_Compare_Mode_Set_Value
     _CCP_Init
       _CCP_Capture_Mode_Config
         _CCP_Mode_Timer_Select
       _CCP_Compare_Mode_Config
         _CCP_Mode_Timer_Select
       _CCP_Interrupt_Config
       _gpio_pin_intialize
         _gpio_pin_direction_intialize
         _gpio_pin_write_logic
     _timer1_timer_init
       _Timer1_Init
         _Timer1_Mode_Select
   _Door2_Open
     _CCP2_SET_Duty
     _CCP_Compare_Mode_Set_Value
     _CCP_Init
     _timer3_timer_init
       _Timer3_Init
         _Timer3_Mode_Select
   _EEPROM_24C02C_Write_Byte
     _MSSP_I2C_Master_Send_Start
     _MSSP_I2C_Master_Send_Stop
     _MSSP_I2C_Master_Write_Blocking
   _Print_RealTimeClockDS1307
     _lcd_8bit_send_string_pos
   _RealTimeClockDS1307_Get_Date_Time
     _Read_RealTimeClockDS1307
       _MSSP_I2C_Master_Read_Blocking
       _MSSP_I2C_Master_Send_Repeated_Start
       _MSSP_I2C_Master_Send_Start
       _MSSP_I2C_Master_Send_Stop
       _MSSP_I2C_Master_Write_Blocking
   _application_intialize
     _ecu_layer_intialize
       _EUSART_ASYNC_Init
         _EUSART_ASYNC_RX_Init
         _EUSART_ASYNC_TX_Init
         _EUSART_Baud_Rate_Calculation
           ___fladd
             ___fldiv (ARG)
               ___xxtofl (ARG)
             ___xxtofl (ARG)
           ___fldiv
           ___fltol
             ___fladd (ARG)
             ___fldiv (ARG)
             ___xxtofl (ARG)
           ___xxtofl
       _I2C_Obj_CFG
       _MSSP_I2C_Init
         _MSSP_I2C_MODE_GPIO_CFG
         _MSSP_I2C_Master_Mode_Clock_CFG
           ___fladd
           ___fldiv
           ___fltol
           ___xxtofl
       _keypad_initialize
         _gpio_pin_direction_intialize
         _gpio_pin_intialize
       _lcd_8bit_initialize
         _gpio_pin_intialize
         _lcd_8bit_send_command
       _led_initialize
         _gpio_pin_intialize
       _relay_initialize
         _gpio_pin_intialize
       _usart_model_init
   _keypad_get_value
   _lcd_8bit_send_command
   _lcd_8bit_send_string_pos
   _led_turn_on
     _gpio_pin_write_logic
   _relay_turn_on
     _gpio_pin_write_logic

 _InterruptManagerHigh (ROOT)
   _ADC_ISR
   _CCP1_ISR
     NULL(Fake) *
     _CCP1_DefaultInterruptHandler *
       _Timer3_Write_value
       i2_CCP_Compare_Mode_Set_Value
   _CCP2_ISR
     NULL(Fake) *
     _CCP2_DefaultInterruptHandler *
       _Timer3_Write_value
       i2_CCP_Compare_Mode_Set_Value
   _EUSART_Rx_ISR
   _EUSART_Tx_ISR
   _INT0_ISR
   _INT1_ISR
   _INT2_ISR
   _MSSP_I2C_BC_ISR
   _MSSP_I2C_ISR
   _RB4_ISR
   _RB5_ISR
   _RB6_ISR
   _RB7_ISR
   _TMR0_ISR
   _TMR1_ISR
   _TMR2_ISR
   _TMR3_ISR

 Address spaces:
Name               Size   Autos  Total    Cost      Usage
BIGRAM             F7F      0       0      48        0.0%
EEDATA             400      0       0       0        0.0%
BITBANK14          100      0       0      32        0.0%
BANK14             100      0       0      33        0.0%
BITBANK13          100      0       0      30        0.0%
BANK13             100      0       0      31        0.0%
BITBANK12          100      0       0      28        0.0%
BANK12             100      0       0      29        0.0%
BITBANK11          100      0       0      26        0.0%
BANK11             100      0       0      27        0.0%
BITBANK10          100      0       0      24        0.0%
BANK10             100      0       0      25        0.0%
BITBANK9           100      0       0      22        0.0%
BANK9              100      0       0      23        0.0%
BITBANK8           100      0       0      20        0.0%
BANK8              100      0       0      21        0.0%
BITBANK7           100      0       0      18        0.0%
BANK7              100      0       0      19        0.0%
BITBANK6           100      0       0      16        0.0%
BANK6              100      0       0      17        0.0%
BITBANK5           100      0       0      14        0.0%
BANK5              100      0       0      15        0.0%
BITBANK4           100      0       0      12        0.0%
BANK4              100      0       0      13        0.0%
BITBANK3           100      0       0      10        0.0%
BANK3              100      0       0      11        0.0%
BITBANK2           100      0       0       8        0.0%
BANK2              100      0       0       9        0.0%
BITBANK1           100      0       0       6        0.0%
BANK1              100      C      6D       7       42.6%
BITBANK15           80      0       0      34        0.0%
BANK15              80      0       0      35        0.0%
BITBANK0            80      0       0       4        0.0%
BANK0               80      0      7F       5       99.2%
BITCOMRAM           7E      0       0       0        0.0%
COMRAM              7E     53      73       1       91.3%
BITBIGSFRhhlhhh     18      0       0      37        0.0%
BITBIGSFRhhh         D      0       0      36        0.0%
BITBIGSFRlllhh       6      0       0      44        0.0%
BITBIGSFRhhlhhh      5      0       0      38        0.0%
BITBIGSFRllhhhh      4      0       0      41        0.0%
BITBIGSFRllllh       4      0       0      45        0.0%
BITBIGSFRllhhll      4      0       0      42        0.0%
BITBIGSFRlllll       4      0       0      46        0.0%
BITBIGSFRllhhhh      1      0       0      40        0.0%
BITBIGSFRhhlhhh      1      0       0      39        0.0%
BITBIGSFRllhl        1      0       0      43        0.0%
BIGSFR               0      0       0     200        0.0%
BITSFR               0      0       0     200        0.0%
SFR                  0      0       0     200        0.0%
STACK                0      0       0       2        0.0%
NULL                 0      0       0       0        0.0%
ABS                  0      0     15F      47        0.0%
DATA                 0      0     15F       3        0.0%
CODE                 0      0       0       0        0.0%


Microchip Technology PIC18 Macro Assembler V2.41 build 20230208172133 
Symbol Table                                                                                   Sun Feb 04 18:30:28 2024

                    ??_EEPROM_24C02C_Write_Byte 0013                                    ___fldiv@aexp 0032  
                                  ___fldiv@bexp 0031                                               _i 0059  
                                  ___fldiv@sign 002A                    EEPROM_24C02C_Write_Byte@Data 0012  
                                   _SSPSTATbits 0FC7                                ??_Check_Password 0030  
                                           l120 1F54                                             l205 37F8  
                                           l134 2EC4                                             l302 32BE  
                                           l127 2E34                                             l215 2DA4  
                                           l159 2A74                                             l431 3ADA  
                            _Timer3_Mode_Select 30D4                                             l352 3704  
                                           l282 22AA                                             l362 334E  
                                           l434 378A                                             l451 3948  
                                           l355 25A0                                             l291 33C2  
                                           l460 3976                                             l268 2FD2  
                                           l349 276C                                             l373 3246  
                                           l454 39D2                                             l366 33AA  
                                           l295 341E                                             l471 36B4  
                                           l704 3572                                             l457 3A00  
                                           l369 31E6                                             l474 39A4  
                                           l298 325E                                             l707 3572  
                                           l477 391A                                             l822 1E28  
                                           l910 1A76                                             l727 1CEC  
                                           l663 290E                                             l911 1BAA  
                                           l841 2078                                             l690 3436  
                                           l691 348E                                             l940 3852  
                                           l916 1AF8                                             l749 1A5E  
                                           l925 1BA4                                             l862 364A  
                                           l950 3884                                             l695 3490  
                                           l943 385C                                             l951 388C  
                                           l848 2B24                                             l936 3842  
                                           l928 1BAC                                             l937 385A  
                                           l961 382A                                             l698 37C4  
                                           l938 3844                                             l954 3810  
                                           l970 35AE                                             l946 3874  
                                           l955 3828                                             l947 388A  
                                           l956 3812                                             l964 359C  
                                           l980 32EA                                             l948 3876  
                                           l973 35DE                                             l958 3820  
                                           l990 3B22                                             l968 35A0  
                                           l976 32E8                                             l993 2D0A  
                                           l987 3336                                             l979 3334  
                          keypad_initialize@ret 001D                          ??_InterruptManagerHigh 0008  
                     _RB5_InterruptHandler_HIGH 00A6                                 __end_of_ADC_ISR 3B38  
                                           _ret 006F      MSSP_I2C_Master_Send_Repeated_Start@i2c_obj 000C  
                           led_initialize@F3048 0064                                             prod 0FF3  
                     ?_lcd_8bit_send_string_pos 0027                           relay_initialize@F3042 005F  
                                           tosl 0FFD                                             wreg 0FE8  
                   __end_of_lcd_8bit_set_cursor 2DA6                                    ?_led_turn_on 0015  
               ??_MSSP_I2C_Master_Read_Blocking 0011                             ?_Timer3_Mode_Select 000C  
                               __end_of_RB4_ISR 3AB4                                 __end_of_RB5_ISR 3A9A  
                               __end_of_RB6_ISR 3A80                                 __end_of_RB7_ISR 3A66  
                                  ___fltol@exp1 004C                                            l2400 0C86  
                                          l1443 2BE0                                            l1540 2B3C  
                                          l1700 24AC                                            l1445 2C6C  
                                          l1542 2BC8                                            l2415 0DEC  
                                          l2407 0FA2                                            l2167 23B0  
                                          l2424 0EBC                                            l1616 374E  
                                          l2425 0EAA                                            l1570 3150  
                                          l2452 1742                                            l2532 1832  
                                          l1477 31CE                                            l2525 179A  
                                          l1478 31CE                                            l2454 15A2  
                                          l1670 0AE2                                            l1662 060A  
                                          l2463 15E8                                            l2528 18F6  
                                          l1664 06C2                                            l1569 3150  
                                          l2465 1660                                            l2457 1566  
                                          l1665 077A                                            l2466 164E  
                                          l1666 0832                                            l1827 268A  
                                          l2539 188E                                            l1667 08EA  
                                          l1819 3B1C                                            l1836 219A  
                                          l1668 09A0                                            l1685 2840  
                                          l1694 248C                                            l2398 0CD2  
                                          l1855 29C2                                            l1679 2820  
                                          l2399 0CC0                                            l1792 038A  
                                          l9610 2DC4                                            l9620 2E12  
                                          l9612 2DD4                                            l9604 2DA6  
                                          l9700 0C14                                            l9550 1F68  
                                          l9622 2E14                                            l9606 2DAA  
                                          l9710 0C28                                            l9702 0C18  
                                          l9630 0AE4                                            l9560 204C  
                                          l9552 1F8A                                            l9624 2E24  
                                          l9608 2DBC                                            l9800 0ECC  
                                          l9720 0CA0                                            l9712 0C52  
                                          l9704 0C1C                                            l9640 0B20  
                                          l9632 0AF0                                            l9554 1F8E  
                                          l9562 2076                                            l9546 1F56  
                                          l9570 37C6                                            l9618 2DD8  
                                          l9626 2E32                                            l9810 0F32  
                                          l9802 0ED8                                            l9730 0CE0  
                                          l9722 0CA4                                            l9714 0C6E  
                                          l9706 0C20                                            l9650 0B50  
                                          l9642 0B30                                            l9634 0AFE  
                                          l9556 1FEA                                            l9548 1F56  
                                          l9572 37C6                                            l9580 1CEE  
                                          l9820 0F7A                                            l9812 0F42  
                                          l9804 0EE6                                            l9740 0D22  
                                          l9732 0CF0                                            l9724 0CB2  
                                          l9716 0C7E                                            l9708 0C24  
                                          l9660 0B7A                                            l9652 0B62  
                                          l9644 0B32                                            l9636 0B00  
                                          l9900 1532                                            l9574 37DA  
                                          l9590 1D88                                            l9582 1CEE  
                                          l9822 0F7C                                            l9814 0F62  
                                          l9806 0F20                                            l9750 0D50  
                                          l9742 0D30                                            l9726 0CB4  
                                          l9718 0C94                                            l9662 0B8A  
                                          l9670 0BB4                                            l9654 0B64  
                                          l9638 0B10                                            l9646 0B3A  
                                          l9910 158E                                            l9902 1542  
                                          l9576 37E0                                            l9584 1D00  
                                          l9824 0F82                                            l9816 0F66  
                                          l9808 0F22                                            l9760 0DBC  
                                          l9752 0D5A                                            l9744 0D3C  
                                          l9736 0D04                                            l9728 0CBE  
                                          l9680 0BEC                                            l9672 0BC4  
                                          l9664 0B9A                                            l9656 0B6A  
                                          l9648 0B4A                                            l9920 15CE  
                                          l9912 1590                                            l9904 1556  
                                          l9840 13D6                                            l9832 13AA  
                                          l9594 1DE4                                            l9586 1D22  
                                          l9826 0F90                                            l9818 0F74  
                                          l9762 0DCC                                            l9746 0D40  
                                          l9738 0D14                                            l9754 0D60  
                                          l9690 0C00                                            l9682 0BF0  
                                          l9674 0BD6                                            l9666 0BAA  
                                          l9658 0B78                                            l9930 160A  
                                          l9922 15D8                                            l9914 15A0  
                                          l9906 1564                                            l9850 1410  
                                          l9842 13E6                                            l9834 13B6  
                                          l9588 1D26                                            l9596 1E26  
                                          l9828 0F92                                            l9780 0E4E  
                                          l9772 0E26                                            l9756 0D86  
                                          l9764 0DDC                                            l9748 0D4E  
                                          l9692 0C04                                            l9684 0BF4  
                                          l9676 0BE4                                            l9668 0BAC  
                                          l9940 167C                                            l9932 1618  
                                          l9924 15E6                                            l9916 15B2  
                                          l9908 1570                                            l9860 143C  
                                          l9852 1416                                            l9844 13F6  
                                          l9836 13C4                                            l9782 0E56  
                                          l9774 0E30                                            l9766 0E02  
                                          l9758 0DBA                                            l9790 0E7A  
                                          l9694 0C08                                            l9686 0BF8  
                                          l9678 0BE8                                            l9950 16E8  
                                          l9942 168A                                            l9934 1646  
                                          l9918 15C8                                            l9926 15F8  
                                          l9870 1476                                            l9862 144C  
                                          l9854 141C                                            l9846 13F8  
                                          l9838 13C6                                            STR_1 FFFB  
                                          l9792 0E7E                                            l9784 0E5A  
                                          l9776 0E3E                                            l9768 0E12  
                                          l9696 0C0C                                            l9688 0BFC  
                                          l9960 1736                                            l9952 1702  
                                          l9944 16B4                                            l9928 1606  
                                          l9872 148C                                            l9864 145C  
                                          l9856 142A                                            l9848 1400  
                                          l9794 0E8C                                            l9786 0E6A  
                                          l9778 0E40                                            l9698 0C10  
                                          l9962 1738                                            l9954 171E  
                                          l9938 1670                                            l9946 16B8  
                                          l9890 14E0                                            l9874 149C  
                                          l9882 14BC                                            l9866 145E  
                                          l9858 142C                                            l9970 22AC  
                                          STR_4 FFF3                                            STR_5 FFEB  
                                          l9796 0EA2                                            l9788 0E6C  
                                          l9956 1722                                            l9948 16D2  
                                          l9892 14FA                                            l9884 14CC  
                                          l9876 14A4                                            l9868 1466  
                                          l9980 2302                                            l9972 22C2  
                                          STR_6 FEEB                                            STR_7 FFE3  
                                          l9958 1730                                            l9894 150A  
                                          l9886 14CC                                            l9878 14A8  
                                          l9982 2312                                            STR_8 FFAE  
                                          STR_9 FFBA                                            l9896 151A  
                                          l9992 233C                                            l9984 2316  
                                          l9976 22D6                                            l9898 152A  
                                          l9994 2346                                            l9986 2324  
                                          l9978 2300                                            l9996 2350  
                                          _LATA 0F89                                            _LATB 0F8A  
                                          _LATC 0F8B                                            _LATD 0F8C  
                                          _LATE 0F8D                                            u8200 1F8A  
                                          u9000 2390                                            u8201 1F86  
                                          u9001 238C                                            u9010 1756  
                                          u9011 1752                                            u9100 18E4  
                                          u9020 1764                                            u9101 18E0  
                                          u9021 1760                                            u8214 1FAE  
                                          u8310 2E24                                            u8230 1D00  
                                          u9110 35F2                                            u9030 17C0  
                                          u8215 1FAA                                            u8311 2E20  
                                          u8231 1CFC                                            u9111 35EE  
                                          u9031 17BC                                            u8224 200A  
                                          u8304 2E02                                            u9200 3522  
                                          u8240 1D22                                            u9120 3614  
                                          u8400 0BE4                                            u8320 0AFE  
                                          u9040 1816                                            u8225 2006  
                                          u8305 2DFE                                            u9201 351E  
                                          u8241 1D1E                                            u9121 3610  
                                          u8401 0BE0                                            u8321 0AFA  
                                          u9041 1812                                            u9130 2A88  
                                          u9210 3546                                            u8410 0C52  
                                          u8330 0B10                                            u9050 1860  
                                          u9131 2A84                                            u9211 3542  
                                          u8411 0C4E                                            u8331 0B0C  
                                          u9051 185C                                            u9140 2A9A  
                                          u9220 356A                                            u9300 314A  
                                          u8500 0D30                                            u8420 0C6A  
                                          u8340 0B20                                            u9060 187E  
                                          u9141 2A96                                            u9221 3566  
                                          u9301 3146                                            u8501 0D2C  
                                          u8421 0C64                                            u8341 0B1C  
                                          u9061 187A                                            u9150 2ABC  
                                          u8190 1F68                                            u8270 1DFC  
                                          u8254 1D46                                            u9230 316C  
                                          u9310 2788                                            u8510 0D4E  
                                          u8430 0C6C                                            u8350 0B62  
                                          u9070 188E                                            u9151 2AB8  
                                          u8191 1F64                                            u8271 1DF6  
                                          u8255 1D42                                            u9231 3168  
                                          u9311 2784                                            u8511 0D4A  
                                          u8351 0B5E                                            u9071 188A  
                                          u8280 1DFE                                            u8264 1DA8  
                                          u9240 318C                                            u9400 2466  
                                          u9320 27B8                                            u8600 0E8C  
                                          u8520 0D86                                            u8440 0C94  
                                          u8360 0B78                                            u9080 189C  
                                          u8265 1DA4                                            u9241 3188  
                                          u9401 2462                                            u9321 27B4  
                                          u8601 0E88                                            u8521 0D82  
                                          u8441 0C90                                            u8361 0B74  
                                          u9081 1898                                            u9170 2E4C  
                                          u8290 2DBC                                            u9250 31A8  
                                          u9410 2486                                            u9330 27DE  
                                          u8610 0EA2                                            u8530 0DCC  
                                          u8450 0CB2                                            u8370 0B8A  
                                          u9090 18D6                                            u9171 2E48  
                                          u8291 2DB8                                            u9251 31A4  
                                          u9411 2482                                            u9331 27DA  
                                          u8611 0E9E                                            u8531 0DC8  
                                          u8451 0CAE                                            u8371 0B86  
                                          u9091 18D2                                            u9164 2B0E  
                                          u9260 31C8                                            u9420 24AA  
                                          u9340 27FA                                            u8700 0F90  
                                          u8620 0EB8                                            u8540 0E02  
                                          u8460 0CD2                                            u8380 0B9A  
                                          u9500 2F6E                                            u9165 2B0A  
                                          u9261 31C4                                            u9421 24A6  
                                          u9341 27F6                                            u8701 0F8C  
                                          u8621 0EB4                                            u8541 0DFE  
                                          u8461 0CCE                                            u8381 0B96  
                                          u9501 2F6A                                            u9190 2EB4  
                                          u9270 30EE                                            u9350 281A  
                                          u8630 0ECC                                            u8550 0E12  
                                          u8470 0CE0                                            u8390 0BD6  
                                          u8710 13C4                                            u9510 2F9C  
                                          u9430 1E40                                            u9191 2EB0  
                                          u9271 30EA                                            u9351 2816  
                                          u8631 0EC8                                            u8551 0E0E  
                                          u8471 0CDC                                            u8391 0BD2  
                                          u8711 13C0                                            u9511 2F98  
                                          u9431 1E3C                                            u9184 2E92  
                                          u9280 310E                                            u9360 283E  
                                          u8640 0EE6                                            u8560 0E3E  
                                          u8480 0CF0                                            u8800 1564  
                                          u8720 13D6                                            u9520 2FD0  
                                          u9440 1E9A                                            u9185 2E8E  
                                          u9281 310A                                            u9361 283A  
                                          u8641 0EE2                                            u8561 0E3A  
                                          u8481 0CEC                                            u8801 1560  
                                          u8721 13D2                                            u9521 2FCC  
                                          u9441 1E96                                            u9530 21BE  
                                          u9450 29D6                                            u9290 312A  
                                          u9610 383E                                            u9370 23CC  
                                          u8650 0F20                                            u8570 0E4E  
                                          u8490 0D22                                            u8810 158E  
                                          u8730 13E6                                            u9531 21BA  
                                          u9451 29D2                                            u9291 3126  
                                          u9611 383A                                            u9371 23C8  
                                          u8651 0F1C                                            u8571 0E4A  
                                          u8491 0D1E                                            u8811 158A  
                                          u8731 13E2                                            u9540 21D0  
                                          u9460 29E8                                            u9620 3852  
                                          u9700 32E4                                            u9380 2424  
                                          u8660 0F32                                            u8580 0E6A  
                                          u8900 168A                                            u8820 15B2  
                                          u8740 142A                                            u9541 21CC  
                                          u9461 29E4                                            u9621 384E  
                                          u9701 32E0                                            u9381 2420  
                                          u8661 0F2E                                            u8581 0E66  
                                          u8901 1686                                            u8821 15AE  
                                          u8741 1426                                            u9605 340E  
                                          u9550 2206                                            u9470 2A34  
                                          u9630 3586                                            u9710 32F8  
                                          u9390 244A                                            u8670 0F42  
                                          u8590 0E7A                                            u8910 16D2  
                                          u8830 15C8                                            u8750 143C  
                                          u9551 2202                                            u9631 3582  
                                          u9711 32F4                                            u9391 2446  
                                          u8671 0F3E                                            u8591 0E76  
                                          u8911 16CE                                            u8831 15C4  
                                          u8751 1438                                            u9607 3410  
                                          u9560 2254                                            u9480 2A62  
                                          u9640 3598                                            u9720 3314  
                                          u8680 0F62                                            u8920 1702  
                                          u8840 15E6                                            u8760 144C  
                                          u9800 1A72                                            u9561 2250  
                                          u9641 3594                                            u9721 3310  
                                          u8681 0F5E                                            u8921 16FE  
                                          u8841 15E2                                            u8761 1448  
                                          u9801 1A6E                                            u9570 2296  
                                          u9490 2A72                                            u9650 35AE  
                                          u9730 332C                                            u8690 0F74  
                                          u8930 1730                                            u8850 1606  
                                          u8770 148C                                            u9810 1A92  
                                          u9571 2292                                            u9491 2A6E  
                                          u9651 35AA                                            u9731 3328  
                                          u8691 0F70                                            u8931 172C  
                                          u8851 1602                                            u8771 1488  
                                          u9811 1A8E                                            u9580 22A8  
                                          u9900 1BCA                                            u9740 380C  
                                          u9660 35BE                                            u8860 1618  
                                          u8780 14CC                                            u8940 22C2  
                                          u9820 1ABC                                            u9581 22A4  
                                          u9477 2A2A                                            u9901 1BC6  
                                          u9741 3808                                            u9661 35BA  
                                          u8861 1614                                            u8781 14C8  
                                          u8941 22BE                                            u9821 1AB8  
                                          u9910 1C64                                            u9750 3820  
                                          u9670 3870                                            u8870 1646  
                                          u8790 1542                                            u8950 22F6  
                                          u9830 1AD6                                            u9590 33BE  
                                          u9487 2A58                                            u9911 1C60  
                                          u9751 381C                                            u9671 386C  
                                          u8871 1642                                            u8791 153E  
                                          u9831 1AD2                                            u9591 33BA  
                                          u9920 1914                                            u9680 3884  
                                          u8880 165C                                            u8960 2324  
                                          u9840 1AF6                                            u9760 334A  
                                          u9921 1910                                            u9681 3880  
                                          u8881 1658                                            u8961 2320  
                                          u9841 1AF2                                            u9761 3346  
                                          u9930 19C2                                            u9690 32D2  
                                          u8890 1670                                            u8970 2338  
                                          u9850 1B46                                            u9931 19BE  
                                          u9691 32CE                                            u8891 166C  
                                          u8971 2334                                            u8955 22EC  
                                          u9851 1B42                                            u9780 2B38  
                                          u8980 2360                                            u9860 1B66  
                                          u9781 2B34                                            u8981 235C  
                                          u9861 1B62                                            u9950 3432  
                                          u9790 2BDC                                            u8990 2380  
                                          u9870 1B82                                            u9951 342E  
                                          u9791 2BD8                                            u8991 237C  
                                          u9871 1B7E                                            u9775 339A  
                                          u9960 345A                                            u9880 1BA2  
                                          u9961 3456                                            u9881 1B9E  
                                          u9777 339C                                            u9970 3482  
                                          u9890 3718                                            _TMR2 0FCC  
                                          u9971 347E                                            u9891 3714  
                                          u9980 2854                                            u9981 2850  
                                          u9990 2874                                            u9991 2870  
                       ??_application_intialize 0054                        _RB4_InterruptHandler_LOW 00A8  
                     ??_CCP_Capture_Mode_Config 0011                                            _led1 0071  
                                          _led2 0070                  gpio_pin_read_logic@_pin_config 000C  
                                          _main 0012                                __end_of_CCP1_ISR 38EE  
                              __end_of_CCP2_ISR 38BE                        _RB7_InterruptHandler_LOW 009C  
                                          fsr0h 0FEA                                            indf0 0FEF  
                                          fsr2h 0FDA                                            fsr0l 0FE9  
                                          indf2 0FDF                                            fsr1l 0FE1  
                                          fsr2l 0FD9                                            btemp 0074  
                        __end_of_led_initialize 3420                                            prodl 0FF3  
                                          start 000E                 __end_of_CCP_Compare_Mode_Config 1A60  
                               ___fldiv@new_exp 002B                   __end_of_lcd_8bit_send_command 2E36  
                              __end_of_CCP_Init 2910                                    ___param_bank 0000  
                          ??_Timer3_Mode_Select 000E                      ?_Print_RealTimeClockDS1307 0001  
                          _gpio_pin_write_logic 1F56                                __end_of_INT0_ISR 3B30  
                              __end_of_INT1_ISR 3B2C                                __end_of_INT2_ISR 3B28  
  _RealTimeClockDS1307@RealTimeClockDS1307$F644 0080            __end_of_CCP2_DefaultInterruptHandler 3054  
                  _CCP2_DefaultInterruptHandler 2FD4                                           l10010 23A0  
                                         l10002 2364                                           l10004 2370  
                                         l10020 17AA                                           l10110 2EB4  
                                         l10006 2380                                           l10030 17E8  
                                         l10022 17C0                                           l10014 1746  
                                         l10104 2E68                                           l10112 2EC2  
                                         l10120 2D12                                           l10008 2390  
                                         l10040 1870                                           l10032 181A  
                                         l10016 1756                                           l10200 088E  
                                         l10106 2EA2                                           l10122 2D28  
                                         l11010 25B8                                           l11002 290C  
                                         l10050 18C6                                           l10042 187E  
                                         l10034 181C                                           l10026 17D4  
                                         l10018 1764                                           l10202 08EE  
                                         l10210 0A56                                           l10108 2EA4  
                                         l10124 2D3E                                           l10116 2D0C  
                                         l11020 2638                                           l11012 25D0  
                                         l10140 3546                                           l10060 35E0  
                                         l11100 24C4                                           l10220 276E  
                                         l10052 18D6                                           l10044 189C  
                                         l10036 1828                                           l10028 17DC  
                                         l10204 0944                                           l10212 0AAC  
                                         l10300 1F00                                           l10126 2D54  
                                         l10118 2D0C                                           l11022 264E  
                                         l11014 25F2                                           l11030 2676  
                                         l11006 25A2                                           l10142 354E  
                                         l10134 3504                                           l10070 3648  
                                         l10062 35E0                                           l11110 24F4  
                                         l11102 24CC                                           l10230 27DE  
                                         l10222 2788                                           l10054 18E4  
                                         l10046 189E                                           l10038 1864  
                                         l10206 09A4                                           l10150 3B1E  
                                         l10302 1F10                                           l10310 1F52  
                                         l10080 2A9A                                           l10128 2D6A  
                                         l10320 29E8                                           l11032 2688  
                                         l11024 266C                                           l11016 2608  
                                         l11008 25A6                                           l10144 356A  
                                         l10136 3522                                           l12000 1978  
                                         l10064 35F2                                           l10160 318E  
                                         l10152 3152                                           l11200 2912  
                                         l11120 2524                                           l11112 24FC  
                                         l11104 24D4                                           l10232 27E0  
                                         l10224 278A                                           l10240 2824  
                                         l10056 18E6                                           l10048 18A2  
                                         l10208 09FA                                           l10304 1F20  
                                         l10082 2ABC                                           l10074 2A76  
                                         l12010 2060                                           l10410 2286  
                                         l10402 221E                                           l10090 2E36  
                                         l10330 2A72                                           l10322 29F0  
                                         l10314 29C4                                           l11026 2670  
                                         l11018 2618                                           l10138 352A  
                                         l12002 1A22                                           l10066 3614  
                                         l10162 31A8                                           l10154 316C  
                                         l10170 30EE                                           l11210 2970  
                                         l11202 2920                                           l11122 2528  
                                         l11114 2510                                           l11106 24E8  
                                         l10250 2424                                           l10242 283E  
                                         l10234 27FA                                           l10226 27B8  
                                         l10146 2C6E                                           l10306 1F30  
                                         l11130 31D0                                           l10084 2AC0  
                                         l10076 2A76                                           l10412 2296  
                                         l10404 2244                                           l10092 2E3A  
                                         l10324 2A0A                                           l10316 29C4  
                                         l11028 2672                                           l11220 207A  
                                         l12004 1C22                                           l10068 361C  
                                         l10164 31AE                                           l10156 3172  
                                         l10180 3130                                           l10172 30F4  
                                         l10500 37FA                                           l11212 297E  
                                         l11204 292E                                           l11124 2546  
                                         l11116 2514                                           l11108 24EC  
                                         l10260 246C                                           l10252 2430  
                                         l10244 23B2                                           l10236 2800  
                                         l10228 27C4                                           l10148 2C88  
                                         l10340 2F76                                           l10308 1F40  
                                         l10420 33AC                                           l11140 3222  
                                         l11132 31D0                                           l10086 2B22  
                                         l10078 2A88                                           l10414 2298  
                                         l10406 2254                                           l10094 2E4C  
                                         l10326 2A3C                                           l10318 29D6  
                                         l11230 20DC                                           l11222 2084  
                                         l12006 1CB8                                           l10166 31C8  
                                         l10158 318C                                           l11150 397C  
                                         l10182 314A                                           l10174 310E  
                                         l10502 37FA                                           l11214 2998  
                                         l11206 2948                                           l11126 2564  
                                         l11118 251C                                           l10262 2486  
                                         l10254 244A                                           l10246 23CC  
                                         l10238 281A                                           l10190 06C8  
                                         l10350 2F8C                                           l10334 2F54  
                                         l10270 1E2E                                           l10430 33FE  
                                         l10422 33AC                                           l11142 3234  
                                         l11134 31E2                                           l10408 2284  
                                         l10416 22A8                                           l10096 2E54  
                                         l12008 2D7E                                           l10328 2A40  
                                         l11232 20FA                                           l11224 2094  
                                         l11240 2130                                           l10600 2BE2  
                                         l11152 3992                                           l10176 3110  
                                         l10168 30D4                                           l11160 3908  
                                         l10440 382C                                           l10504 380C  
                                         l11216 29A6                                           l11208 2956  
                                         l11128 2582                                           l10256 244C  
                                         l10248 23CE                                           l10264 2490  
                                         l10192 071E                                           l10184 05F4  
                                         l10360 2FBE                                           l10352 2F9C  
                                         l10336 2F5C                                           l10272 1E40  
                                         l10432 3410                                           l10424 33BE  
                                         l10520 3388                                           l10512 3338  
                                         l11080 3298                                           l11072 3248  
                                         l11136 31EA                                           l11144 3244  
                                         l10370 21AC                                           l10098 2E64  
                                         l11242 2140                                           l11234 2124  
                                         l11226 20A6                                           l11250 218A  
                                         l10610 2C4C                                           l10602 2BFE  
                                         l11154 39A0                                           l10178 312A  
                                         l11162 3916                                           l10442 383E  
                                         l10450 3574                                           l11218 29B4  
                                         l11090 36B6                                           l10266 24AA  
                                         l10258 2466                                           l10194 0780  
                                         l10186 0610                                           l10530 3AC8  
                                         l10362 2FC0                                           l10346 2F7A  
                                         l10338 2F6E                                           l10290 1EAA  
                                         l10282 1E6C                                           l10274 1E48  
                                         l10426 33C6                                           l10434 341C  
                                         l10522 338A                                           l10514 3338  
                                         l11082 329A                                           l11074 3248  
                                         l11138 3220                                           l10372 21BE  
                                         l11244 2144                                           l11236 2128  
                                         l11228 20BE                                           l10700 1BCE  
                                         l10620 2C64                                           l10612 2C4E  
                                         l10604 2C0A                                           l11148 3978  
                                         l11156 38EE                                           l10460 35CC  
                                         l10452 3574                                           l11092 36F2  
                                         l10196 07D6                                           l10188 0666  
                                         l10532 3AD0                                           l10348 2F8A  
                                         l10364 2FD0                                           l10292 1EBA  
                                         l10284 1E88                                           l10276 1E68  
                                         l10268 1E2A                                           l10428 33FC  
                                         l10524 339C                                           l10516 334A  
                                         l10540 375E                                           l11084 32AC  
                                         l11076 325A                                           l10390 21F4  
                                         l10382 21DC                                           l10374 21D0  
                                         l11246 2156                                           l10702 1BDA  
                                         l10710 1C02                                           l10614 2C50  
                                         l10606 2C28                                           l11158 38F2  
                                         l10438 382C                                           l10454 3586  
                                         l10470 385E                                           l10198 0838  
                                         l10534 3AD6                                           l10630 1A60  
                                         l10358 2FA0                                           l10294 1EDA  
                                         l10286 1E8A                                           l10518 3352  
                                         l10526 33A8                                           l10550 3768  
                                         l10542 3760                                           l11078 3262  
                                         l11086 32BC                                           l10392 21F6  
                                         l10376 21D8                                           l10368 219C  
                                         l11248 2174                                           l10720 1C80  
                                         l10704 1BE6                                           l10712 1C48  
                                         l10800 37AA                                           l10616 2C52  
                                         l10608 2C38                                           l10624 2C6A  
                                         l10560 2B26                                           l10464 35DC  
                                         l10456 3598                                           l11096 24AE  
                                         l10480 32C0                                           l10472 3870  
                                         l10536 3AD8                                           l10640 1ABC  
                                         l10632 1A72                                           l10296 1EE0  
                                         l10288 1E9A                                           l10552 376A  
                                         l10544 3762                                           l10394 2206  
                                         l10730 1CEA                                           l10722 1C8C  
                                         l10706 1BF2                                           l10802 37AC  
                                         l10618 2C54                                           l10570 2B66  
                                         l10562 2B26                                           l10458 35BE  
                                         l11098 24C0                                           l10490 3314  
                                         l10482 32D2                                           l10642 1AD6  
                                         l10650 1B28                                           l10634 1A78  
                                         l10298 1EF0                                           l10554 3772  
                                         l10546 3764                                           l10538 3750  
                                         l10396 221A                                           l10388 21E0  
                                         l10716 1C68                                           l10708 1BFE  
                                         l10804 37AE                                           l10580 2BAC  
                                         l10572 2B84                                           l10564 2B38  
                                         l10900 393A                                           l10492 331C  
                                         l10484 32E4                                           l10468 385E  
                                         l10660 1B68                                           l10652 1B2C  
                                         l10644 1ADC                                           l10636 1A92  
                                         l10628 1A60                                           l10556 377A  
                                         l10548 3766                                           l10718 1C74  
                                         l10726 1C98                                           l10750 1924  
                                         l10742 18F8                                           l10910 39BA  
                                         l10902 39A6                                           l10582 2BAE  
                                         l10574 2B94                                           l10566 2B3E  
                                         l10590 2BC6                                           l10494 332C  
                                         l10486 32F8                                           l10478 32C0  
                                         l10662 1B82                                           l10654 1B46  
                                         l10646 1AF6                                           l10638 1AA2  
                                         l10558 3782                                           l11198 3B18  
                                         l11710 0356                                           l11630 0066  
                                         l11622 0020                                           l11614 0012  
                                         l10920 39E2                                           l10728 1CDE  
                                         l10752 1930                                           l10760 1958  
                                         l10744 18F8                                           l10912 39C2  
                                         l10904 39B0                                           l10584 2BB0  
                                         l10576 2BA8                                           l10568 2B5A  
                                         l10488 3304                                           l10840 268E  
                                         l10680 3728                                           l10672 3706  
                                         l10664 1B88                                           l10656 1B4C  
                                         l10648 1AFE                                           l11720 03A0  
                                         l11712 0368                                           l11704 0332  
                                         l11640 00CE                                           l11632 0074  
                                         l11624 003C                                           l11616 0016  
                                         l10930 39FE                                           l10922 39E6  
                                         l10770 19DE                                           l10754 193C  
                                         l10762 19A6                                           l10594 2BCA  
                                         l10914 39C4                                           l10906 39B4  
                                         l10586 2BC0                                           l10578 2BAA  
                                         l10850 26E6                                           l10842 269C  
                                         l10682 372A                                           l10690 374C  
                                         l10674 3706                                           l10666 1BA2  
                                         l10658 1B66                                           l11730 0444  
                                         l11722 03A4                                           l11706 0344  
                                         l11650 010A                                           l11642 00E0  
                                         l11634 007C                                           l11626 0042  
                                         l10924 39EA                                           l10916 39D4  
                                         l10772 19EA                                           l10756 1948  
                                         l10780 1A50                                           l10748 1918  
                                         l10596 2BCA                                           l10908 39B6  
                                         l10940 3960                                           l10932 394A  
                                         l10860 274E                                           l10852 26EE  
                                         l10844 26AA                                           l10684 372C  
                                         l10676 3718                                           l11740 0480  
                                         l11732 0454                                           l11724 03BA  
                                         l11708 0348                                           l11660 0186  
                                         l11652 010E                                           l11644 00E4  
                                         l11636 009A                                           l11628 005E  
                                         l10926 39EE                                           l10918 39DA  
                                         l10870 3420                                           l10694 1BAE  
                                         l10782 1A5C                                           l10774 19F6  
                                         l10766 19C6                                           l10758 1954  
                                         l10598 2BDC                                           l10942 3964  
                                         l10934 3950                                           l10862 275C  
                                         l10854 2704                                           l10846 26C4  
                                         l10686 3746                                           l10678 371C  
                                         l10950 364C                                           l11750 04B8  
                                         l11734 0466                                           l11726 0414  
                                         l11670 0222                                           l11718 038E  
                                         l11662 019C                                           l11654 012C  
                                         l11646 00F6                                           l11638 00B8  
                                         l10928 39F6                                           l10880 3466  
                                         l10872 3420                                           l10696 1BAE  
                                         l10768 19D2                                           l10944 396C  
                                         l10936 3958                                           l10864 276A  
                                         l10856 271E                                           l10848 26CC  
                                         l10960 3678                                           l10952 3650  
                                         l11752 04C6                                           l11760 04FA  
                                         l11736 046A                                           l11728 042E  
                                         l11680 0278                                           l11672 023C  
                                         l11664 01AE                                           l11656 014A  
                                         l11648 00FA                                           l10882 3482  
                                         l10874 3432                                           l10778 1A02  
                                         l10794 378C                                           l10970 2842  
                                         l10946 3974                                           l10938 395C  
                                         l10890 3926                                           l10858 2746  
                                         l10962 3684                                           l10954 365C  
                                         l11762 050C                                           l11754 04D8  
                                         l11738 046E                                           l11746 04A2  
                                         l11682 027C                                           l11690 02DA  
                                         l11674 0252                                           l11666 01B2  
                                         l11658 0168                                           l10876 343E  
                                         l10868 3420                                           l10796 3794  
                                         l10980 287C                                           l10972 2842  
                                         l10892 392A                                           l10964 3690  
                                         l10956 3660                                           l10948 364C  
                                         l11780 057E                                           l11764 0510  
                                         l11748 04B4                                           l11692 02EC  
                                         l11684 028E                                           l11676 0262  
                                         l11668 01C8                                           l10878 345A  
                                         l10798 37A8                                           l10990 28DC  
                                         l10982 2898                                           l10974 2854  
                                         l10894 392C                                           l10966 369C  
                                         l10958 366C                                           l11782 0590  
                                         l11790 05DA                                           l11766 051E  
                                         l11774 0552                                           l11694 02F0  
                                         l11686 02AC                                           l11678 0274  
                                         l10992 28EC                                           l10984 289C  
                                         l10976 2858                                           l10896 3930  
                                         l10888 391C                                           l10968 36A8  
                                         l11784 0594                                           l11776 0564  
                                         l11768 0530                                           l11696 02FE  
                                         l11688 02C4                                      _Door1_Open 3978  
                                         l10986 28B4                                           l10978 2874  
                                         l10898 3938                                           l11786 05A6  
                                         l11778 0568                                           l11698 0310  
                                         l10996 28EC                                           l10988 28C4  
                                         l11788 05C4                                           l10998 28FC  
                                         l11996 0A76                                           l11998 1E10  
                                    _Door2_Open 38EE                                   ___fltol@sign1 004B  
                               __end_of___fladd 0FA4                                           ?_main 0001  
                               __end_of___fldiv 1744                                           _EEADR 0FA9  
                                         STR_10 FF11                                           STR_11 FFDA  
                                         STR_20 FF95                                           STR_12 FF86  
                                         STR_13 FF77                                           STR_21 FF68  
                                         STR_14 FF95                                           STR_22 FED7  
                                         STR_15 FF59                                           STR_23 FF36  
                                         STR_24 FFD0                                           STR_16 FEC3  
                                         STR_25 FFA2                                           STR_17 FF24  
                                         STR_26 FFE9                                           STR_18 FF86  
                                         STR_19 FF77                                           STR_27 FF48  
                                         STR_28 FFC6                                           STR_29 FEFE  
                               __end_of___fltol 23B2                                           u10000 2898  
                                         u10001 2894                                           u10010 28B4  
                                         u10011 28B0                                           u10020 28DC  
                                         u10021 28D8                                           u10030 2618  
                                         u10031 2614                                           u10111 36FC  
                                         u10040 266C                                           u10120 31E2  
                                         u10041 2668                                           u10105 32AA  
                                         u10121 31DE                                           u10050 2688  
                                         u10051 2684                                           u10107 32AC  
                                         u10140 2094                                           u10141 2090  
                                         u10150 2140                                           u10151 213C  
                                         u10135 3232                                           u10160 219A  
                                         u10161 2196                                           u10137 3234  
                                         u10090 325A                                           u10091 3256  
                   ??_MSSP_I2C_Master_Send_Stop 000E                                           u10600 02EC  
                                         u10601 02E8                                           u10610 0344  
                                         u10611 0340                                           u10620 03A0  
                                         u10540 005E                                           u10621 039C  
                                         u10541 005A                                           u10630 0454  
                                         u10550 00E0                                           u10631 0450  
                                         u10551 00DC                                           u10640 0466  
                                         u10560 010A                                           u10641 0462  
                                         u10561 0106                                           u10650 04B4  
                                         u10570 01AE                                           u10651 04B0  
                                         u10571 01AA                                           u10707 0060  
                                         u10660 050C                                           u10580 0262  
                                         u10661 0508                                           u10581 025E  
                                         u10717 0076                                           u10670 0564  
                                         u10590 0274                                           u10807 26C6  
                                         u10671 0560                                           u10591 0270  
                                         u10727 022E                                           u10817 26E8  
                                         u10681 0588                                           u10737 02B8  
                                         u10690 05EC                                           u10907 29BA  
                                         u10827 26FE                                           u10691 05E8  
                                         u10747 0420                                           u10917 20B0  
                                         u10837 2724                                           u10757 059C  
                                         u10927 2104                                           u10847 2748  
                                         u10767 1EA0                                           u10937 217E  
                                         u10857 2762                                           u10777 1EC0  
                                         u10947 25C2                                           u10867 2926  
                                         u10787 1EDC                                           u10957 2642  
                                         u10877 294E                                           u10797 26A2  
                                         u10887 2976                                           u10897 299E  
                                         i2l442 30D2                                           i2l603 3B36  
                                         i2l448 3052                                           i2l644 38BC  
                                         i2l649 38EC                                           i2l690 34A8  
                                         i2l691 3500                                           i2l695 3502  
                                         i2l999 3B38                                           _RCREG 0FAE  
                           relay_turn_off@F3052 005D                                           _TMR0H 0FD7  
                                         _TMR1H 0FCF                                           _TMR0L 0FD6  
                                         _TMR1L 0FCE                                           _TMR3H 0FB3  
                                         _TMR3L 0FB2                                           _SPBRG 0FAF  
                                         _PORTA 0F80                                           _PORTB 0F81  
                                         _PORTC 0F82                                           _PORTD 0F83  
                                         _PORTE 0F84                                   _EUSART_Rx_ISR 3B3C  
                                         _TRISA 0F92                                           _TRISB 0F93  
                                         _TRISC 0F94                                           _TRISD 0F95  
                                         _TRISE 0F96                                   _EUSART_Tx_ISR 3B30  
                                         _TXREG 0FAD                        __end_of_keypad_get_value 22AC  
                              __end_of_TMR0_ISR 3B06                                __end_of_TMR1_ISR 3AF8  
                              __end_of_TMR2_ISR 3B18                                __end_of_TMR3_ISR 3AEA  
                        relay_initialize@_relay 0019                                           _check 0058  
                                         _lcd_1 014E                                           _lcd_2 00F5  
                      ?_lcd_8bit_send_char_data 0018                             relay_turn_on@_relay 0015  
                                         main@j 016B                                           pclath 0FFA  
                                         pclatu 0FFB                                           tablat 0FF5  
               CCP_Capture_Mode_Config@_ccp_obj 000F                                           plusw0 0FEB  
                                         plusw2 0FDB              CCP_Compare_Mode_Set_Value@_ccp_obj 000C  
          i2CCP_Compare_Mode_Set_Value@_ccp_obj 0001                                           ttemp5 0075  
                                         ttemp6 0078                                           ttemp7 007C  
                                         status 0FD8                                   _Read_Password 25A2  
                                         wtemp8 0075                __end_of_Read_RealTimeClockDS1307 276E  
          MSSP_I2C_Master_Read_Blocking@i2c_obj 000C                                 ?_led_initialize 0019  
               _check4@RealTimeClockDS1307$F654 0060                                 __initialization 2EC6  
                           keypad_get_value@ret 001B          MSSP_I2C_Master_Write_Blocking@i2c_data 000E  
                         __end_of_relay_turn_on 3248                                    __end_of_main 05F4  
                      ??_MSSP_I2C_MODE_GPIO_CFG 000C                           ?_gpio_pin_write_logic 000C  
             __end_of_Print_RealTimeClockDS1307 25A2                                       ??_ADC_ISR 0001  
                        lcd_8bit_set_cursor@lcd 0021                          lcd_8bit_set_cursor@row 0023  
                         _CCP_Mode_Timer_Select 3504                        gpio_pin_read_logic@logic 000E  
                                 _lat_registers 00EB             lcd_8bit_send_command@l_pins_counter 0020  
                                        ??_main 0169                 fp__CCP2_DefaultInterruptHandler 0000  
                 ?_CCP2_DefaultInterruptHandler 0001                                   __activetblptr 0003  
                                ?_EUSART_Rx_ISR 0001                                  ?_EUSART_Tx_ISR 0001  
                              led_turn_on@F3053 0063                               ?_usart_model_init 0001  
                                     ??_RB4_ISR 0001                                       ??_RB5_ISR 0001  
                                     ??_RB6_ISR 0001                                       ??_RB7_ISR 0001  
                             Timer1_Init@_timer 000E                              ??_usart_model_init 000C  
                    _EUSART_OverrunErrorHandler 0086                                          _ADRESH 0FC4  
                                        _EEADRH 0FAA                                          _ADRESL 0FC3  
                                        _EEDATA 0FA8                                          _CCPR1H 0FBF  
                                        _CCPR2H 0FBC                                          _CCPR1L 0FBE  
                                        _CCPR2L 0FBB                                          _EECON2 0FA7  
                  ??_MSSP_I2C_Master_Send_Start 000E                               _EUSART_ASYNC_Init 3706  
                                        i2l1002 3B3A                                          i2l1108 3A7E  
                                        i2l1070 3B2A                                          i2l1119 3A64  
                                        i2l1065 3B2E                                          i2l1322 0FD6  
                                        i2l1075 3B26                                          i2l1331 10E2  
                                        i2l1324 0FF6                                          i2l1341 1256  
                                        i2l1086 3AB2                                          i2l1334 116A  
                                        i2l1326 1016                                          i2l1352 1396  
                                        i2l1328 105A                                          i2l1097 3A98  
                                        i2l1337 11F2                                          i2l1339 1236  
                                        i2l1551 3A48                                          i2l1519 3B16  
                                        i2l1552 3A4A                                          i2l1705 3B32  
                                        i2l1714 3B3C                                          i2l1467 3AF6  
                                        i2l1397 3B04                                          i2l1575 3AE8  
                                        i2l8002 3AB2                                          i2l8010 3A84  
                                        i2l8100 3AF2                                          i2l8030 3A7E  
                                        i2l8022 3A68                                          i2l7240 3A3C  
                                        i2l8016 3A98                                          i2l8008 3A82  
                                        i2l8024 3A6A                                          i2l8112 3ADC  
                                        i2l9000 11A8                                          i2l7242 3A40  
                                        i2l8122 3B30                                          i2l8106 3B10  
                                        i2l8114 3ADE                                          i2l9010 11E8  
                                        i2l9002 11AE                                          i2l7244 3A44  
                                        i2l7236 3A2A                                          i2l7500 34A4  
                                        i2l8044 3A64                                          i2l8036 3A4E  
                                        i2l8116 3AE4                                          i2l9020 122C  
                                        i2l9012 11EC                                          i2l9004 11BC  
                                        i2l7238 3A2A                                          i2l7502 34B0  
                                        i2l8038 3A50                                          i2l9030 1272  
                                        i2l9022 1230                                          i2l9014 1200  
                                        i2l9006 11CA                                          i2l7504 34CC  
                                        i2l8128 3B3C                                          i2l9040 12A4  
                                        i2l9032 1276                                          i2l9024 1244  
                                        i2l9016 120E                                          i2l9008 11D8  
                                        i2l7506 34D8                                          i2l8090 3B00  
                                        i2l9050 12D6                                          i2l9042 12B2  
                                        i2l9034 1284                                          i2l9026 1252  
                                        i2l9018 121C                                          i2l7508 34F4  
                                        i2l7620 2FFC                                          i2l9060 1312  
                                        i2l9052 12E4                                          i2l9044 12B6  
                                        i2l9036 1292                                          i2l9028 1264  
                                        i2l7630 304E                                          i2l7622 3012  
                                        i2l7614 2FD4                                          i2l8086 3AF8  
                                        i2l9070 1344                                          i2l9062 1316  
                                        i2l9054 12F2                                          i2l9046 12C4  
                                        i2l9038 1296                                          i2l7624 301E  
                                        i2l7616 2FD6                                          i2l8088 3AFA  
                                        i2l8096 3AEA                                          i2l9080 1376  
                                        i2l9072 1352                                          i2l9064 1324  
                                        i2l9056 12F6                                          i2l9048 12D2  
                                        i2l7626 3030                                          i2l7618 2FEC  
                                        i2l8098 3AEC                                          i2l9082 1384  
                                        i2l9074 1356                                          i2l9066 1332  
                                        i2l9058 1304                                          i2l7580 306C  
                                        i2l7628 3046                                          i2l9084 1392  
                                        i2l9076 1364                                          i2l9068 1336  
                                        i2l7494 3492                                          i2l7590 30C6  
                                        i2l7582 307C                                          i2l9078 1372  
                                        i2l7496 3492                                          i2l7592 30CE  
                                        i2l7584 3092                                          i2l7576 3054  
                                        i2l7498 3492                                          i2l7586 309E  
                                        i2l7578 3056                                          i2l7930 388E  
                                        i2l7924 3B34                                          i2l7588 30B0  
                                        i2l7940 38D4                                          i2l7932 3890  
                                        i2l7934 38A4                                          i2l7936 38BE  
                                        i2l7938 38C0                                          i2l8930 0FE4  
                                        i2l8940 1032                                          i2l8932 0FF2  
                                        i2l8924 0FB6                                          i2l7982 3B28  
                                        i2l8950 1076                                          i2l8942 1040  
                                        i2l8934 1004                                          i2l8926 0FC4  
                                        i2l7976 3B2C                                          i2l8960 10AC  
                                        i2l8952 1084                                          i2l8944 1050  
                                        i2l8936 1012                                          i2l8928 0FD2  
                                        i2l7994 3A9C                                          i2l8970 10F0  
                                        i2l8962 10BA                                          i2l8954 1094  
                                        i2l8946 1054                                          i2l8938 1024  
                                        i2l7988 3B24                                          i2l7996 3A9E  
                                        i2l8972 10FE                                          i2l8980 1126  
                                        i2l8964 10C8                                          i2l8956 1098  
                                        i2l8948 1068                                          i2l8990 1164  
                                        i2l8982 1134                                          i2l8974 110C  
                                        i2l8966 10D8                                          i2l8958 109E  
                                        i2l8992 1178                                          i2l8984 1142  
                                        i2l8976 111C                                          i2l8968 10DC  
                                        i2l8994 1186                                          i2l8986 1150  
                                        i2l8978 1120                                          i2l8996 1194  
                                        i2l8988 1160                                          i2l8998 11A4  
                                 _CCP1_SET_Duty 39D4                                  ?_Read_Password 0001  
                                        _SPBRGH 0FB0                              ?_EUSART_ASYNC_Init 0051  
                     _MSSP_I2C_Master_Send_Stop 37FA                                          _SSPADD 0FC8  
                                        _SSPBUF 0FC9       __end_of_RealTimeClockDS1307_Get_Date_Time 3706  
           ??_RealTimeClockDS1307_Get_Date_Time 001B              ?_RealTimeClockDS1307_Get_Date_Time 0015  
             _RealTimeClockDS1307_Get_Date_Time 36B6                       keypad_get_value@l_counter 001D  
              MSSP_I2C_Master_Read_Blocking@ack 000E                                __end_of___xxtofl 18F8  
                                 _CCP2_SET_Duty 394A                ??_MSSP_I2C_Master_Mode_Clock_CFG 004F  
               ?_MSSP_I2C_Master_Mode_Clock_CFG 004D                           __end_of_MSSP_I2C_Init 1BAE  
                                 ??_Timer1_Init 0010                                   ??_Timer3_Init 0010  
                           ??_EUSART_ASYNC_Init 0053                                       ??___fladd 003B  
                                        _check2 0057                                          _check3 0056  
                                        _check4 0055                                          _check5 00BA  
                                     ??___fldiv 0022                                       ??___fltol 0047  
                                        clear_0 2F2C                                          clear_1 2F38  
                                        clear_2 2F44                                          _relay1 0073  
                                        _relay2 0072                           led_initialize@pin_obj 001C  
                                        isa$std 0001                                     ?_Door1_Open 0001  
                                   ?_Door2_Open 0001                         relay_initialize@pin_obj 001C  
                   lcd_8bit_send_string_pos@lcd 0027                     lcd_8bit_send_string_pos@ret 002D  
                   lcd_8bit_send_string_pos@row 0029                     lcd_8bit_send_string_pos@str 002B  
       gpio_pin_direction_intialize@_pin_config 000C                                       ?_CCP1_ISR 0001  
                                  __pdataCOMRAM 006B                                       ?_CCP2_ISR 0001  
                                  __mediumconst FEB2               EEPROM_24C02C_Write_Byte@slave_ack 0015  
                                _password_check 0054                                          tblptrh 0FF7  
                                        tblptrl 0FF6                                          tblptru 0FF8  
                          relay_turn_on@pin_obj 0018                       __end_of_EUSART_ASYNC_Init 3750  
                             ?_relay_initialize 0019                                       ?_CCP_Init 0019  
                  __end_of_EUSART_ASYNC_RX_Init 24AE                     Read_RealTimeClockDS1307@add 0012  
                  __end_of_EUSART_ASYNC_TX_Init 2842                              ??_relay_initialize 001B  
                                ?_CCP1_SET_Duty 0001                                    ___xxtofl@arg 0016  
                                  ___xxtofl@exp 0015                                    ___xxtofl@val 000C  
                                    __accesstop 0080                         __end_of__initialization 2F4A  
                                     ?_INT0_ISR 0001                                       ?_INT1_ISR 0001  
                                     ?_INT2_ISR 0001                                  ?_CCP2_SET_Duty 0001  
                                 ___rparam_used 0001                                      ___fltol@f1 0043  
              ??_MSSP_I2C_Master_Write_Blocking 0011                 ?_MSSP_I2C_Master_Write_Blocking 000C  
                  CCP_Interrupt_Config@_ccp_obj 000C                               led_initialize@led 0019  
                        ??_gpio_pin_write_logic 000F                        _Read_RealTimeClockDS1307 268C  
                                __pcstackCOMRAM 0001                                    __pidataBANK0 3AB4  
                                  __pidataBANK1 3A02                                       ?_TMR0_ISR 0001  
         MSSP_I2C_Master_Write_Blocking@i2c_obj 000C                                       ?_TMR1_ISR 0001  
                                     ?_TMR2_ISR 0001                                       ?_TMR3_ISR 0001  
                        ?_CCP_Mode_Timer_Select 000C                             __end_of_Timer1_Init 2C6E  
                           __end_of_Timer3_Init 2BCA                                 ??_EUSART_Rx_ISR 0001  
                               ??_EUSART_Tx_ISR 0001                               RB5_ISR@RB5_source 0001  
                            _Timer3_Write_value 3A2A                                      ??_CCP1_ISR 0008  
                                    ??_CCP2_ISR 0008                               Timer3_Init@_timer 000E  
                           ?_Timer3_Write_value 0001                                      ??_CCP_Init 001B  
                               ??_Read_Password 002E                                      __pbssBANK0 0080  
                                    __pbssBANK1 0100                           _INT0_InterruptHandler 00B0  
                                    ??_INT0_ISR 0001                                      ??_INT1_ISR 0001  
                                    ??_INT2_ISR 0001                   __end_of_application_intialize 3B1E  
                        lcd_8bit_initialize@lcd 0021                          lcd_8bit_initialize@ret 0026  
                        _TMR0_Interrupt_Handler 009A                          _TMR3_Interrupt_Handler 0090  
                          ??_Timer3_Write_value 0005                     ??_Print_RealTimeClockDS1307 002E  
             MSSP_I2C_Master_Write_Blocking@ack 000F                                      ??_TMR0_ISR 0001  
                                    ??_TMR1_ISR 0001                                      ??_TMR2_ISR 0001  
                                    ??_TMR3_ISR 0001                               led_turn_off@F3058 0062  
                                 ??_I2C_Obj_CFG 000C                                         _ADC_ISR 3B34  
                   EUSART_ASYNC_TX_Init@_eusart 000C                                 led_toggle@F3063 0061  
                                       _RB4_ISR 3A9A                                         _RB5_ISR 3A80  
                                       _RB6_ISR 3A66                                         _RB7_ISR 3A4C  
                                     ?___xxtofl 000C                       _RB6_InterruptHandler_HIGH 00A2  
                                 ?_MSSP_I2C_ISR 0001             __end_of_lcd_8bit_send_enable_signal 37FA  
                   _lcd_8bit_send_enable_signal 37C6                               ?_keypad_get_value 0015  
                     ?_EEPROM_24C02C_Write_Byte 0011                               RB7_ISR@RB7_source 0001  
                ??_CCP1_DefaultInterruptHandler 0008              __end_of_MSSP_I2C_Master_Send_Start 385E  
                    _MSSP_I2C_Master_Send_Start 382C                                 ??_CCP1_SET_Duty 000C  
                        _MSSP_I2C_MODE_GPIO_CFG 3B1E                                ??_led_initialize 001B  
               CCP_Compare_Mode_Set_Value@F3112 00B2                              ??_keypad_get_value 0019  
                               ??_CCP2_SET_Duty 000C                  lcd_8bit_send_enable_signal@lcd 0015  
                lcd_8bit_send_enable_signal@ret 0017                                  _tris_registers 0144  
                      _RB6_InterruptHandler_LOW 00A0          EEPROM_24C02C_Write_Byte@EEPROM_Address 0014  
                 ??_lcd_8bit_send_enable_signal 0017                                         _i2c_obj 0065  
                             ??_MSSP_I2C_BC_ISR 0001          lcd_8bit_initialize@l_data_pins_counter 0025  
                                       __Hparam 0000                                     _Timer1_Init 2BCA  
                                       __Lparam 0000                                     _Timer3_Init 2B26  
                           _ecu_layer_intialize 364C                    __end_of_CCP_Interrupt_Config 37C6  
                                       ___fladd 0AE4                           _lcd_8bit_send_command 2DA6  
                                       ___fldiv 13AA                             _gpio_pin_read_logic 2A76  
               CCP_Compare_Mode_Config@_ccp_obj 000F                                         ___fltol 22AC  
                             __end_of_btn_value FEC3               _EUSART_Baud_Rate_Calculation$5468 0165  
                          _EUSART_ASYNC_RX_Init 23B2                            _EUSART_ASYNC_TX_Init 276E  
                    __end_of_gpio_pin_intialize 364C                                         __pcinit 2EC6  
                                       __ramtop 1000                        _lcd_8bit_send_string_pos 29C4  
                                       __ptext0 0012                                         __ptext1 31D0  
                                       __ptext2 3248                                         __ptext3 3B18  
                                       __ptext4 364C                                         __ptext5 3750  
                                       __ptext6 3338                                         __ptext7 33AC  
                                       __ptext8 1E2A                                         __ptext9 2F54  
                                     _T0CONbits 0FD5                                       _T1CONbits 0FCD  
                                ??_MSSP_I2C_ISR 0001                                       _T2CONbits 0FCA  
                                       _keypad1 0159                             __end_of_I2C_Obj_CFG 3ADC  
                                    ??___xxtofl 0010                                       _T3CONbits 0FB1  
                       _CCP_Compare_Mode_Config 18F8                            ?_ecu_layer_intialize 0001  
             keypad_get_value@l_coulmns_counter 001F      EUSART_Baud_Rate_Calculation@Baud_Rate_Temp 0161  
                     _Print_RealTimeClockDS1307 24AE                            ?_gpio_pin_read_logic 000C  
                      ?_CCP_Capture_Mode_Config 000F                MSSP_I2C_Master_Send_Stop@i2c_obj 000C  
                                __pintcode_body 0FA4                            end_of_initialization 2F4A  
                             _timer1_timer_init 39A6                                         int_func 0FA4  
                            ?_timer1_timer_init 0001                    ??_CCP_Compare_Mode_Set_Value 0010  
                         gpio_pin_intialize@ret 0018                                       _RCSTAbits 0FAB  
                                    _timer1_obj 00DD                                         postdec1 0FE5  
                                       postdec2 0FDD                             ??_timer1_timer_init 0012  
                                       postinc0 0FEE                                         postinc2 0FDE  
   __end_of_MSSP_I2C_Master_Send_Repeated_Start 388E           ??_MSSP_I2C_Master_Send_Repeated_Start 000E  
          ?_MSSP_I2C_Master_Send_Repeated_Start 000C             _MSSP_I2C_Master_Send_Repeated_Start 385E  
                         ?_EUSART_ASYNC_RX_Init 000C                           ?_EUSART_ASYNC_TX_Init 000C  
                                  ??_Door1_Open 001C                                    ??_Door2_Open 001C  
                         _INT1_InterruptHandler 00AE                                       _PORTBbits 0F81  
                 gpio_pin_intialize@_pin_config 0015                                    _compare_flag 005C  
                                   ___fladd@grs 0042                           ??_ecu_layer_intialize 0054  
          __end_of_gpio_pin_direction_intialize 1E2A                    _gpio_pin_direction_intialize 1CEE  
                                 ___xxtofl@sign 0014                                       _TRISCbits 0F94  
                         ??_gpio_pin_read_logic 0010                                     ___fldiv@grs 002D  
                                   ___fldiv@rem 0026                       __end_of_timer1_timer_init 39D4  
                    ??_Read_RealTimeClockDS1307 0011                               _timer3_timer_init 391C  
                                   _CCP1CONbits 0FBD                                CCP_Init@_ccp_obj 0019  
                                   _CCP2CONbits 0FBA                                       _TXSTAbits 0FAC  
                            ?_timer3_timer_init 0001                              __end_of_Door1_Open 39A6  
                            __end_of_Door2_Open 391C                    keypad_get_value@coulmn_logic 001C  
                       ??_CCP_Mode_Timer_Select 000E                              relay_turn_on@F3047 005E  
                        ?_lcd_8bit_send_command 0018                  lcd_8bit_send_string_pos@column 002A  
                      EUSART_ASYNC_Init@_eusart 0051                             ??_timer3_timer_init 0012  
                         keypad_get_value@value 0017                   convert_uint16_to_string@F3201 011A  
                 convert_uint32_to_string@F3208 0100                                     _I2C_Obj_CFG 3AC8  
                                   _BAUDCONbits 0FB8                                   __pidataCOMRAM 3B06  
                                _timer0_preload 0098                       ??_CCP_Compare_Mode_Config 0011  
         lcd_8bit_send_char_data@l_pins_counter 0020                                  _timer1_preload 0094  
                      Timer1_Mode_Select@_timer 000C                                  _timer2_preload 005A  
               __end_of_CCP_Capture_Mode_Config 1CEE                             start_initialization 2EC6  
                                 ??_led_turn_on 0017                                  _timer3_preload 008E  
           EUSART_Baud_Rate_Calculation@_eusart 004D                             _lcd_8bit_initialize 1E2A  
                 ?_gpio_pin_direction_intialize 000C                            _CCP_Interrupt_Config 378C  
                     __end_of_timer3_timer_init 394A            __end_ofi2_CCP_Compare_Mode_Set_Value 3504  
                  i2_CCP_Compare_Mode_Set_Value 3492            __end_of_EUSART_Baud_Rate_Calculation 0AE4  
                  _EUSART_Baud_Rate_Calculation 05F4                       _EUSART_RxInterruptHandler 008A  
                    __end_of_Timer1_Mode_Select 31D0           __end_of_MSSP_I2C_Master_Read_Blocking 3338  
                 _MSSP_I2C_Master_Read_Blocking 32C0                            __end_of_MSSP_I2C_ISR 3B3A  
                          ?_lcd_8bit_initialize 0021                         _lcd_8bit_send_char_data 2E36  
                    _EUSART_FramingErrorHandler 0088                          ??_EUSART_ASYNC_RX_Init 000E  
                        ??_EUSART_ASYNC_TX_Init 000E                                   _relay_turn_on 31D0  
                                   __pdataBANK0 00EB                                     __pdataBANK1 013A  
              __end_of_EEPROM_24C02C_Write_Byte 29C4                    convert_uint8_to_string@F3194 0120  
                                      ?_ADC_ISR 0001                             _lcd_8bit_set_cursor 2D0C  
                      lcd_8bit_send_command@lcd 0018                        lcd_8bit_send_command@ret 001F  
                         __end_of_EUSART_Rx_ISR 3B3E                                       ___fladd@a 0037  
                                     ___fladd@b 0033                           __end_of_EUSART_Tx_ISR 3B34  
                          MSSP_I2C_Init@i2c_obj 0051                                       ___fldiv@a 001E  
                                     ___fldiv@b 001A                                        ?_RB4_ISR 0001  
                                      ?_RB5_ISR 0001                                        ?_RB6_ISR 0001  
                                      ?_RB7_ISR 0001                         ?_MSSP_I2C_MODE_GPIO_CFG 0001  
                                   __pbssCOMRAM 0054                                   __pcstackBANK1 0161  
                         ?_CCP_Interrupt_Config 000C                                 _MSSP_I2C_BC_ISR 3B3A  
                   ?_MSSP_I2C_Master_Send_Start 000C                                  _Check_Password 207A  
                        _CCP1_Interrupt_Handler 00B6                             __end_of_led_turn_on 32C0  
                          ?_lcd_8bit_set_cursor 0021                           __end_of_Read_Password 268C  
                         _INT2_InterruptHandler 00AC                                _usart_model_init 3750  
             Read_RealTimeClockDS1307@data_read 0013              __end_of_CCP_Compare_Mode_Set_Value 3492  
                 ?i2_CCP_Compare_Mode_Set_Value 0001                      _CCP_Compare_Mode_Set_Value 3420  
                 ?_EUSART_Baud_Rate_Calculation 004D                           ??_lcd_8bit_initialize 0023  
                                  ?_Timer1_Init 000E                    __end_of_InterruptManagerHigh 13AA  
                    ??_lcd_8bit_send_string_pos 002D                                    ?_Timer3_Init 000E  
                                 _MSSP_I2C_Init 1A60                   keypad_initialize@rows_counter 001E  
                        _TMR1_Interrupt_Handler 0096                           _application_intialize 3B18  
                                     __pintcode 0008                     lcd_8bit_send_char_data@data 001A  
                                ?_relay_turn_on 0015                                   __pmediumconst FEB2  
                                      ?___fladd 0033                 gpio_pin_write_logic@_pin_config 000C  
                                      ?___fldiv 001A                                        ?___fltol 0043  
                     gpio_pin_write_logic@logic 000E                  __end_of_MSSP_I2C_MODE_GPIO_CFG 3B24  
                                     _btn_value FEB3                       _RB4_InterruptHandler_HIGH 00AA  
                                      _CCP1_ISR 38BE                                        _CCP2_ISR 388E  
                      Timer3_Write_value@_value 0003                        Timer3_Write_value@_timer 0001  
                     _RB7_InterruptHandler_HIGH 009E                          __end_of_Check_Password 219C  
                 CCP_Mode_Timer_Select@_ccp_obj 000C                                        _CCP_Init 2842  
                            _gpio_pin_intialize 35E0                           __end_of_CCP1_SET_Duty 3A02  
                         ??_lcd_8bit_set_cursor 0025                  ??_CCP2_DefaultInterruptHandler 0008  
              keypad_initialize@coulmns_counter 001F                  ??_gpio_pin_direction_intialize 000E  
                      _RB5_InterruptHandler_LOW 00A4                                        _INT0_ISR 3B2C  
                                      _INT1_ISR 3B28                                        _INT2_ISR 3B24  
                         __end_of_CCP2_SET_Duty 3978                                        _RB4_Flag 006E  
                     ??_lcd_8bit_send_char_data 001B                                        _RB5_Flag 006D  
                                      _RB6_Flag 006C                                        _RB7_Flag 006B  
                           ?_gpio_pin_intialize 0015                                        _PIE1bits 0F9D  
                                      _PIE2bits 0FA0                                  ?_MSSP_I2C_Init 0051  
                    __end_of_Timer3_Mode_Select 3152               Read_RealTimeClockDS1307@slave_ack 0014  
                                      _PIR1bits 0F9E                                        _PIR2bits 0FA1  
                                      i2u614_40 34A4                                        i2u614_41 34A0  
                            led_turn_on@pin_obj 0018                                        i2u615_40 34CC  
                                      i2u623_40 2FFC                                        i2u615_41 34C8  
                                      i2u623_41 2FF8                                        i2u616_40 34F4  
                                      i2u624_40 3030                                        i2u616_41 34F0  
                                      i2u624_41 302C                                _relay_initialize 3338  
                                      i2u618_40 307C                                        i2u642_40 38A4  
                                      i2u618_41 3078                                        i2u642_41 38A0  
                                      i2u619_40 30B0                                        i2u619_41 30AC  
                                      i2u644_40 38D4                                        i2u643_48 38AA  
                                      i2u740_40 1032                                        i2u644_41 38D0  
                                      i2u643_49 38BC                                        i2u740_41 102E  
                                      i2u741_40 1040                                        i2u733_40 0FC4  
                                      i2u741_41 103C                                        i2u733_41 0FC0  
                                      i2u645_48 38DA                                        i2u646_40 3AAE  
                                      i2u750_40 10D8                                        i2u742_40 1050  
                                      i2u734_40 0FD2                                        i2u645_49 38EC  
                                      i2u646_41 3AAA                                        i2u750_41 10D4  
                                      i2u742_41 104C                                        i2u734_41 0FCE  
                                      i2u647_40 3A94                                        i2u751_40 10F0  
                                      i2u743_40 1068                                        i2u735_40 0FE4  
                                      i2u647_41 3A90                                        i2u751_41 10EC  
                                      i2u743_41 1064                                        i2u735_41 0FE0  
                                      i2u648_40 3A7A                                        i2u760_40 1186  
                                      i2u752_40 10FE                                        i2u744_40 1076  
                                      i2u736_40 0FF2                                        i2u648_41 3A76  
                                      i2u760_41 1182                                        i2u752_41 10FA  
                                      i2u744_41 1072                                        i2u736_41 0FEE  
                                      i2u649_40 3A60                                        i2u761_40 1194  
                                      i2u753_40 110C                                        i2u745_40 1084  
                                      i2u737_40 1004                                        i2u649_41 3A5C  
                                      i2u761_41 1190                                        i2u753_41 1108  
                                      i2u745_41 1080                                        i2u737_41 1000  
                                      i2u770_40 122C                                        i2u762_40 11A4  
                                      i2u754_40 111C                                        i2u746_40 1094  
                                      i2u738_40 1012                                        i2u770_41 1228  
                                      i2u762_41 11A0                                        i2u754_41 1118  
                                      i2u746_41 1090                                        i2u738_41 100E  
                                      i2u771_40 1244                                        i2u763_40 11BC  
                                      i2u755_40 1134                                        i2u747_40 10AC  
                                      i2u739_40 1024                                        i2u771_41 1240  
                                      i2u763_41 11B8                                        i2u755_41 1130  
                                      i2u747_41 10A8                                        i2u739_41 1020  
                                      i2u780_40 12D2                                        i2u772_40 1252  
                                      i2u764_40 11CA                                        i2u756_40 1142  
                                      i2u748_40 10BA                                        i2u780_41 12CE  
                                      i2u772_41 124E                                        i2u764_41 11C6  
                                      i2u756_41 113E                                        i2u748_41 10B6  
                                      i2u597_40 3A3C                                        i2u781_40 12E4  
                                      i2u773_40 1264                                        i2u765_40 11D8  
                                      i2u757_40 1150                                        i2u749_40 10C8  
                                      i2u597_41 3A38                                        i2u781_41 12E0  
                                      i2u773_41 1260                                        i2u765_41 11D4  
                                      i2u757_41 114C                                        i2u749_41 10C4  
                                      i2u790_40 1372                                        i2u782_40 12F2  
                                      i2u774_40 1272                                        i2u766_40 11E8  
                                      i2u758_40 1160                                        i2u790_41 136E  
                                      i2u782_41 12EE                                        i2u774_41 126E  
                                      i2u766_41 11E4                                        i2u758_41 115C  
                                      i2u791_40 1384                                        i2u783_40 1304  
                                      i2u775_40 1284                                        i2u767_40 1200  
                                      i2u759_40 1178                                        i2u791_41 1380  
                                      i2u783_41 1300                                        i2u775_41 1280  
                                      i2u767_41 11FC                                        i2u759_41 1174  
                                      i2u792_40 1392                                        i2u784_40 1312  
                                      i2u776_40 1292                                        i2u768_40 120E  
                                      i2u792_41 138E                                        i2u784_41 130E  
                                      i2u776_41 128E                                        i2u768_41 120A  
                                      i2u785_40 1324                                        i2u777_40 12A4  
                                      i2u769_40 121C                                        i2u785_41 1320  
                                      i2u777_41 12A0                                        i2u769_41 1218  
                                      i2u786_40 1332                                        i2u778_40 12B2  
                                      i2u786_41 132E                                        i2u778_41 12AE  
                                      i2u787_40 1344                                        i2u779_40 12C4  
                                      i2u787_41 1340                                        i2u779_41 12C0  
                                      i2u788_40 1352                                        i2u788_41 134E  
                                      i2u789_40 1364                                        i2u789_41 1360  
                             RB4_ISR@RB4_source 0001                                        _TMR0_ISR 3AF8  
          __end_of_CCP1_DefaultInterruptHandler 30D4                    _CCP1_DefaultInterruptHandler 3054  
                                      _TMR1_ISR 3AEA                                        _TMR2_ISR 3B10  
                                      _TMR3_ISR 3ADC                  ?_MSSP_I2C_Master_Read_Blocking 000C  
                                     _timer_obj 00E4                                      _ADCON0bits 0FC2  
                                    _ADCON1bits 0FC1                                      _ADCON2bits 0FC0  
                       __end_of_MSSP_I2C_BC_ISR 3B3C                            ??_gpio_pin_intialize 0017  
                      _EEPROM_24C02C_Write_Byte 2910                                       _usart_obj 00BB  
                        ??_CCP_Interrupt_Config 000E                                     _led_turn_on 3248  
                               ?_Check_Password 0001                       lcd_8bit_set_cursor@coulmn 0024  
                                   _INTCON2bits 0FF1                                     _INTCON3bits 0FF0  
                                     copy_data0 2EDA                                       copy_data1 2EFA  
                                     copy_data2 2F1A                               _keypad_initialize 2F54  
                            ?_keypad_initialize 0019                         ??_lcd_8bit_send_command 001B  
                  _RealTimeClockDS1307_Str_Data 010B                                      _EECON1bits 0FA6  
                        ?_application_intialize 0001                                  led_turn_on@led 0015  
                                      _Password 0154                                        __Hrparam 0000  
                               ??_relay_turn_on 0017                                        __Lrparam 0000  
                           ??_keypad_initialize 001B                  ??i2_CCP_Compare_Mode_Set_Value 0005  
                ??_EUSART_Baud_Rate_Calculation 004F                     EUSART_ASYNC_RX_Init@_eusart 000C  
                 __end_of_CCP_Mode_Timer_Select 3574                           _ADC_Interrupt_Handler 00B8  
                                  ?_I2C_Obj_CFG 0001                             _RealTimeClockDS1307 0114  
                   __end_of_ecu_layer_intialize 36B6                 fp__CCP1_DefaultInterruptHandler 0000  
                 ?_CCP1_DefaultInterruptHandler 0001                                        _ccp1_obj 012F  
                                      _ccp2_obj 0124                 __end_of_lcd_8bit_send_char_data 2EC6  
                    ?_MSSP_I2C_Master_Send_Stop 000C                     __end_of_gpio_pin_read_logic 2B26  
             MSSP_I2C_Master_Send_Start@i2c_obj 000C                     keypad_get_value@_keypad_obj 0015  
                             RB6_ISR@RB6_source 0001                                        ___xxtofl 1744  
                                  _MSSP_I2C_ISR 3B38           MSSP_I2C_Master_Read_Blocking@i2c_data 000F  
                          _InterruptManagerHigh 0008                      lcd_8bit_send_char_data@lcd 0018  
                    lcd_8bit_send_char_data@ret 001F                       __end_of_keypad_initialize 2FD4  
                                      __ptext10 1A60                                        __ptext11 2C6E  
                                      __ptext20 276E                                        __ptext12 3B1E  
                                      __ptext21 23B2                                        __ptext13 3AC8  
                                      __ptext30 382C                                        __ptext22 36B6  
                                      __ptext14 3706                                        __ptext31 38EE  
                                      __ptext23 268C                                        __ptext15 05F4  
                                      __ptext40 2842                                        __ptext32 391C  
                                      __ptext24 385E                                        __ptext16 1744  
                                      __ptext41 35E0                                        __ptext33 2B26  
                                      __ptext25 32C0                                        __ptext17 22AC  
                                      __ptext50 25A2                                        __ptext42 1CEE  
                                      __ptext34 30D4                                        __ptext26 24AE  
                                      __ptext18 13AA                                        __ptext51 29C4  
                                      __ptext43 378C                                        __ptext35 394A  
                                      __ptext27 2910                                        __ptext19 0AE4  
                                      __ptext60 3ADC                                        __ptext52 2D0C  
                                      __ptext44 18F8                                        __ptext36 3978  
                                      __ptext28 3574                                        __ptext61 3B10  
                                      __ptext53 2DA6                                        __ptext45 1BAE  
                                      __ptext37 39A6                                        __ptext29 37FA  
                                      __ptext70 3B24                                        __ptext62 3AEA  
                                      __ptext54 2E36                                        __ptext46 3504  
                                      __ptext38 2BCA                                        __ptext71 3B28  
                                      __ptext63 3AF8                                        __ptext55 37C6  
                                      __ptext47 3420                                        __ptext39 3152  
                                      __ptext80 3A2A                                        __ptext72 3B2C  
                                      __ptext64 3A4C                                        __ptext56 219C  
                                      __ptext48 39D4                                        __ptext81 3B34  
                                      __ptext73 3B30                                        __ptext65 3A66  
                                      __ptext57 1F56                                        __ptext49 207A  
                                      __ptext82 0000                                        __ptext74 3B3C  
                                      __ptext66 3A80                                        __ptext58 2A76  
                                      __ptext75 388E                                        __ptext67 3A9A  
                                      __ptext76 2FD4                                        __ptext68 3B38  
                                      __ptext77 38BE                                        __ptext69 3B3A  
                                      __ptext78 3054                                        __ptext79 3492  
                                   _keypadvalue 006A                                 ??_MSSP_I2C_Init 0053  
              __end_of_lcd_8bit_send_string_pos 2A76         CCP_Compare_Mode_Set_Value@compare_value 000E  
     i2CCP_Compare_Mode_Set_Value@compare_value 0003                                _keypad_get_value 219C  
                                      isa$xinst 0000                                        int$flags 0074  
                     ?_Read_RealTimeClockDS1307 0001           MSSP_I2C_Master_Mode_Clock_CFG@i2c_obj 004D  
                            _Timer1_Mode_Select 3152                        __end_of_usart_model_init 378C  
                      Timer3_Mode_Select@_timer 000C                                ?_MSSP_I2C_BC_ISR 0001  
             __end_of_MSSP_I2C_Master_Send_Stop 382C                                      _INTCONbits 0FF2  
        __end_of_MSSP_I2C_Master_Mode_Clock_CFG 2D0C                  _MSSP_I2C_Master_Mode_Clock_CFG 2C6E  
                         ?_InterruptManagerHigh 0001                  keypad_get_value@l_rows_counter 001E  
                           ?_Timer1_Mode_Select 000C                    __end_of_gpio_pin_write_logic 207A  
                  ?_lcd_8bit_send_enable_signal 0015                                        intlevel2 0000  
                     _EUSART_TxInterruptHandler 008C                    keypad_initialize@_keypad_obj 0019  
                   ?_CCP_Compare_Mode_Set_Value 000C                         _CCP_Capture_Mode_Config 1BAE  
                          ??_Timer1_Mode_Select 000E                        ?_CCP_Compare_Mode_Config 000F  
  CCP_Compare_Mode_Set_Value@capture_temp_value 0011  i2CCP_Compare_Mode_Set_Value@capture_temp_value 0006  
                      _RealTimeClockDS1307_Data 00D4                        _RealTimeClockDS1307_Time 00CB  
                                 _compare2_flag 005B                                  _port_registers 013A  
        __end_of_MSSP_I2C_Master_Write_Blocking 35E0                  _MSSP_I2C_Master_Write_Blocking 3574  
                      __end_of_relay_initialize 33AC                                     _SSPCON1bits 0FC6  
                                   _SSPCON2bits 0FC5                                   ___fladd@signs 003F  
                        _CCP2_Interrupt_Handler 00B4                     __end_of_lcd_8bit_initialize 1F56  
                  lcd_8bit_send_command@command 001A                                    ___fladd@aexp 0040  
                                  ___fladd@bexp 0041                      __end_of_Timer3_Write_value 3A4C  
                                _led_initialize 33AC                          _TMR2_Interrupt_Handler 0092  
          EEPROM_24C02C_Write_Byte@Byte_Address 0011  
